###############################################################################
#                                                                             #
# IAR C/C++ Compiler V8.10.1.10194/W32 for 8051         14/Dec/2019  17:19:42 #
# Copyright 2004-2011 IAR Systems AB.                                         #
#                                                                             #
#    Core               =  plain                                              #
#    Code model         =  banked                                             #
#    Data model         =  large                                              #
#    Calling convention =  xdata reentrant                                    #
#    Constant location  =  data_rom                                           #
#    Dptr setup         =  1,16                                               #
#    Source file        =  C:\Users\25814\Desktop\2020毕设\曹文博_温泉管理\硬 #
#                          件部分\Projects\zstack\Samples\SampleApp\Source\Sa #
#                          mpleApp.c                                          #
#    Command line       =  -f C:\Users\25814\Desktop\2020毕设\曹文博_温泉管理 #
#                          \硬件部分\Projects\zstack\Samples\SampleApp\CC2530 #
#                          DB\..\..\..\Tools\CC2530DB\f8wCoord.cfg            #
#                          (-DCPU32MHZ -DROOT=__near_func                     #
#                          -DMAC_CFG_APP_PENDING_QUEUE=TRUE                   #
#                          -DMAC_CFG_TX_DATA_MAX=5 -DMAC_CFG_TX_MAX=8         #
#                          -DMAC_CFG_RX_MAX=5 -DZDO_COORDINATOR -DRTR_NWK)    #
#                          -f C:\Users\25814\Desktop\2020毕设\曹文博_温泉管理 #
#                          \硬件部分\Projects\zstack\Samples\SampleApp\CC2530 #
#                          DB\..\..\..\Tools\CC2530DB\f8wConfig.cfg           #
#                          (-DZIGBEEPRO -DSECURE=0 -DZG_SECURE_DYNAMIC=0      #
#                          -DREFLECTOR -DDEFAULT_CHANLIST=0x00000800          #
#                          -DZDAPP_CONFIG_PAN_ID=0xFFF1                       #
#                          -DNWK_START_DELAY=100 -DEXTENDED_JOINING_RANDOM_MA #
#                          SK=0x007F -DBEACON_REQUEST_DELAY=100               #
#                          -DBEACON_REQ_DELAY_MASK=0x00FF                     #
#                          -DLINK_STATUS_JITTER_MASK=0x007F                   #
#                          -DROUTE_EXPIRY_TIME=30 -DAPSC_ACK_WAIT_DURATION_PO #
#                          LLED=3000 -DNWK_INDIRECT_MSG_TIMEOUT=7             #
#                          -DMAX_RREQ_ENTRIES=8 -DAPSC_MAX_FRAME_RETRIES=3    #
#                          -DNWK_MAX_DATA_RETRIES=2                           #
#                          -DMAX_POLL_FAILURE_RETRIES=2 -DMAX_BCAST=9         #
#                          -DAPS_MAX_GROUPS=16 -DMAX_RTG_ENTRIES=40           #
#                          -DNWK_MAX_BINDING_ENTRIES=4                        #
#                          -DMAX_BINDING_CLUSTER_IDS=4 "-DDEFAULT_KEY={0x01,  #
#                          0x03, 0x05, 0x07, 0x09, 0x0B, 0x0D, 0x0F, 0x00,    #
#                          0x02, 0x04, 0x06, 0x08, 0x0A, 0x0C, 0x0D}"         #
#                          -DMAC_MAX_FRAME_SIZE=116                           #
#                          -DZDNWKMGR_MIN_TRANSMISSIONS=20 "-DCONST=const     #
#                          __code" -DGENERIC=__generic                        #
#                          -DRFD_RCVC_ALWAYS_ON=FALSE -DPOLL_RATE=1000        #
#                          -DQUEUED_POLL_RATE=100 -DRESPONSE_POLL_RATE=100)   #
#                          -DREJOIN_POLL_RATE=440 C:\Users\25814\Desktop\2020 #
#                          毕设\曹文博_温泉管理\硬件部分\Projects\zstack\Samp #
#                          les\SampleApp\Source\SampleApp.c -D ZAPP_P1 -D     #
#                          MT_TASK -D MT_SYS_FUNC -D MT_ZDO_FUNC -D           #
#                          LCD_SUPPORTED=DEBUG -lC C:\Users\25814\Desktop\202 #
#                          0毕设\曹文博_温泉管理\硬件部分\Projects\zstack\Sam #
#                          ples\SampleApp\CC2530DB\CoordinatorEB\List\ -lA    #
#                          C:\Users\25814\Desktop\2020毕设\曹文博_温泉管理\硬 #
#                          件部分\Projects\zstack\Samples\SampleApp\CC2530DB\ #
#                          CoordinatorEB\List\ --diag_suppress Pe001,Pa010    #
#                          -o C:\Users\25814\Desktop\2020毕设\曹文博_温泉管理 #
#                          \硬件部分\Projects\zstack\Samples\SampleApp\CC2530 #
#                          DB\CoordinatorEB\Obj\ -e --no_code_motion --debug  #
#                          --core=plain --dptr=16,1 --data_model=large        #
#                          --code_model=banked --calling_convention=xdata_ree #
#                          ntrant --place_constants=data_rom                  #
#                          --nr_virtual_regs 16 -I C:\Users\25814\Desktop\202 #
#                          0毕设\曹文博_温泉管理\硬件部分\Projects\zstack\Sam #
#                          ples\SampleApp\CC2530DB\ -I                        #
#                          C:\Users\25814\Desktop\2020毕设\曹文博_温泉管理\硬 #
#                          件部分\Projects\zstack\Samples\SampleApp\CC2530DB\ #
#                          ..\Source\ -I C:\Users\25814\Desktop\2020毕设\曹文 #
#                          博_温泉管理\硬件部分\Projects\zstack\Samples\Sampl #
#                          eApp\CC2530DB\..\..\..\ZMain\TI2530DB\ -I          #
#                          C:\Users\25814\Desktop\2020毕设\曹文博_温泉管理\硬 #
#                          件部分\Projects\zstack\Samples\SampleApp\CC2530DB\ #
#                          ..\..\..\..\..\Components\hal\include\ -I          #
#                          C:\Users\25814\Desktop\2020毕设\曹文博_温泉管理\硬 #
#                          件部分\Projects\zstack\Samples\SampleApp\CC2530DB\ #
#                          ..\..\..\..\..\Components\hal\target\CC2530EB\ -I  #
#                          C:\Users\25814\Desktop\2020毕设\曹文博_温泉管理\硬 #
#                          件部分\Projects\zstack\Samples\SampleApp\CC2530DB\ #
#                          ..\..\..\..\..\Components\mac\include\ -I          #
#                          C:\Users\25814\Desktop\2020毕设\曹文博_温泉管理\硬 #
#                          件部分\Projects\zstack\Samples\SampleApp\CC2530DB\ #
#                          ..\..\..\..\..\Components\mac\high_level\ -I       #
#                          C:\Users\25814\Desktop\2020毕设\曹文博_温泉管理\硬 #
#                          件部分\Projects\zstack\Samples\SampleApp\CC2530DB\ #
#                          ..\..\..\..\..\Components\mac\low_level\srf04\ -I  #
#                          C:\Users\25814\Desktop\2020毕设\曹文博_温泉管理\硬 #
#                          件部分\Projects\zstack\Samples\SampleApp\CC2530DB\ #
#                          ..\..\..\..\..\Components\mac\low_level\srf04\sing #
#                          le_chip\ -I C:\Users\25814\Desktop\2020毕设\曹文博 #
#                          _温泉管理\硬件部分\Projects\zstack\Samples\SampleA #
#                          pp\CC2530DB\..\..\..\..\..\Components\mt\ -I       #
#                          C:\Users\25814\Desktop\2020毕设\曹文博_温泉管理\硬 #
#                          件部分\Projects\zstack\Samples\SampleApp\CC2530DB\ #
#                          ..\..\..\..\..\Components\osal\include\ -I         #
#                          C:\Users\25814\Desktop\2020毕设\曹文博_温泉管理\硬 #
#                          件部分\Projects\zstack\Samples\SampleApp\CC2530DB\ #
#                          ..\..\..\..\..\Components\services\saddr\ -I       #
#                          C:\Users\25814\Desktop\2020毕设\曹文博_温泉管理\硬 #
#                          件部分\Projects\zstack\Samples\SampleApp\CC2530DB\ #
#                          ..\..\..\..\..\Components\services\sdata\ -I       #
#                          C:\Users\25814\Desktop\2020毕设\曹文博_温泉管理\硬 #
#                          件部分\Projects\zstack\Samples\SampleApp\CC2530DB\ #
#                          ..\..\..\..\..\Components\stack\af\ -I             #
#                          C:\Users\25814\Desktop\2020毕设\曹文博_温泉管理\硬 #
#                          件部分\Projects\zstack\Samples\SampleApp\CC2530DB\ #
#                          ..\..\..\..\..\Components\stack\nwk\ -I            #
#                          C:\Users\25814\Desktop\2020毕设\曹文博_温泉管理\硬 #
#                          件部分\Projects\zstack\Samples\SampleApp\CC2530DB\ #
#                          ..\..\..\..\..\Components\stack\sapi\ -I           #
#                          C:\Users\25814\Desktop\2020毕设\曹文博_温泉管理\硬 #
#                          件部分\Projects\zstack\Samples\SampleApp\CC2530DB\ #
#                          ..\..\..\..\..\Components\stack\sec\ -I            #
#                          C:\Users\25814\Desktop\2020毕设\曹文博_温泉管理\硬 #
#                          件部分\Projects\zstack\Samples\SampleApp\CC2530DB\ #
#                          ..\..\..\..\..\Components\stack\sys\ -I            #
#                          C:\Users\25814\Desktop\2020毕设\曹文博_温泉管理\硬 #
#                          件部分\Projects\zstack\Samples\SampleApp\CC2530DB\ #
#                          ..\..\..\..\..\Components\stack\zdo\ -I            #
#                          C:\Users\25814\Desktop\2020毕设\曹文博_温泉管理\硬 #
#                          件部分\Projects\zstack\Samples\SampleApp\CC2530DB\ #
#                          ..\..\..\..\..\Components\zmac\ -I                 #
#                          C:\Users\25814\Desktop\2020毕设\曹文博_温泉管理\硬 #
#                          件部分\Projects\zstack\Samples\SampleApp\CC2530DB\ #
#                          ..\..\..\..\..\Components\zmac\f8w\ -Ohz           #
#    List file          =  C:\Users\25814\Desktop\2020毕设\曹文博_温泉管理\硬 #
#                          件部分\Projects\zstack\Samples\SampleApp\CC2530DB\ #
#                          CoordinatorEB\List\SampleApp.lst                   #
#    Object file        =  C:\Users\25814\Desktop\2020毕设\曹文博_温泉管理\硬 #
#                          件部分\Projects\zstack\Samples\SampleApp\CC2530DB\ #
#                          CoordinatorEB\Obj\SampleApp.r51                    #
#                                                                             #
#                                                                             #
###############################################################################

C:\Users\25814\Desktop\2020毕设\曹文博_温泉管理\硬件部分\Projects\zstack\Samples\SampleApp\Source\SampleApp.c
      1          /**************************************************************************************************
      2            Filename:       SampleApp.c
      3            Revised:        $Date: 2009-03-18 15:56:27 -0700 (Wed, 18 Mar 2009) $
      4            Revision:       $Revision: 19453 $
      5          
      6            Description:    Sample Application (no Profile).
      7          
      8          
      9            Copyright 2007 Texas Instruments Incorporated. All rights reserved.
     10          
     11            IMPORTANT: Your use of this Software is limited to those specific rights
     12            granted under the terms of a software license agreement between the user
     13            who downloaded the software, his/her employer (which must be your employer)
     14            and Texas Instruments Incorporated (the "License").  You may not use this
     15            Software unless you agree to abide by the terms of the License. The License
     16            limits your use, and you acknowledge, that the Software may not be modified,
     17            copied or distributed unless embedded on a Texas Instruments microcontroller
     18            or used solely and exclusively in conjunction with a Texas Instruments radio
     19            frequency transceiver, which is integrated into your product.  Other than for
     20            the foregoing purpose, you may not use, reproduce, copy, prepare derivative
     21            works of, modify, distribute, perform, display or sell this Software and/or
     22            its documentation for any purpose.
     23          
     24            YOU FURTHER ACKNOWLEDGE AND AGREE THAT THE SOFTWARE AND DOCUMENTATION ARE
     25            PROVIDED AS IS?WITHOUT WARRANTY OF ANY KIND, EITHER EXPRESS OR IMPLIED,
     26            INCLUDING WITHOUT LIMITATION, ANY WARRANTY OF MERCHANTABILITY, TITLE,
     27            NON-INFRINGEMENT AND FITNESS FOR A PARTICULAR PURPOSE. IN NO EVENT SHALL
     28            TEXAS INSTRUMENTS OR ITS LICENSORS BE LIABLE OR OBLIGATED UNDER CONTRACT,
     29            NEGLIGENCE, STRICT LIABILITY, CONTRIBUTION, BREACH OF WARRANTY, OR OTHER
     30            LEGAL EQUITABLE THEORY ANY DIRECT OR INDIRECT DAMAGES OR EXPENSES
     31            INCLUDING BUT NOT LIMITED TO ANY INCIDENTAL, SPECIAL, INDIRECT, PUNITIVE
     32            OR CONSEQUENTIAL DAMAGES, LOST PROFITS OR LOST DATA, COST OF PROCUREMENT
     33            OF SUBSTITUTE GOODS, TECHNOLOGY, SERVICES, OR ANY CLAIMS BY THIRD PARTIES
     34            (INCLUDING BUT NOT LIMITED TO ANY DEFENSE THEREOF), OR OTHER SIMILAR COSTS.
     35          
     36            Should you have any questions regarding your right to use this Software,
     37            contact Texas Instruments Incorporated at www.TI.com.
     38          **************************************************************************************************/
     39          
     40          /*********************************************************************
     41            This application isn't intended to do anything useful, it is
     42            intended to be a simple example of an application's structure.
     43          
     44            This application sends it's messages either as broadcast or
     45            broadcast filtered group messages.  The other (more normal)
     46            message addressing is unicast.  Most of the other sample
     47            applications are written to support the unicast message model.
     48          
     49            Key control:
     50              SW1:  Sends a flash command to all devices in Group 1.
     51              SW2:  Adds/Removes (toggles) this device in and out
     52                    of Group 1.  This will enable and disable the
     53                    reception of the flash command.
     54          *********************************************************************/
     55          
     56          /*********************************************************************
     57           * INCLUDES
     58           */
     59          #include "OSAL.h"
     60          #include "ZGlobals.h"
     61          #include "AF.h"
     62          #include "aps_groups.h"
     63          #include "ZDApp.h"
     64          
     65          #include "SampleApp.h"
     66          #include "SampleAppHw.h"
     67          
     68          #include "OnBoard.h"

   \                                 In  segment SFR_AN, at 0x88
   \   union <unnamed> volatile __sfr _A_TCON
   \                     _A_TCON:
   \   000000                DS 1

   \                                 In  segment SFR_AN, at 0xb4
   \   unsigned char volatile __sfr ADCCON1
   \                     ADCCON1:
   \   000000                DS 1

   \                                 In  segment SFR_AN, at 0xb6
   \   unsigned char volatile __sfr ADCCON3
   \                     ADCCON3:
   \   000000                DS 1

   \                                 In  segment SFR_AN, at 0xba
   \   unsigned char volatile __sfr ADCL
   \                     ADCL:
   \   000000                DS 1

   \                                 In  segment SFR_AN, at 0xbb
   \   unsigned char volatile __sfr ADCH
   \                     ADCH:
   \   000000                DS 1

   \                                 In  segment SFR_AN, at 0xf2
   \   unsigned char volatile __sfr ADCCFG
   \                     ADCCFG:
   \   000000                DS 1

   \                                 In  segment SFR_AN, at 0xf3
   \   unsigned char volatile __sfr P0SEL
   \                     P0SEL:
   \   000000                DS 1

   \                                 In  segment SFR_AN, at 0xfd
   \   unsigned char volatile __sfr P0DIR
   \                     P0DIR:
   \   000000                DS 1
     69          
     70          /* HAL */
     71          #include "hal_lcd.h"
     72          #include "hal_led.h"
     73          #include "hal_key.h"
     74          #include "MT_UART.h"
     75          #include "MT_APP.h"
     76          #include "MT.h"
     77          
     78          #include <stdio.h>
     79          #include <string.h>
     80          
     81          //MY DEVICE
     82          #include "DHT11.h"
     83          #include "rc522.h"
     84          #include "IC.h"
     85          
     86          /*********************************************************************
     87           * MACROS
     88           */
     89           
     90          #define TURBIDITY P1_1
     91          #define PUMP P0_3
     92          /*********************************************************************
     93           * CONSTANTS
     94           */
     95          
     96          /*********************************************************************
     97           * TYPEDEFS
     98           */
     99          
    100          /*********************************************************************
    101           * GLOBAL VARIABLES
    102           */

   \                                 In  segment XDATA_I, align 1, keep-with-next
    103          uint8 AppTitle[] = "ALD2530 Example"; //应用程序名称 
   \                     AppTitle:
   \   000000                DS 16
   \   000010                REQUIRE `?<Initializer for AppTitle>`
   \   000010                REQUIRE __INIT_XDATA_I
    104          uint16 ReadTurData(void);
    105          uint16 ReadPhData(void);

   \                                 In  segment BANKED_CODE, align 1, keep-with-next
    106          void myDelay(){
   \                     myDelay:
   \   000000                ; Saved register size: 0
   \   000000                ; Auto size: 0
    107            for(int j =0;j<100;j++)
   \   000000   7A64         MOV     R2,#0x64
    108              for(int i = 0;i<0xffff;i++)
   \                     ??myDelay_0:
   \   000002   7800         MOV     R0,#0x0
   \   000004   7900         MOV     R1,#0x0
   \                     ??myDelay_1:
   \   000006   E8           MOV     A,R0
   \   000007   2401         ADD     A,#0x1
   \   000009   08           INC     R0
   \   00000A   E9           MOV     A,R1
   \   00000B   3400         ADDC    A,#0x0
   \   00000D   F9           MOV     R1,A
   \   00000E   74FF         MOV     A,#-0x1
   \   000010   68           XRL     A,R0
   \   000011   7003         JNZ     ??myDelay_2
   \   000013   74FF         MOV     A,#-0x1
   \   000015   69           XRL     A,R1
   \                     ??myDelay_2:
   \   000016   70EE         JNZ     ??myDelay_1
    109              {}
   \   000018   1A           DEC     R2
   \   000019   EA           MOV     A,R2
   \   00001A   70E6         JNZ     ??myDelay_0
    110          }
   \   00001C   02....       LJMP    ?BRET
    111          // This list should be filled with Application specific Cluster IDs.

   \                                 In  segment XDATA_ROM_C, align 1
    112          const cId_t SampleApp_ClusterList[SAMPLEAPP_MAX_CLUSTERS] =
   \                     SampleApp_ClusterList:
   \   000000   0100         DW 1
   \   000002   0200         DW 2
    113          {
    114            SAMPLEAPP_PERIODIC_CLUSTERID,
    115            SAMPLEAPP_FLASH_CLUSTERID
    116          };
    117          

   \                                 In  segment XDATA_ROM_C, align 1
    118          const SimpleDescriptionFormat_t SampleApp_SimpleDesc =
   \                     SampleApp_SimpleDesc:
   \   000000   14           DB 20
   \   000001   080F         DW 3848
   \   000003   0100         DW 1
   \   000005   00           DB 0
   \   000006   02           DB 2
   \   000007   ....         DW SampleApp_ClusterList
   \   000009   02           DB 2
   \   00000A   ....         DW SampleApp_ClusterList
    119          {
    120            SAMPLEAPP_ENDPOINT,              //  int Endpoint;
    121            SAMPLEAPP_PROFID,                //  uint16 AppProfId[2];
    122            SAMPLEAPP_DEVICEID,              //  uint16 AppDeviceId[2];
    123            SAMPLEAPP_DEVICE_VERSION,        //  int   AppDevVer:4;
    124            SAMPLEAPP_FLAGS,                 //  int   AppFlags:4;
    125            SAMPLEAPP_MAX_CLUSTERS,          //  uint8  AppNumInClusters;
    126            (cId_t *)SampleApp_ClusterList,  //  uint8 *pAppInClusterList;
    127            SAMPLEAPP_MAX_CLUSTERS,          //  uint8  AppNumInClusters;
    128            (cId_t *)SampleApp_ClusterList   //  uint8 *pAppInClusterList;
    129          };
    130          
    131          // This is the Endpoint/Interface description.  It is defined here, but
    132          // filled-in in SampleApp_Init().  Another way to go would be to fill
    133          // in the structure here and make it a "const" (in code space).  The
    134          // way it's defined in this sample app it is define in RAM.

   \                                 In  segment XDATA_Z, align 1, keep-with-next
    135          endPointDesc_t SampleApp_epDesc;
   \                     SampleApp_epDesc:
   \   000000                DS 6
   \   000006                REQUIRE __INIT_XDATA_Z
    136          
    137          /*********************************************************************
    138           * EXTERNAL VARIABLES
    139           */
    140          
    141          /*********************************************************************
    142           * EXTERNAL FUNCTIONS
    143           */
    144          
    145          /*********************************************************************
    146           * LOCAL VARIABLES
    147           */
    148          
    149          

   \                                 In  segment XDATA_Z, align 1, keep-with-next
    150          uint8 SampleApp_TaskID;   // Task ID for internal task/event processing
   \                     SampleApp_TaskID:
   \   000000                DS 1
   \   000001                REQUIRE __INIT_XDATA_Z
    151                                    // This variable will be received when
    152                                    // SampleApp_Init() is called.

   \                                 In  segment XDATA_Z, align 1, keep-with-next
    153          devStates_t SampleApp_NwkState;
   \                     SampleApp_NwkState:
   \   000000                DS 1
   \   000001                REQUIRE __INIT_XDATA_Z
    154          

   \                                 In  segment XDATA_Z, align 1, keep-with-next
    155          uint8 SampleApp_TransID;  // This is the unique message ID (counter)
   \                     SampleApp_TransID:
   \   000000                DS 1
   \   000001                REQUIRE __INIT_XDATA_Z
    156          

   \                                 In  segment XDATA_Z, align 1, keep-with-next
    157          afAddrType_t SampleApp_Periodic_DstAddr;
   \                     SampleApp_Periodic_DstAddr:
   \   000000                DS 12
   \   00000C                REQUIRE __INIT_XDATA_Z

   \                                 In  segment XDATA_Z, align 1, keep-with-next
    158          afAddrType_t SampleApp_Flash_DstAddr;
   \                     SampleApp_Flash_DstAddr:
   \   000000                DS 12
   \   00000C                REQUIRE __INIT_XDATA_Z
    159          

   \                                 In  segment XDATA_Z, align 1, keep-with-next
    160          aps_Group_t SampleApp_Group;
   \                     SampleApp_Group:
   \   000000                DS 18
   \   000012                REQUIRE __INIT_XDATA_Z
    161          

   \                                 In  segment XDATA_Z, align 1, keep-with-next
    162          uint8 SampleAppPeriodicCounter = 0;
   \                     SampleAppPeriodicCounter:
   \   000000                DS 1
   \   000001                REQUIRE __INIT_XDATA_Z

   \                                 In  segment XDATA_Z, align 1, keep-with-next
    163          uint8 SampleAppFlashCounter = 0;
   \                     SampleAppFlashCounter:
   \   000000                DS 1
   \   000001                REQUIRE __INIT_XDATA_Z
    164          
    165          #ifndef ZDO_COORDINATOR
    166            byte state_fan = 1;
    167            byte state_beep = 1;
    168            byte recv_fan = 0;
    169            byte recv_beep = 0;
    170          #endif
    171          /*********************************************************************
    172           * LOCAL FUNCTIONS
    173           */
    174          void SampleApp_HandleKeys( uint8 shift, uint8 keys );
    175          void SampleApp_MessageMSGCB( afIncomingMSGPacket_t *pckt );
    176          void SampleApp_SendPeriodicMessage( void );
    177          void SampleApp_SendFlashMessage( uint16 flashTime );
    178          void SampleApp_Send_P2P_Message(void);
    179          /*********************************************************************
    180           * NETWORK LAYER CALLBACKS
    181           */
    182          
    183          /*********************************************************************
    184           * PUBLIC FUNCTIONS
    185           */
    186           
    187          /*********************************************************************
    188           * @fn      SampleApp_Init
    189           *
    190           * @brief   Initialization function for the Generic App Task.
    191           *          This is called during initialization and should contain
    192           *          any application specific initialization (ie. hardware
    193           *          initialization/setup, table initialization, power up
    194           *          notificaiton ... ).
    195           *
    196           * @param   task_id - the ID assigned by OSAL.  This ID should be
    197           *                    used to send messages and set timers.
    198           *
    199           * @return  none
    200           */
    201          

   \                                 In  segment BANKED_CODE, align 1, keep-with-next
    202          void SampleApp_Init( uint8 task_id )
   \                     SampleApp_Init:
    203          { 
   \   000000   74F5         MOV     A,#-0xb
   \   000002   12....       LCALL   ?BANKED_ENTER_XDATA
   \   000005                ; Saved register size: 11
   \   000005                ; Auto size: 0
   \   000005   E9           MOV     A,R1
   \   000006   FE           MOV     R6,A
    204            
    205           
    206            SampleApp_TaskID = task_id;   //osal分配的任务ID随着用户添加任务的增多而改变
   \   000007   90....       MOV     DPTR,#SampleApp_TaskID
   \   00000A   F0           MOVX    @DPTR,A
    207            SampleApp_NwkState = DEV_INIT;//设备状态设定为ZDO层中定义的初始化状态
   \   00000B   90....       MOV     DPTR,#SampleApp_NwkState
   \   00000E   7401         MOV     A,#0x1
   \   000010   F0           MOVX    @DPTR,A
    208            SampleApp_TransID = 0;        //消息发送ID（多消息时有顺序之分）
   \   000011   90....       MOV     DPTR,#SampleApp_TransID
   \   000014   E4           CLR     A
   \   000015   F0           MOVX    @DPTR,A
    209            //模块初始化
    210            P0SEL &=~0X40;
   \   000016   53F3BF       ANL     0xf3,#0xbf
    211            P0DIR &=~0x40;//浊度模块
   \   000019   53FDBF       ANL     0xfd,#0xbf
    212            P0DIR |=0x08;//继电器水泵
   \   00001C   43FD08       ORL     0xfd,#0x8
    213           
    214            //串口配置
    215            MT_UartInit();
   \   00001F                ; Setup parameters for call to function MT_UartInit
   \   00001F   12....       LCALL   ??MT_UartInit?relay
    216            MT_UartRegisterTaskID(task_id);  
   \   000022                ; Setup parameters for call to function MT_UartRegisterTaskID
   \   000022   EE           MOV     A,R6
   \   000023   F9           MOV     R1,A
   \   000024   12....       LCALL   ??MT_UartRegisterTaskID?relay
    217            HalUARTWrite(0,"stop",4);
   \   000027                ; Setup parameters for call to function HalUARTWrite
   \   000027   7C04         MOV     R4,#0x4
   \   000029   7D00         MOV     R5,#0x0
   \   00002B   7A..         MOV     R2,#`?<Constant "stop">` & 0xff
   \   00002D   7B..         MOV     R3,#(`?<Constant "stop">` >> 8) & 0xff
   \   00002F   7900         MOV     R1,#0x0
   \   000031   12....       LCALL   ??HalUARTWrite?relay
    218            HalUARTWrite(0,"UartInit OK\n", sizeof("UartInit OK\n")); 
   \   000034                ; Setup parameters for call to function HalUARTWrite
   \   000034   7C0D         MOV     R4,#0xd
   \   000036   7D00         MOV     R5,#0x0
   \   000038   7A..         MOV     R2,#`?<Constant "UartInit OK\\n">` & 0xff
   \   00003A   7B..         MOV     R3,#(`?<Constant "UartInit OK\\n">` >> 8) & 0xff
   \   00003C   7900         MOV     R1,#0x0
   \   00003E   12....       LCALL   ??HalUARTWrite?relay
    219           
    220          
    221            // Device hardware initialization can be added here or in main() (Zmain.c).
    222            // If the hardware is application specific - add it here.
    223            // If the hardware is other parts of the device add it in main().
    224          
    225          #if defined ( BUILD_ALL_DEVICES )
    226            // The "Demo" target is setup to have BUILD_ALL_DEVICES and HOLD_AUTO_START
    227            // We are looking at a jumper (defined in SampleAppHw.c) to be jumpered
    228            // together - if they are - we will start up a coordinator. Otherwise,
    229            // the device will start as a router.
    230            if ( readCoordinatorJumper() )
    231              zgDeviceLogicalType = ZG_DEVICETYPE_COORDINATOR;
    232            else
    233              zgDeviceLogicalType = ZG_DEVICETYPE_ROUTER;
    234          #endif // BUILD_ALL_DEVICES
    235          
    236          //该段的意思是，如果设置了HOLD_AUTO_START宏定义，将会在启动芯片的时候会暂停启动
    237          //流程，只有外部触发以后才会启动芯片。其实就是需要一个按钮触发它的启动流程。  
    238          #if defined ( HOLD_AUTO_START )
    239            // HOLD_AUTO_START is a compile option that will surpress ZDApp
    240            //  from starting the device and wait for the application to
    241            //  start the device.
    242            ZDOInitDevice(0);
    243          #endif
    244          
    245            // Setup for the periodic message's destination address 设置发送数据的方式和目的地址寻址模式
    246            // Broadcast to everyone 发送模式:广播发送
    247            SampleApp_Periodic_DstAddr.addrMode = (afAddrMode_t)AddrBroadcast;//广播
   \   000041   90....       MOV     DPTR,#SampleApp_Periodic_DstAddr + 8
   \   000044   740F         MOV     A,#0xf
   \   000046   F0           MOVX    @DPTR,A
    248            SampleApp_Periodic_DstAddr.endPoint = SAMPLEAPP_ENDPOINT; //指定端点号
   \   000047   A3           INC     DPTR
   \   000048   7414         MOV     A,#0x14
   \   00004A   F0           MOVX    @DPTR,A
    249            SampleApp_Periodic_DstAddr.addr.shortAddr = 0xFFFF;//指定目的网络地址为广播地址
   \   00004B   90....       MOV     DPTR,#SampleApp_Periodic_DstAddr
   \   00004E   74FF         MOV     A,#-0x1
   \   000050   F0           MOVX    @DPTR,A
   \   000051   A3           INC     DPTR
   \   000052   F0           MOVX    @DPTR,A
    250          
    251            // Setup for the flash command's destination address - Group 1 组播发送
    252            SampleApp_Flash_DstAddr.addrMode = (afAddrMode_t)afAddrGroup; //组寻址
   \   000053   90....       MOV     DPTR,#SampleApp_Flash_DstAddr + 8
   \   000056   7401         MOV     A,#0x1
   \   000058   F0           MOVX    @DPTR,A
    253            SampleApp_Flash_DstAddr.endPoint = SAMPLEAPP_ENDPOINT; //指定端点号
   \   000059   A3           INC     DPTR
   \   00005A   7414         MOV     A,#0x14
   \   00005C   F0           MOVX    @DPTR,A
    254            SampleApp_Flash_DstAddr.addr.shortAddr = SAMPLEAPP_FLASH_GROUP;//组号0x0001
   \   00005D   90....       MOV     DPTR,#SampleApp_Flash_DstAddr
   \   000060   7401         MOV     A,#0x1
   \   000062   F0           MOVX    @DPTR,A
   \   000063   A3           INC     DPTR
   \   000064   E4           CLR     A
   \   000065   F0           MOVX    @DPTR,A
    255          
    256            // Fill out the endpoint description. 定义本设备用来通信的APS层端点描述符
    257            SampleApp_epDesc.endPoint = SAMPLEAPP_ENDPOINT; //指定端点号
   \   000066   90....       MOV     DPTR,#SampleApp_epDesc
   \   000069   7414         MOV     A,#0x14
   \   00006B   F0           MOVX    @DPTR,A
    258            SampleApp_epDesc.task_id = &SampleApp_TaskID;   //SampleApp 描述符的任务ID
   \   00006C   A3           INC     DPTR
   \   00006D   74..         MOV     A,#SampleApp_TaskID & 0xff
   \   00006F   F0           MOVX    @DPTR,A
   \   000070   A3           INC     DPTR
   \   000071   74..         MOV     A,#(SampleApp_TaskID >> 8) & 0xff
   \   000073   F0           MOVX    @DPTR,A
    259            SampleApp_epDesc.simpleDesc
    260                      = (SimpleDescriptionFormat_t *)&SampleApp_SimpleDesc;//SampleApp简单描述符
   \   000074   A3           INC     DPTR
   \   000075   74..         MOV     A,#SampleApp_SimpleDesc & 0xff
   \   000077   F0           MOVX    @DPTR,A
   \   000078   A3           INC     DPTR
   \   000079   74..         MOV     A,#(SampleApp_SimpleDesc >> 8) & 0xff
   \   00007B   F0           MOVX    @DPTR,A
    261            SampleApp_epDesc.latencyReq = noLatencyReqs;    //延时策略
   \   00007C   A3           INC     DPTR
   \   00007D   E4           CLR     A
   \   00007E   F0           MOVX    @DPTR,A
    262          
    263            // Register the endpoint description with the AF
    264            afRegister( &SampleApp_epDesc );    //向AF层登记描述符
   \   00007F                ; Setup parameters for call to function afRegister
   \   00007F   7A..         MOV     R2,#SampleApp_epDesc & 0xff
   \   000081   7B..         MOV     R3,#(SampleApp_epDesc >> 8) & 0xff
   \   000083   12....       LCALL   ??afRegister?relay
    265          
    266            // Register for all key events - This app will handle all key events
    267            RegisterForKeys( SampleApp_TaskID ); // 登记所有的按键事件
   \   000086                ; Setup parameters for call to function RegisterForKeys
   \   000086   90....       MOV     DPTR,#SampleApp_TaskID
   \   000089   E0           MOVX    A,@DPTR
   \   00008A   F9           MOV     R1,A
   \   00008B   12....       LCALL   ??RegisterForKeys?relay
    268          
    269            // By default, all devices start out in Group 1
    270            SampleApp_Group.ID = 0x0001;//组号
   \   00008E   90....       MOV     DPTR,#SampleApp_Group
   \   000091   7401         MOV     A,#0x1
   \   000093   F0           MOVX    @DPTR,A
   \   000094   A3           INC     DPTR
   \   000095   E4           CLR     A
   \   000096   F0           MOVX    @DPTR,A
    271            osal_memcpy( SampleApp_Group.name, "Group 1", 7  );//设定组名
   \   000097                ; Setup parameters for call to function osal_memcpy
   \   000097   75....       MOV     ?V0 + 0,#`?<Constant "Group 1">` & 0xff
   \   00009A   75....       MOV     ?V0 + 1,#(`?<Constant "Group 1">` >> 8) & 0xff
   \   00009D   F5..         MOV     ?V0 + 2,A
   \   00009F   78..         MOV     R0,#?V0 + 0
   \   0000A1   12....       LCALL   ?PUSH_XSTACK_I_THREE
   \   0000A4   7C07         MOV     R4,#0x7
   \   0000A6   7D00         MOV     R5,#0x0
   \   0000A8   7A..         MOV     R2,#(SampleApp_Group + 2) & 0xff
   \   0000AA   7B..         MOV     R3,#((SampleApp_Group + 2) >> 8) & 0xff
   \   0000AC   12....       LCALL   ??osal_memcpy?relay
   \   0000AF   7403         MOV     A,#0x3
   \   0000B1   12....       LCALL   ?DEALLOC_XSTACK8
    272            aps_AddGroup( SAMPLEAPP_ENDPOINT, &SampleApp_Group );//把该组登记添加到APS中
   \   0000B4                ; Setup parameters for call to function aps_AddGroup
   \   0000B4   7A..         MOV     R2,#SampleApp_Group & 0xff
   \   0000B6   7B..         MOV     R3,#(SampleApp_Group >> 8) & 0xff
   \   0000B8   7914         MOV     R1,#0x14
   \   0000BA   12....       LCALL   ??aps_AddGroup?relay
    273          
    274          #if defined ( LCD_SUPPORTED )
    275            HalLcdWriteString( "SampleApp", HAL_LCD_LINE_1 ); //如果支持LCD，显示提示信息
   \   0000BD                ; Setup parameters for call to function HalLcdWriteString
   \   0000BD   7900         MOV     R1,#0x0
   \   0000BF   7A..         MOV     R2,#`?<Constant "SampleApp">` & 0xff
   \   0000C1   7B..         MOV     R3,#(`?<Constant "SampleApp">` >> 8) & 0xff
   \   0000C3   12....       LCALL   ??HalLcdWriteString?relay
    276          #endif
    277          }
   \   0000C6                REQUIRE ?Subroutine1
   \   0000C6                REQUIRE P0SEL
   \   0000C6                REQUIRE P0DIR
   \   0000C6                ; // Fall through to label ?Subroutine1

   \                                 In  segment BANKED_CODE, align 1, keep-with-next
   \                     ?Subroutine1:
   \   000000   7F03         MOV     R7,#0x3
   \   000002   02....       LJMP    ?BANKED_LEAVE_XDATA
    278          
    279          /*********************************************************************
    280           * @fn      SampleApp_ProcessEvent
    281           *
    282           * @brief   Generic Application Task event processor.  This function
    283           *          is called to process all events for the task.  Events
    284           *          include timers, messages and any other user defined events.
    285           *
    286           * @param   task_id  - The OSAL assigned task ID.
    287           * @param   events - events to process.  This is a bit map and can
    288           *                   contain more than one event.
    289           *
    290           * @return  none
    291           */
    292          //用户应用任务的事件处理函数

   \                                 In  segment BANKED_CODE, align 1, keep-with-next
    293          uint16 SampleApp_ProcessEvent( uint8 task_id, uint16 events )
   \                     SampleApp_ProcessEvent:
    294          {
   \   000000   74F4         MOV     A,#-0xc
   \   000002   12....       LCALL   ?BANKED_ENTER_XDATA
   \   000005                ; Saved register size: 12
   \   000005                ; Auto size: 0
   \   000005   EA           MOV     A,R2
   \   000006   FE           MOV     R6,A
   \   000007   EB           MOV     A,R3
   \   000008   FF           MOV     R7,A
    295            afIncomingMSGPacket_t *MSGpkt;
    296            (void)task_id;  // Intentionally unreferenced parameter
    297          
    298            if ( events & SYS_EVENT_MSG ) //接收系统消息再进行判断
   \   000009   5480         ANL     A,#0x80
   \   00000B   605C         JZ      ??SampleApp_ProcessEvent_0
    299            {
    300              //接收属于本应用任务SampleApp的消息，以SampleApp_TaskID标记
    301              MSGpkt = (afIncomingMSGPacket_t *)osal_msg_receive( SampleApp_TaskID );
   \   00000D                ; Setup parameters for call to function osal_msg_receive
   \   00000D   8026         SJMP    ??SampleApp_ProcessEvent_1
    302              while ( MSGpkt )
    303              {
    304                switch ( MSGpkt->hdr.event )
    305                {
    306                  // Received when a key is pressed
    307                  case KEY_CHANGE://按键事件
    308                    SampleApp_HandleKeys( ((keyChange_t *)MSGpkt)->state, ((keyChange_t *)MSGpkt)->keys );
    309                    break;
    310          
    311                  // Received when a messages is received (OTA) for this endpoint
    312                case AF_INCOMING_MSG_CMD://接收数据事件,调用函数AF_DataRequest()接收数据
    313                    SampleApp_MessageMSGCB( MSGpkt );//调用回调函数对收到的数据进行处理
    314                    break;
    315          
    316                  // Received whenever the device changes state in the network
    317                  case ZDO_STATE_CHANGE:
    318                    //只要网络状态发生改变，就通过ZDO_STATE_CHANGE事件通知所有的任务。
    319                    //同时完成对协调器，路由器，终端的设置
    320                    SampleApp_NwkState = (devStates_t)(MSGpkt->hdr.status);
   \                     ??SampleApp_ProcessEvent_2:
   \   00000F   A3           INC     DPTR
   \   000010   E0           MOVX    A,@DPTR
   \   000011   90....       MOV     DPTR,#SampleApp_NwkState
   \   000014   F0           MOVX    @DPTR,A
    321                    //if ( (SampleApp_NwkState == DEV_ZB_COORD)//实验中协调器只接收数据所以取消发送事件
    322                    if ( (SampleApp_NwkState == DEV_ROUTER) || (SampleApp_NwkState == DEV_END_DEVICE) )
   \   000015   6407         XRL     A,#0x7
   \   000017   6005         JZ      ??SampleApp_ProcessEvent_3
   \   000019   E0           MOVX    A,@DPTR
   \   00001A   6406         XRL     A,#0x6
   \   00001C   7010         JNZ     ??SampleApp_ProcessEvent_4
    323                    {
    324                      // Start sending the periodic message in a regular interval.
    325                      //这个定时器只是为发送周期信息开启的，设备启动初始化后从这里开始
    326                      //触发第一个周期信息的发送，然后周而复始下去
    327                      osal_start_timerEx( SampleApp_TaskID,
    328                                        SAMPLEAPP_SEND_PERIODIC_MSG_EVT,
    329                                        SAMPLEAPP_SEND_PERIODIC_MSG_TIMEOUT );
   \                     ??SampleApp_ProcessEvent_3:
   \   00001E                ; Setup parameters for call to function osal_start_timerEx
   \   00001E   7CE8         MOV     R4,#-0x18
   \   000020   7D03         MOV     R5,#0x3
   \   000022   7A01         MOV     R2,#0x1
   \   000024   7B00         MOV     R3,#0x0
   \   000026   90....       MOV     DPTR,#SampleApp_TaskID
   \   000029   E0           MOVX    A,@DPTR
   \   00002A   F9           MOV     R1,A
   \   00002B   12....       LCALL   ??osal_start_timerEx?relay
    330                     
    331                    }
    332                    else
    333                    {
    334                        
    335                    }
    336                    break;
    337          
    338                  default:
    339                    break;
    340                }
    341          
    342                // Release the memory 事件处理完了，释放消息占用的内存
    343                osal_msg_deallocate( (uint8 *)MSGpkt );
   \                     ??SampleApp_ProcessEvent_4:
   \   00002E                ; Setup parameters for call to function osal_msg_deallocate
   \   00002E   AA..         MOV     R2,?V0 + 0
   \   000030   AB..         MOV     R3,?V0 + 1
   \   000032   12....       LCALL   ??osal_msg_deallocate?relay
    344             
    345                // Next - if one is available 指针指向下一个放在缓冲区的待处理的事件，
    346                //返回while ( MSGpkt )重新处理事件，直到缓冲区没有等待处理事件为止
    347                MSGpkt = (afIncomingMSGPacket_t *)osal_msg_receive( SampleApp_TaskID );
   \   000035                ; Setup parameters for call to function osal_msg_receive
   \                     ??SampleApp_ProcessEvent_1:
   \   000035   90....       MOV     DPTR,#SampleApp_TaskID
   \   000038   E0           MOVX    A,@DPTR
   \   000039   F9           MOV     R1,A
   \   00003A   12....       LCALL   ??osal_msg_receive?relay
   \   00003D   8A..         MOV     ?V0 + 0,R2
   \   00003F   8B..         MOV     ?V0 + 1,R3
   \   000041   E5..         MOV     A,?V0 + 0
   \   000043   45..         ORL     A,?V0 + 1
   \   000045   601A         JZ      ??SampleApp_ProcessEvent_5
   \   000047   85..82       MOV     DPL,?V0 + 0
   \   00004A   85..83       MOV     DPH,?V0 + 1
   \   00004D   E0           MOVX    A,@DPTR
   \   00004E   24E6         ADD     A,#-0x1a
   \   000050   6006         JZ      ??SampleApp_ProcessEvent_6
   \   000052   2449         ADD     A,#0x49
   \   000054   60B9         JZ      ??SampleApp_ProcessEvent_2
   \   000056   80D6         SJMP    ??SampleApp_ProcessEvent_4
   \                     ??SampleApp_ProcessEvent_6:
   \   000058                ; Setup parameters for call to function SampleApp_MessageMSGCB
   \   000058   AA..         MOV     R2,?V0 + 0
   \   00005A   AB..         MOV     R3,?V0 + 1
   \   00005C   12....       LCALL   ??SampleApp_MessageMSGCB?relay
   \   00005F   80CD         SJMP    ??SampleApp_ProcessEvent_4
    348              }
    349          
    350              // return unprocessed events 返回未处理的事件
    351              return (events ^ SYS_EVENT_MSG);
   \                     ??SampleApp_ProcessEvent_5:
   \   000061   EE           MOV     A,R6
   \   000062   FA           MOV     R2,A
   \   000063   EF           MOV     A,R7
   \   000064   6480         XRL     A,#0x80
   \                     ??SampleApp_ProcessEvent_7:
   \   000066   FB           MOV     R3,A
   \   000067   8027         SJMP    ??SampleApp_ProcessEvent_8
    352            }
    353          
    354            // Send a message out - This event is generated by a timer
    355            //  (setup in SampleApp_Init()).
    356            if ( events & SAMPLEAPP_SEND_PERIODIC_MSG_EVT )
   \                     ??SampleApp_ProcessEvent_0:
   \   000069   EE           MOV     A,R6
   \   00006A   A2E0         MOV     C,0xE0 /* A   */.0
   \   00006C   501E         JNC     ??SampleApp_ProcessEvent_9
    357            {
    358              // Send the periodic message 处理周期性事件，
    359              //利用SampleApp_SendPeriodicMessage()处理完当前的周期性事件，然后启动定时器
    360              //开启下一个周期性事情，这样一种循环下去，也即是上面说的周期性事件了，
    361              //可以做为传感器定时采集、上传任务
    362              SampleApp_SendPeriodicMessage();
    363              
    364              // Setup to send message again in normal period (+ a little jitter)
    365              osal_start_timerEx( SampleApp_TaskID, SAMPLEAPP_SEND_PERIODIC_MSG_EVT,
    366                  (SAMPLEAPP_SEND_PERIODIC_MSG_TIMEOUT + (osal_rand() & 0x00FF)) );
   \   00006E                ; Setup parameters for call to function osal_rand
   \   00006E   12....       LCALL   ??osal_rand?relay
   \   000071                ; Setup parameters for call to function osal_start_timerEx
   \   000071   EA           MOV     A,R2
   \   000072   24E8         ADD     A,#-0x18
   \   000074   FC           MOV     R4,A
   \   000075   E4           CLR     A
   \   000076   3403         ADDC    A,#0x3
   \   000078   FD           MOV     R5,A
   \   000079   7A01         MOV     R2,#0x1
   \   00007B   7B00         MOV     R3,#0x0
   \   00007D   90....       MOV     DPTR,#SampleApp_TaskID
   \   000080   E0           MOVX    A,@DPTR
   \   000081   F9           MOV     R1,A
   \   000082   12....       LCALL   ??osal_start_timerEx?relay
    367          
    368              // return unprocessed events 返回未处理的事件
    369              return (events ^ SAMPLEAPP_SEND_PERIODIC_MSG_EVT);
   \   000085   EE           MOV     A,R6
   \   000086   6401         XRL     A,#0x1
   \   000088   FA           MOV     R2,A
   \   000089   EF           MOV     A,R7
   \   00008A   80DA         SJMP    ??SampleApp_ProcessEvent_7
    370            }
    371          
    372            // Discard unknown events
    373            return 0;
   \                     ??SampleApp_ProcessEvent_9:
   \   00008C   7A00         MOV     R2,#0x0
   \   00008E   7B00         MOV     R3,#0x0
   \                     ??SampleApp_ProcessEvent_8:
   \   000090   7F04         MOV     R7,#0x4
   \   000092   02....       LJMP    ?BANKED_LEAVE_XDATA
    374          }
    375          
    376          /*********************************************************************
    377           * Event Generation Functions
    378           */
    379          /*********************************************************************
    380           * @fn      SampleApp_HandleKeys
    381           *
    382           * @brief   Handles all key events for this device.
    383           *
    384           * @param   shift - true if in shift/alt.
    385           * @param   keys - bit field for key events. Valid entries:
    386           *                 HAL_KEY_SW_2
    387           *                 HAL_KEY_SW_1
    388           *
    389           * @return  none
    390           */

   \                                 In  segment BANKED_CODE, align 1, keep-with-next
    391          void SampleApp_HandleKeys( uint8 shift, uint8 keys )  
   \                     SampleApp_HandleKeys:
    392          {
   \   000000                ; Saved register size: 0
   \   000000                ; Auto size: 0
    393            (void)shift;  // Intentionally unreferenced parameter
    394            
    395            if ( keys & HAL_KEY_SW_1 )
    396            {
    397              /* This key sends the Flash Command is sent to Group 1.
    398               * This device will not receive the Flash Command from this
    399               * device (even if it belongs to group 1).
    400               */
    401          #ifndef ZDO_COORDINATOR
    402             char str[] = "key";
    403             if( AF_DataRequest( &SampleApp_Periodic_DstAddr,//发送目的地址＋端点地址和传送模式
    404                                 &SampleApp_epDesc,//源(答复或确认)终端的描述（比如操作系统中任务ID等）源EP
    405                                 SAMPLEAPP_PERIODIC_CLUSTERID, //被Profile指定的有效的集群号
    406                                 sizeof(str),       //发送数据长度
    407                                 (uchar*)str,// 发送数据缓冲区
    408                                 &SampleApp_TransID,     // 任务ID号
    409                                 AF_DISCV_ROUTE,      // 有效位掩码的发送选项
    410                                 AF_DEFAULT_RADIUS ) == afStatus_SUCCESS )  //传送跳数，通常设置为AF_DEFAULT_RADIUS
    411            {
    412            }
    413          #else
    414            
    415          #endif
    416            
    417            // SampleApp_SendFlashMessage( SAMPLEAPP_FLASH_DURATION );
    418          
    419            }
    420          
    421            if ( keys & HAL_KEY_SW_6 )
    422            {
    423              /* The Flashr Command is sent to Group 1.
    424               * This key toggles this device in and out of group 1.
    425               * If this device doesn't belong to group 1, this application
    426               * will not receive the Flash command sent to group 1.
    427               */
    428            
    429             /*
    430              aps_Group_t *grp;
    431              grp = aps_FindGroup( SAMPLEAPP_ENDPOINT, SAMPLEAPP_FLASH_GROUP );
    432              if ( grp )
    433              {
    434                // Remove from the group
    435                aps_RemoveGroup( SAMPLEAPP_ENDPOINT, SAMPLEAPP_FLASH_GROUP );
    436              }
    437              else
    438              {
    439                // Add to the flash group
    440                aps_AddGroup( SAMPLEAPP_ENDPOINT, &SampleApp_Group );
    441              }
    442             */
    443            }
    444          }
   \   000000   02....       LJMP    ?BRET
    445          
    446          /*********************************************************************
    447           * LOCAL FUNCTIONS
    448           */
    449          
    450          /*********************************************************************
    451           * @fn      SampleApp_MessageMSGCB
    452           *
    453           * @brief   Data message processor callback.  This function processes
    454           *          any incoming data - probably from other devices.  So, based
    455           *          on cluster ID, perform the intended action.
    456           *
    457           * @param   none
    458           *
    459           * @return  none
    460           */
    461          //接收数据，参数为接收到的数据

   \                                 In  segment BANKED_CODE, align 1, keep-with-next
    462          void SampleApp_MessageMSGCB( afIncomingMSGPacket_t *pkt )
   \                     SampleApp_MessageMSGCB:
    463          {
   \   000000   74F5         MOV     A,#-0xb
   \   000002   12....       LCALL   ?BANKED_ENTER_XDATA
   \   000005                ; Saved register size: 11
   \   000005                ; Auto size: 10
   \   000005   74F6         MOV     A,#-0xa
   \   000007   12....       LCALL   ?ALLOC_XSTACK8
   \   00000A   EA           MOV     A,R2
   \   00000B   FE           MOV     R6,A
   \   00000C   EB           MOV     A,R3
   \   00000D   FF           MOV     R7,A
    464            uint16 flashTime;
    465            unsigned short len = 4+3+2+1;
    466            byte buf[4+3+2+1]={0}; 
   \   00000E   85..82       MOV     DPL,?XSP + 0
   \   000011   85..83       MOV     DPH,?XSP + 1
   \   000014   AC82         MOV     R4,DPL
   \   000016   AD83         MOV     R5,DPH
   \   000018   7583..       MOV     DPH,#(`?<Constant {0}>` >> 8) & 0xff
   \   00001B   7582..       MOV     DPL,#`?<Constant {0}>` & 0xff
   \   00001E   740A         MOV     A,#0xa
   \   000020   12....       LCALL   ?MOVE_LONG8_XDATA_XDATA
    467            
    468            switch ( pkt->clusterId ) //判断簇ID
   \   000023   8E82         MOV     DPL,R6
   \   000025   8F83         MOV     DPH,R7
   \   000027   A3           INC     DPTR
   \   000028   A3           INC     DPTR
   \   000029   A3           INC     DPTR
   \   00002A   A3           INC     DPTR
   \   00002B   E0           MOVX    A,@DPTR
   \   00002C   F5..         MOV     ?V0 + 0,A
   \   00002E   A3           INC     DPTR
   \   00002F   E0           MOVX    A,@DPTR
   \   000030   F5..         MOV     ?V0 + 1,A
   \   000032   78..         MOV     R0,#?V0 + 0
   \   000034   12....       LCALL   ?US_SWITCH_DENSE
   \                     `?<Jumptable for SampleApp_MessageMSGCB>_0`:
   \   000037   0100         DW        1
   \   000039   01           DB        1
   \   00003A   ....         DW        ??SampleApp_MessageMSGCB_0
   \   00003C   ....         DW        ??SampleApp_MessageMSGCB_1
   \   00003E   ....         DW        ??SampleApp_MessageMSGCB_2
    469            {
    470              case SAMPLEAPP_PERIODIC_CLUSTERID: //收到广播数据
    471               
    472          #ifndef ZDO_COORDINATOR 
    473                //节点
    474          #else
    475                //协调器
    476                
    477                osal_memset(buf,0,len);
   \                     ??SampleApp_MessageMSGCB_1:
   \   000040                ; Setup parameters for call to function osal_memset
   \   000040   7C0A         MOV     R4,#0xa
   \   000042   7D00         MOV     R5,#0x0
   \   000044   7900         MOV     R1,#0x0
   \   000046   85..82       MOV     DPL,?XSP + 0
   \   000049   85..83       MOV     DPH,?XSP + 1
   \   00004C   AA82         MOV     R2,DPL
   \   00004E   AB83         MOV     R3,DPH
   \   000050   12....       LCALL   ??osal_memset?relay
    478                osal_memcpy(buf, pkt->cmd.Data, len); //复制数据到缓冲区中
   \   000053                ; Setup parameters for call to function osal_memcpy
   \   000053   12....       LCALL   ?Subroutine3 & 0xFFFF
   \                     ??CrossCallReturnLabel_0:
   \   000056   F5..         MOV     ?V0 + 0,A
   \   000058   A3           INC     DPTR
   \   000059   E0           MOVX    A,@DPTR
   \   00005A   F5..         MOV     ?V0 + 1,A
   \   00005C   75..00       MOV     ?V0 + 2,#0x0
   \   00005F   78..         MOV     R0,#?V0 + 0
   \   000061   12....       LCALL   ?PUSH_XSTACK_I_THREE
   \   000064   7C0A         MOV     R4,#0xa
   \   000066   7D00         MOV     R5,#0x0
   \   000068   7403         MOV     A,#0x3
   \   00006A   12....       LCALL   ?XSTACK_DISP0_8
   \   00006D   AA82         MOV     R2,DPL
   \   00006F   AB83         MOV     R3,DPH
   \   000071   12....       LCALL   ??osal_memcpy?relay
   \   000074   7403         MOV     A,#0x3
   \   000076   12....       LCALL   ?DEALLOC_XSTACK8
    479                HalUARTWrite(0,buf,sizeof(buf));
   \   000079                ; Setup parameters for call to function HalUARTWrite
   \   000079   7C0A         MOV     R4,#0xa
   \   00007B   7D00         MOV     R5,#0x0
   \   00007D   85..82       MOV     DPL,?XSP + 0
   \   000080   85..83       MOV     DPH,?XSP + 1
   \   000083   AA82         MOV     R2,DPL
   \   000085   AB83         MOV     R3,DPH
   \   000087   7900         MOV     R1,#0x0
   \   000089   12....       LCALL   ??HalUARTWrite?relay
    480            
    481          #endif
    482                break;
   \   00008C   8033         SJMP    ??SampleApp_MessageMSGCB_0
   \                     ??SampleApp_MessageMSGCB_2:
   \   00008E   12....       LCALL   ?Subroutine3 & 0xFFFF
   \                     ??CrossCallReturnLabel_1:
   \   000091   F8           MOV     R0,A
   \   000092   A3           INC     DPTR
   \   000093   E0           MOVX    A,@DPTR
   \   000094   F9           MOV     R1,A
   \   000095                ; Setup parameters for call to function HalLedBlink
   \   000095   8882         MOV     DPL,R0
   \   000097   8983         MOV     DPH,R1
   \   000099   A3           INC     DPTR
   \   00009A   E0           MOVX    A,@DPTR
   \   00009B   FA           MOV     R2,A
   \   00009C   8882         MOV     DPL,R0
   \   00009E   8983         MOV     DPH,R1
   \   0000A0   A3           INC     DPTR
   \   0000A1   A3           INC     DPTR
   \   0000A2   E0           MOVX    A,@DPTR
   \   0000A3   F9           MOV     R1,A
   \   0000A4   EA           MOV     A,R2
   \   0000A5   2400         ADD     A,#0x0
   \   0000A7   F5..         MOV     ?V0 + 0,A
   \   0000A9   E4           CLR     A
   \   0000AA   39           ADDC    A,R1
   \   0000AB   F5..         MOV     ?V0 + 1,A
   \   0000AD   7402         MOV     A,#0x2
   \   0000AF   78..         MOV     R0,#?V0 + 0
   \   0000B1   12....       LCALL   ?US_SHR
   \   0000B4   AC..         MOV     R4,?V0 + 0
   \   0000B6   AD..         MOV     R5,?V0 + 1
   \   0000B8   7B32         MOV     R3,#0x32
   \   0000BA   7A04         MOV     R2,#0x4
   \   0000BC   7908         MOV     R1,#0x8
    483          
    484              case SAMPLEAPP_FLASH_CLUSTERID: //收到组播数据  
    485                flashTime = BUILD_UINT16(pkt->cmd.Data[1], pkt->cmd.Data[2] );
    486                HalLedBlink( HAL_LED_4, 4, 50, (flashTime / 4) );
   \   0000BE   12....       LCALL   ??HalLedBlink?relay
    487                break;
    488            case SAMPLEAPP_P2P_CLUSTERID:
    489           
    490              break;
    491            }
    492          }
   \                     ??SampleApp_MessageMSGCB_0:
   \   0000C1   740A         MOV     A,#0xa
   \   0000C3   12....       LCALL   ?DEALLOC_XSTACK8
   \   0000C6   02....       LJMP    ?Subroutine1 & 0xFFFF

   \                                 In  segment BANKED_CODE, align 1, keep-with-next
   \                     ?Subroutine3:
   \   000000   EE           MOV     A,R6
   \   000001   2422         ADD     A,#0x22
   \   000003   F582         MOV     DPL,A
   \   000005   EF           MOV     A,R7
   \   000006   3400         ADDC    A,#0x0
   \   000008   F583         MOV     DPH,A
   \   00000A   E0           MOVX    A,@DPTR
   \   00000B   22           RET
    493          
    494          /*********************************************************************
    495           * @fn      SampleApp_SendPeriodicMessage
    496           *
    497           * @brief   Send the periodic message.
    498           *
    499           * @param   none
    500           *
    501           * @return  none
    502           */
    503          //分析发送周期信息

   \                                 In  segment BANKED_CODE, align 1, keep-with-next
    504          void SampleApp_SendPeriodicMessage( void )
   \                     SampleApp_SendPeriodicMessage:
    505          { 
   \   000000                ; Saved register size: 0
   \   000000                ; Auto size: 0
    506          #ifndef ZDO_COORDINATOR 
    507            //获得的数据通过串口输出到电脑显示  
    508            char str[4+3+2+1]={0};
    509           //获取温度
    510            char tempStr[64]={0};
    511            char tempData[6]={0};
    512            HalUARTWrite(0,"read",sizeof("read"));
    513            HalUARTWrite(0,"\n",1);
    514            HalUARTRead(0,tempStr,64);
    515            
    516            int i = 0;
    517            while(tempStr[i]!=0xA1&&tempStr[i+1]!=0xE6){
    518              ++i;
    519            };
    520            if(i==63){
    521              osal_memcpy(tempData,"00.0",4);
    522          //     HalUARTWrite(0,"00.0",4);
    523            }
    524            else{
    525                int j;
    526                i-=4;    
    527                for(j= 0;j<4;j++){
    528                  //数据解析及检验
    529                  /*
    530                  if(tempStr[i+j]<'0'||tempStr[i+j]>'9'||tempStr[i+j]!='.')
    531                    break;
    532                  */
    533                 tempData[j] = tempStr[i+j];
    534                }
    535                if(j<4){
    536                  //如果捕获的数据是乱码,则将数据设置为00000
    537                  osal_memset(tempData, 0 ,5);
    538                }
    539                tempData[4]='\0';
    540                //HalUARTWrite(0,tempData,5);
    541            }
    542           // HalUARTWrite(0,tempStr,64); 
    543            //HalUARTWrite(0,"\n",1); 
    544            //浊度
    545            uint16 turbidity = ReadTurData();
    546            // sprintf(str,"%4d",turbidity);
    547            //HalUARTWrite(0,str,4);  
    548            //ph值
    549            int ph = ReadPhData();
    550            ph = (ph-86)/2+7;
    551            sprintf(str,"%4s%3d%2d",tempData,turbidity,ph);
    552            HalUARTWrite(0,str,sizeof(str));
    553            if(turbidity<50){
    554              PUMP = 1;
    555            }
    556            else 
    557              PUMP=0;
    558             // 调用AF_DataRequest将数据无线广播出去
    559            if( AF_DataRequest( &SampleApp_Periodic_DstAddr,//发送目的地址＋端点地址和传送模式
    560                                 &SampleApp_epDesc,//源(答复或确认)终端的描述（比如操作系统中任务ID等）源EP
    561                                 SAMPLEAPP_PERIODIC_CLUSTERID, //被Profile指定的有效的集群号
    562                                 sizeof(str),       //发送数据长度
    563                                 (uchar*)str,// 发送数据缓冲区
    564                                 &SampleApp_TransID,     // 任务ID号
    565                                 AF_DISCV_ROUTE,      // 有效位掩码的发送选项
    566                                 AF_DEFAULT_RADIUS ) == afStatus_SUCCESS )  //传送跳数，通常设置为AF_DEFAULT_RADIUS
    567            {
    568            }
    569            else
    570            {
    571              HalLedSet(HAL_LED_1, HAL_LED_MODE_ON);
    572              // Error occurred in request to send.
    573            }
    574          #elif defined ZDO_COORDINATOR
    575          
    576            
    577          
    578          #endif 
    579            
    580           
    581          }
   \   000000   02....       LJMP    ?BRET
    582          
    583          /*********************************************************************
    584           * @fn      SampleApp_SendFlashMessage
    585           *
    586           * @brief   Send the flash message to group 1.
    587           *
    588           * @param   flashTime - in milliseconds
    589           *
    590           * @return  none
    591           */

   \                                 In  segment BANKED_CODE, align 1, keep-with-next
    592          void SampleApp_SendFlashMessage( uint16 flashTime )  
   \                     SampleApp_SendFlashMessage:
    593          {
   \   000000   74F6         MOV     A,#-0xa
   \   000002   12....       LCALL   ?BANKED_ENTER_XDATA
   \   000005                ; Saved register size: 10
   \   000005                ; Auto size: 3
   \   000005   74FD         MOV     A,#-0x3
   \   000007   12....       LCALL   ?ALLOC_XSTACK8
    594            uint8 buffer[3];
    595            buffer[0] = (uint8)(SampleAppFlashCounter++);
   \   00000A   90....       MOV     DPTR,#SampleAppFlashCounter
   \   00000D   E0           MOVX    A,@DPTR
   \   00000E   85..82       MOV     DPL,?XSP + 0
   \   000011   85..83       MOV     DPH,?XSP + 1
   \   000014   F0           MOVX    @DPTR,A
   \   000015   90....       MOV     DPTR,#SampleAppFlashCounter
   \   000018   E0           MOVX    A,@DPTR
   \   000019   04           INC     A
   \   00001A   F0           MOVX    @DPTR,A
    596            buffer[1] = LO_UINT16( flashTime );
   \   00001B   7401         MOV     A,#0x1
   \   00001D   12....       LCALL   ?XSTACK_DISP0_8
   \   000020   EA           MOV     A,R2
   \   000021   F0           MOVX    @DPTR,A
    597            buffer[2] = HI_UINT16( flashTime );
   \   000022   7402         MOV     A,#0x2
   \   000024   12....       LCALL   ?XSTACK_DISP0_8
   \   000027   EB           MOV     A,R3
   \   000028   F0           MOVX    @DPTR,A
    598          
    599            if ( AF_DataRequest( &SampleApp_Flash_DstAddr, &SampleApp_epDesc,
    600                                 SAMPLEAPP_FLASH_CLUSTERID,
    601                                 3,
    602                                 buffer,
    603                                 &SampleApp_TransID,
    604                                 AF_DISCV_ROUTE,
    605                                 AF_DEFAULT_RADIUS ) == afStatus_SUCCESS )
   \   000029                ; Setup parameters for call to function AF_DataRequest
   \   000029                REQUIRE ?Subroutine2
   \   000029                ; // Fall through to label ?Subroutine2
    606            {
    607            }
    608            else
    609            {
    610              // Error occurred in request to send.
    611            }
    612          }

   \                                 In  segment BANKED_CODE, align 1, keep-with-next
   \                     ?Subroutine2:
   \   000000   75..1E       MOV     ?V0 + 0,#0x1e
   \   000003   78..         MOV     R0,#?V0 + 0
   \   000005   12....       LCALL   ?PUSH_XSTACK_I_ONE
   \   000008   75....       MOV     ?V0 + 0,#SampleApp_TransID & 0xff
   \   00000B   75....       MOV     ?V0 + 1,#(SampleApp_TransID >> 8) & 0xff
   \   00000E   78..         MOV     R0,#?V0 + 0
   \   000010   12....       LCALL   ?PUSH_XSTACK_I_TWO
   \   000013   7403         MOV     A,#0x3
   \   000015   12....       LCALL   ?XSTACK_DISP0_8
   \   000018   8582..       MOV     ?V0 + 0,DPL
   \   00001B   8583..       MOV     ?V0 + 1,DPH
   \   00001E   78..         MOV     R0,#?V0 + 0
   \   000020   12....       LCALL   ?PUSH_XSTACK_I_TWO
   \   000023   75..03       MOV     ?V0 + 0,#0x3
   \   000026   75..00       MOV     ?V0 + 1,#0x0
   \   000029   78..         MOV     R0,#?V0 + 0
   \   00002B   12....       LCALL   ?PUSH_XSTACK_I_TWO
   \   00002E   75..02       MOV     ?V0 + 0,#0x2
   \   000031   78..         MOV     R0,#?V0 + 0
   \   000033   12....       LCALL   ?PUSH_XSTACK_I_TWO
   \   000036   7920         MOV     R1,#0x20
   \   000038   7C..         MOV     R4,#SampleApp_epDesc & 0xff
   \   00003A   7D..         MOV     R5,#(SampleApp_epDesc >> 8) & 0xff
   \   00003C   7A..         MOV     R2,#SampleApp_Flash_DstAddr & 0xff
   \   00003E   7B..         MOV     R3,#(SampleApp_Flash_DstAddr >> 8) & 0xff
   \   000040   12....       LCALL   ??AF_DataRequest?relay
   \   000043   7409         MOV     A,#0x9
   \   000045   12....       LCALL   ?DEALLOC_XSTACK8
   \   000048   7403         MOV     A,#0x3
   \   00004A   12....       LCALL   ?DEALLOC_XSTACK8
   \   00004D   7F02         MOV     R7,#0x2
   \   00004F   02....       LJMP    ?BANKED_LEAVE_XDATA

   \                                 In  segment BANKED_CODE, align 1, keep-with-next
    613          void SampleApp_Send_P2P_Message(void){
   \                     SampleApp_Send_P2P_Message:
   \   000000   74F6         MOV     A,#-0xa
   \   000002   12....       LCALL   ?BANKED_ENTER_XDATA
   \   000005                ; Saved register size: 10
   \   000005                ; Auto size: 3
   \   000005   74FD         MOV     A,#-0x3
   \   000007   12....       LCALL   ?ALLOC_XSTACK8
    614            uchar cmd[3] ="LED";
   \   00000A   85..82       MOV     DPL,?XSP + 0
   \   00000D   85..83       MOV     DPH,?XSP + 1
   \   000010   AC82         MOV     R4,DPL
   \   000012   AD83         MOV     R5,DPH
   \   000014   7583..       MOV     DPH,#(`?<Constant "LED">` >> 8) & 0xff
   \   000017   7582..       MOV     DPL,#`?<Constant "LED">` & 0xff
   \   00001A   7403         MOV     A,#0x3
   \   00001C   12....       LCALL   ?MOVE_LONG8_XDATA_XDATA
    615            if ( AF_DataRequest( &SampleApp_Flash_DstAddr, &SampleApp_epDesc,
    616                                 SAMPLEAPP_FLASH_CLUSTERID,
    617                                 3,
    618                                 cmd,
    619                                 &SampleApp_TransID,
    620                                 AF_DISCV_ROUTE,
    621                                 AF_DEFAULT_RADIUS ) == afStatus_SUCCESS )
   \   00001F                ; Setup parameters for call to function AF_DataRequest
   \   00001F   80..         SJMP    ?Subroutine2
    622            {
    623            }
    624          }
    625          /*********************************************************************
    626          *********************************************************************/

   \                                 In  segment BANKED_CODE, align 1, keep-with-next
    627           uint16 ReadTurData( void )
   \                     ReadTurData:
    628          {
   \   000000                ; Saved register size: 0
   \   000000                ; Auto size: 0
    629            uint16 reading = 0;
    630            
    631            /* Enable channel */
    632            ADCCFG |= 0x40;
   \   000000   43F240       ORL     0xf2,#0x40
    633            
    634            /* writing to this register starts the extra conversion */
    635            ADCCON3 = 0x86;// AVDD5 引脚  00： 64 抽取率(7 位ENOB)  0110： AIN6
   \   000003   75B686       MOV     0xb6,#-0x7a
    636            
    637            /* Wait for the conversion to be done */
    638            while (!(ADCCON1 & 0x80));
   \                     ??ReadTurData_0:
   \   000006   E5B4         MOV     A,0xb4
   \   000008   A2E7         MOV     C,0xE0 /* A   */.7
   \   00000A   50FA         JNC     ??ReadTurData_0
    639            
    640            /* Disable channel after done conversion */
    641            ADCCFG &= (0x40 ^ 0xFF); //按位异或。如1010^1111=0101（二进制）
   \   00000C   53F2BF       ANL     0xf2,#0xbf
    642            
    643            /* Read the result */
    644            reading = ADCL;
   \   00000F                REQUIRE ?Subroutine0
   \   00000F                REQUIRE ADCCFG
   \   00000F                REQUIRE ADCCON3
   \   00000F                REQUIRE ADCCON1
   \   00000F                REQUIRE ADCL
   \   00000F                REQUIRE ADCH
   \   00000F                ; // Fall through to label ?Subroutine0
    645            reading |= (int16) (ADCH << 8); 
    646            
    647            reading >>= 8;
    648            
    649            return (reading);
    650          } 

   \                                 In  segment BANKED_CODE, align 1, keep-with-next
   \                     ?Subroutine0:
   \   000000   E5BA         MOV     A,0xba
   \   000002   E5BB         MOV     A,0xbb
   \   000004   FA           MOV     R2,A
   \   000005   E4           CLR     A
   \   000006   FB           MOV     R3,A
   \   000007   02....       LJMP    ?BRET
    651          

   \                                 In  segment BANKED_CODE, align 1, keep-with-next
    652          uint16 ReadPhData( void )
   \                     ReadPhData:
    653          {
   \   000000                ; Saved register size: 0
   \   000000                ; Auto size: 0
    654            uint16 reading = 0;
    655            
    656            P0DIR &= ~0x20;  // 设置P0.5为输入方式
   \   000000   53FDDF       ANL     0xfd,#0xdf
    657            asm("NOP");asm("NOP");
   \   000003   00           NOP
   \   000004   00           NOP
    658            
    659            /* Clear ADC interrupt flag */
    660            ADCIF = 0;
   \   000005   C28D         CLR     0x88.5
    661            
    662            //ADCCON3 = (0x80 | HAL_ADC_DEC_064 | HAL_ADC_CHANNEL_5);
    663            ADCCON3 = (0x80 | 0x00 | 0x05);
   \   000007   75B685       MOV     0xb6,#-0x7b
    664            /* Wait for the conversion to finish */
    665            while ( !ADCIF );
   \                     ??ReadPhData_0:
   \   00000A   A28D         MOV     C,0x88.5
   \   00000C   50FC         JNC     ??ReadPhData_0
    666            
    667            asm("NOP");asm("NOP");
   \   00000E   00           NOP
   \   00000F   00           NOP
    668            
    669            /* Read the result */
    670            reading = ADCL;
   \   000010   80..         SJMP    ?Subroutine0
   \   000012                REQUIRE P0DIR
   \   000012                REQUIRE _A_TCON
   \   000012                REQUIRE ADCCON3
   \   000012                REQUIRE ADCL
   \   000012                REQUIRE ADCH
    671            reading |= (int16) (ADCH << 8);
    672            reading >>= 8;
    673            
    674            return reading;
    675          }

   \                                 In  segment XDATA_ID, align 1, keep-with-next
   \                     `?<Initializer for AppTitle>`:
   \   000000   414C4432     DB "ALD2530 Example"
   \            35333020
   \            4578616D
   \            706C6500

   \                                 In  segment BANK_RELAYS, align 1
   \                     ??myDelay?relay:
   \   000000   12....       LCALL   ?BDISPATCH
   \   000003   ......       DC24    myDelay

   \                                 In  segment BANK_RELAYS, align 1
   \                     ??SampleApp_Init?relay:
   \   000000   12....       LCALL   ?BDISPATCH
   \   000003   ......       DC24    SampleApp_Init

   \                                 In  segment BANK_RELAYS, align 1
   \                     ??SampleApp_ProcessEvent?relay:
   \   000000   12....       LCALL   ?BDISPATCH
   \   000003   ......       DC24    SampleApp_ProcessEvent

   \                                 In  segment BANK_RELAYS, align 1
   \                     ??SampleApp_HandleKeys?relay:
   \   000000   12....       LCALL   ?BDISPATCH
   \   000003   ......       DC24    SampleApp_HandleKeys

   \                                 In  segment BANK_RELAYS, align 1
   \                     ??SampleApp_MessageMSGCB?relay:
   \   000000   12....       LCALL   ?BDISPATCH
   \   000003   ......       DC24    SampleApp_MessageMSGCB

   \                                 In  segment BANK_RELAYS, align 1
   \                     ??SampleApp_SendPeriodicMessage?relay:
   \   000000   12....       LCALL   ?BDISPATCH
   \   000003   ......       DC24    SampleApp_SendPeriodicMessage

   \                                 In  segment BANK_RELAYS, align 1
   \                     ??SampleApp_SendFlashMessage?relay:
   \   000000   12....       LCALL   ?BDISPATCH
   \   000003   ......       DC24    SampleApp_SendFlashMessage

   \                                 In  segment BANK_RELAYS, align 1
   \                     ??SampleApp_Send_P2P_Message?relay:
   \   000000   12....       LCALL   ?BDISPATCH
   \   000003   ......       DC24    SampleApp_Send_P2P_Message

   \                                 In  segment BANK_RELAYS, align 1
   \                     ??ReadTurData?relay:
   \   000000   12....       LCALL   ?BDISPATCH
   \   000003   ......       DC24    ReadTurData

   \                                 In  segment BANK_RELAYS, align 1
   \                     ??ReadPhData?relay:
   \   000000   12....       LCALL   ?BDISPATCH
   \   000003   ......       DC24    ReadPhData

   \                                 In  segment XDATA_ROM_C, align 1
   \                     `?<Constant "stop">`:
   \   000000   73746F70     DB "stop"
   \            00      

   \                                 In  segment XDATA_ROM_C, align 1
   \                     `?<Constant "UartInit OK\\n">`:
   \   000000   55617274     DB "UartInit OK\012"
   \            496E6974
   \            204F4B0A
   \            00      

   \                                 In  segment XDATA_ROM_C, align 1
   \                     `?<Constant "Group 1">`:
   \   000000   47726F75     DB "Group 1"
   \            70203100

   \                                 In  segment XDATA_ROM_C, align 1
   \                     `?<Constant "SampleApp">`:
   \   000000   53616D70     DB "SampleApp"
   \            6C654170
   \            7000    

   \                                 In  segment XDATA_ROM_C, align 1
   \                     `?<Constant {0}>`:
   \   000000   00           DB 0
   \   000001   00000000     DB 0, 0, 0, 0, 0, 0, 0, 0
   \            00000000
   \   000009   00           DB 0

   \                                 In  segment XDATA_ROM_C, align 1
   \                     `?<Constant "LED">`:
   \   000000   4C4544       DB 4CH, 45H, 44H

   Maximum stack usage in bytes:

     Function                      ISTACK PSTACK XSTACK
     --------                      ------ ------ ------
     ReadPhData                        0      0      0
     ReadTurData                       0      0      0
     SampleApp_HandleKeys              0      0      0
     SampleApp_Init                    0      0     14
       -> MT_UartInit                  0      0     22
       -> MT_UartRegisterTaskID        0      0     22
       -> HalUARTWrite                 0      0     22
       -> HalUARTWrite                 0      0     22
       -> afRegister                   0      0     22
       -> RegisterForKeys              0      0     22
       -> osal_memcpy                  0      0     28
       -> aps_AddGroup                 0      0     22
       -> HalLcdWriteString            0      0     22
     SampleApp_MessageMSGCB            2      0     36
       -> osal_memset                  0      0     42
       -> osal_memcpy                  0      0     48
       -> HalUARTWrite                 0      0     42
       -> HalLedBlink                  0      0     42
     SampleApp_ProcessEvent            0      0     12
       -> osal_msg_receive             0      0     24
       -> osal_start_timerEx           0      0     24
       -> osal_msg_deallocate          0      0     24
       -> osal_msg_receive             0      0     24
       -> SampleApp_MessageMSGCB       0      0     24
       -> osal_rand                    0      0     24
       -> osal_start_timerEx           0      0     24
     SampleApp_SendFlashMessage        1      0     22
       -> AF_DataRequest               0      0     44
     SampleApp_SendPeriodicMessage     0      0      0
     SampleApp_Send_P2P_Message        2      0     22
       -> AF_DataRequest               0      0     44
     myDelay                           0      0      0


   Segment part sizes:

     Function/Label                        Bytes
     --------------                        -----
     _A_TCON                                  1
     ADCCON1                                  1
     ADCCON3                                  1
     ADCL                                     1
     ADCH                                     1
     ADCCFG                                   1
     P0SEL                                    1
     P0DIR                                    1
     AppTitle                                16
     myDelay                                 31
     SampleApp_ClusterList                    4
     SampleApp_SimpleDesc                    12
     SampleApp_epDesc                         6
     SampleApp_TaskID                         1
     SampleApp_NwkState                       1
     SampleApp_TransID                        1
     SampleApp_Periodic_DstAddr              12
     SampleApp_Flash_DstAddr                 12
     SampleApp_Group                         18
     SampleAppPeriodicCounter                 1
     SampleAppFlashCounter                    1
     SampleApp_Init                         198
     ?Subroutine1                             5
     SampleApp_ProcessEvent                 149
     SampleApp_HandleKeys                     3
     SampleApp_MessageMSGCB                 201
     ?Subroutine3                            12
     SampleApp_SendPeriodicMessage            3
     SampleApp_SendFlashMessage              41
     ?Subroutine2                            82
     SampleApp_Send_P2P_Message              33
     ReadTurData                             15
     ?Subroutine0                            10
     ReadPhData                              18
     ?<Initializer for AppTitle>             16
     ??myDelay?relay                          6
     ??SampleApp_Init?relay                   6
     ??SampleApp_ProcessEvent?relay           6
     ??SampleApp_HandleKeys?relay             6
     ??SampleApp_MessageMSGCB?relay           6
     ??SampleApp_SendPeriodicMessage?relay    6
     ??SampleApp_SendFlashMessage?relay       6
     ??SampleApp_Send_P2P_Message?relay       6
     ??ReadTurData?relay                      6
     ??ReadPhData?relay                       6
     ?<Constant "stop">                       5
     ?<Constant "UartInit OK\n">             13
     ?<Constant "Group 1">                    8
     ?<Constant "SampleApp">                 10
     ?<Constant {0}>                         10
     ?<Constant "LED">                        3

 
 801 bytes in segment BANKED_CODE
  60 bytes in segment BANK_RELAYS
   8 bytes in segment SFR_AN
  16 bytes in segment XDATA_I
  16 bytes in segment XDATA_ID
  65 bytes in segment XDATA_ROM_C
  53 bytes in segment XDATA_Z
 
 877 bytes of CODE  memory
  65 bytes of CONST memory
   0 bytes of DATA  memory (+ 8 bytes shared)
  69 bytes of XDATA memory

Errors: none
Warnings: none
