///////////////////////////////////////////////////////////////////////////////
//                                                                            /
// IAR C/C++ Compiler V8.10.1.10194/W32 for 8051        15/Dec/2019  14:13:23 /
// Copyright 2004-2011 IAR Systems AB.                                        /
//                                                                            /
//    Core               =  plain                                             /
//    Code model         =  banked                                            /
//    Data model         =  large                                             /
//    Calling convention =  xdata reentrant                                   /
//    Constant location  =  data_rom                                          /
//    Dptr setup         =  1,16                                              /
//    Source file        =  C:\Users\25814\Desktop\2020±œ…Ë\Õı–¬»Ô_—¯÷Ì\”≤º˛≤ /
//                          ø∑÷\Projects\zstack\Samples\SampleApp\Source\gy30 /
//                           .c                                               /
//    Command line       =  -f C:\Users\25814\Desktop\2020±œ…Ë\Õı–¬»Ô_—¯÷Ì\”≤ /
//                          º˛≤ø∑÷\Projects\zstack\Samples\SampleApp\CC2530DB /
//                          \..\..\..\Tools\CC2530DB\f8wEndev.cfg             /
//                          (-DCPU32MHZ -DROOT=__near_func                    /
//                          -DMAC_CFG_TX_DATA_MAX=3 -DMAC_CFG_TX_MAX=6        /
//                          -DMAC_CFG_RX_MAX=3) -f C:\Users\25814\Desktop\202 /
//                          0±œ…Ë\Õı–¬»Ô_—¯÷Ì\”≤º˛≤ø∑÷\Projects\zstack\Sample /
//                          s\SampleApp\CC2530DB\..\..\..\Tools\CC2530DB\f8wC /
//                          onfig.cfg (-DZIGBEEPRO -DSECURE=0                 /
//                          -DZG_SECURE_DYNAMIC=0 -DREFLECTOR                 /
//                          -DDEFAULT_CHANLIST=0x00000800                     /
//                          -DZDAPP_CONFIG_PAN_ID=0xFFF1                      /
//                          -DNWK_START_DELAY=100 -DEXTENDED_JOINING_RANDOM_M /
//                          ASK=0x007F -DBEACON_REQUEST_DELAY=100             /
//                          -DBEACON_REQ_DELAY_MASK=0x00FF                    /
//                          -DLINK_STATUS_JITTER_MASK=0x007F                  /
//                          -DROUTE_EXPIRY_TIME=30 -DAPSC_ACK_WAIT_DURATION_P /
//                          OLLED=3000 -DNWK_INDIRECT_MSG_TIMEOUT=7           /
//                          -DMAX_RREQ_ENTRIES=8 -DAPSC_MAX_FRAME_RETRIES=3   /
//                          -DNWK_MAX_DATA_RETRIES=2                          /
//                          -DMAX_POLL_FAILURE_RETRIES=2 -DMAX_BCAST=9        /
//                          -DAPS_MAX_GROUPS=16 -DMAX_RTG_ENTRIES=40          /
//                          -DNWK_MAX_BINDING_ENTRIES=4                       /
//                          -DMAX_BINDING_CLUSTER_IDS=4                       /
//                          "-DDEFAULT_KEY={0x01, 0x03, 0x05, 0x07, 0x09,     /
//                          0x0B, 0x0D, 0x0F, 0x00, 0x02, 0x04, 0x06, 0x08,   /
//                          0x0A, 0x0C, 0x0D}" -DMAC_MAX_FRAME_SIZE=116       /
//                          -DZDNWKMGR_MIN_TRANSMISSIONS=20 "-DCONST=const    /
//                          __code" -DGENERIC=__generic                       /
//                          -DRFD_RCVC_ALWAYS_ON=FALSE -DPOLL_RATE=1000       /
//                          -DQUEUED_POLL_RATE=100 -DRESPONSE_POLL_RATE=100)  /
//                          -DREJOIN_POLL_RATE=440 "C:\Users\25814\Desktop\20 /
//                          20±œ…Ë\Õı–¬»Ô_—¯÷Ì\”≤º˛≤ø∑÷\Projects\zstack\Sampl /
//                          es\SampleApp\Source\gy30 .c" -D NWK_AUTO_POLL -D  /
//                          ZAPP_P1 -D MT_TASK -D MT_SYS_FUNC -D MT_ZDO_FUNC  /
//                          -D LCD_SUPPORTED=DEBUG -lC                        /
//                          C:\Users\25814\Desktop\2020±œ…Ë\Õı–¬»Ô_—¯÷Ì\”≤º˛≤ /
//                          ø∑÷\Projects\zstack\Samples\SampleApp\CC2530DB\En /
//                          dDeviceEB\List\ -lA C:\Users\25814\Desktop\2020±œ /
//                          …Ë\Õı–¬»Ô_—¯÷Ì\”≤º˛≤ø∑÷\Projects\zstack\Samples\S /
//                          ampleApp\CC2530DB\EndDeviceEB\List\               /
//                          --diag_suppress Pe001,Pa010 -o                    /
//                          C:\Users\25814\Desktop\2020±œ…Ë\Õı–¬»Ô_—¯÷Ì\”≤º˛≤ /
//                          ø∑÷\Projects\zstack\Samples\SampleApp\CC2530DB\En /
//                          dDeviceEB\Obj\ -e --no_code_motion --debug        /
//                          --core=plain --dptr=16,1 --data_model=large       /
//                          --code_model=banked --calling_convention=xdata_re /
//                          entrant --place_constants=data_rom                /
//                          --nr_virtual_regs 16 -I                           /
//                          C:\Users\25814\Desktop\2020±œ…Ë\Õı–¬»Ô_—¯÷Ì\”≤º˛≤ /
//                          ø∑÷\Projects\zstack\Samples\SampleApp\CC2530DB\   /
//                          -I C:\Users\25814\Desktop\2020±œ…Ë\Õı–¬»Ô_—¯÷Ì\”≤ /
//                          º˛≤ø∑÷\Projects\zstack\Samples\SampleApp\CC2530DB /
//                          \..\Source\ -I C:\Users\25814\Desktop\2020±œ…Ë\Õı /
//                          –¬»Ô_—¯÷Ì\”≤º˛≤ø∑÷\Projects\zstack\Samples\Sample /
//                          App\CC2530DB\..\..\..\ZMain\TI2530DB\ -I          /
//                          C:\Users\25814\Desktop\2020±œ…Ë\Õı–¬»Ô_—¯÷Ì\”≤º˛≤ /
//                          ø∑÷\Projects\zstack\Samples\SampleApp\CC2530DB\.. /
//                          \..\..\..\..\Components\hal\include\ -I           /
//                          C:\Users\25814\Desktop\2020±œ…Ë\Õı–¬»Ô_—¯÷Ì\”≤º˛≤ /
//                          ø∑÷\Projects\zstack\Samples\SampleApp\CC2530DB\.. /
//                          \..\..\..\..\Components\hal\target\CC2530EB\ -I   /
//                          C:\Users\25814\Desktop\2020±œ…Ë\Õı–¬»Ô_—¯÷Ì\”≤º˛≤ /
//                          ø∑÷\Projects\zstack\Samples\SampleApp\CC2530DB\.. /
//                          \..\..\..\..\Components\mac\include\ -I           /
//                          C:\Users\25814\Desktop\2020±œ…Ë\Õı–¬»Ô_—¯÷Ì\”≤º˛≤ /
//                          ø∑÷\Projects\zstack\Samples\SampleApp\CC2530DB\.. /
//                          \..\..\..\..\Components\mac\high_level\ -I        /
//                          C:\Users\25814\Desktop\2020±œ…Ë\Õı–¬»Ô_—¯÷Ì\”≤º˛≤ /
//                          ø∑÷\Projects\zstack\Samples\SampleApp\CC2530DB\.. /
//                          \..\..\..\..\Components\mac\low_level\srf04\ -I   /
//                          C:\Users\25814\Desktop\2020±œ…Ë\Õı–¬»Ô_—¯÷Ì\”≤º˛≤ /
//                          ø∑÷\Projects\zstack\Samples\SampleApp\CC2530DB\.. /
//                          \..\..\..\..\Components\mac\low_level\srf04\singl /
//                          e_chip\ -I C:\Users\25814\Desktop\2020±œ…Ë\Õı–¬»Ô /
//                          _—¯÷Ì\”≤º˛≤ø∑÷\Projects\zstack\Samples\SampleApp\ /
//                          CC2530DB\..\..\..\..\..\Components\mt\ -I         /
//                          C:\Users\25814\Desktop\2020±œ…Ë\Õı–¬»Ô_—¯÷Ì\”≤º˛≤ /
//                          ø∑÷\Projects\zstack\Samples\SampleApp\CC2530DB\.. /
//                          \..\..\..\..\Components\osal\include\ -I          /
//                          C:\Users\25814\Desktop\2020±œ…Ë\Õı–¬»Ô_—¯÷Ì\”≤º˛≤ /
//                          ø∑÷\Projects\zstack\Samples\SampleApp\CC2530DB\.. /
//                          \..\..\..\..\Components\services\saddr\ -I        /
//                          C:\Users\25814\Desktop\2020±œ…Ë\Õı–¬»Ô_—¯÷Ì\”≤º˛≤ /
//                          ø∑÷\Projects\zstack\Samples\SampleApp\CC2530DB\.. /
//                          \..\..\..\..\Components\services\sdata\ -I        /
//                          C:\Users\25814\Desktop\2020±œ…Ë\Õı–¬»Ô_—¯÷Ì\”≤º˛≤ /
//                          ø∑÷\Projects\zstack\Samples\SampleApp\CC2530DB\.. /
//                          \..\..\..\..\Components\stack\af\ -I              /
//                          C:\Users\25814\Desktop\2020±œ…Ë\Õı–¬»Ô_—¯÷Ì\”≤º˛≤ /
//                          ø∑÷\Projects\zstack\Samples\SampleApp\CC2530DB\.. /
//                          \..\..\..\..\Components\stack\nwk\ -I             /
//                          C:\Users\25814\Desktop\2020±œ…Ë\Õı–¬»Ô_—¯÷Ì\”≤º˛≤ /
//                          ø∑÷\Projects\zstack\Samples\SampleApp\CC2530DB\.. /
//                          \..\..\..\..\Components\stack\sapi\ -I            /
//                          C:\Users\25814\Desktop\2020±œ…Ë\Õı–¬»Ô_—¯÷Ì\”≤º˛≤ /
//                          ø∑÷\Projects\zstack\Samples\SampleApp\CC2530DB\.. /
//                          \..\..\..\..\Components\stack\sec\ -I             /
//                          C:\Users\25814\Desktop\2020±œ…Ë\Õı–¬»Ô_—¯÷Ì\”≤º˛≤ /
//                          ø∑÷\Projects\zstack\Samples\SampleApp\CC2530DB\.. /
//                          \..\..\..\..\Components\stack\sys\ -I             /
//                          C:\Users\25814\Desktop\2020±œ…Ë\Õı–¬»Ô_—¯÷Ì\”≤º˛≤ /
//                          ø∑÷\Projects\zstack\Samples\SampleApp\CC2530DB\.. /
//                          \..\..\..\..\Components\stack\zdo\ -I             /
//                          C:\Users\25814\Desktop\2020±œ…Ë\Õı–¬»Ô_—¯÷Ì\”≤º˛≤ /
//                          ø∑÷\Projects\zstack\Samples\SampleApp\CC2530DB\.. /
//                          \..\..\..\..\Components\zmac\ -I                  /
//                          C:\Users\25814\Desktop\2020±œ…Ë\Õı–¬»Ô_—¯÷Ì\”≤º˛≤ /
//                          ø∑÷\Projects\zstack\Samples\SampleApp\CC2530DB\.. /
//                          \..\..\..\..\Components\zmac\f8w\ -Ohz            /
//    List file          =  C:\Users\25814\Desktop\2020±œ…Ë\Õı–¬»Ô_—¯÷Ì\”≤º˛≤ /
//                          ø∑÷\Projects\zstack\Samples\SampleApp\CC2530DB\En /
//                          dDeviceEB\List\gy30 .s51                          /
//                                                                            /
//                                                                            /
///////////////////////////////////////////////////////////////////////////////

        NAME `gy30 `

        RTMODEL "__SystemLibrary", "CLib"
        RTMODEL "__calling_convention", "xdata_reentrant"
        RTMODEL "__code_model", "banked"
        RTMODEL "__core", "plain"
        RTMODEL "__data_model", "large"
        RTMODEL "__dptr_size", "16"
        RTMODEL "__extended_stack", "disabled"
        RTMODEL "__location_for_constants", "data"
        RTMODEL "__number_of_dptrs", "1"
        RTMODEL "__rt_version", "1"

        RSEG DOVERLAY:DATA:NOROOT(0)
        RSEG IOVERLAY:IDATA:NOROOT(0)
        RSEG ISTACK:IDATA:NOROOT(0)
        RSEG PSTACK:XDATA:NOROOT(0)
        RSEG XSTACK:XDATA:NOROOT(0)

        EXTERN ?BANKED_ENTER_XDATA
        EXTERN ?BANKED_LEAVE_XDATA
        EXTERN ?BDISPATCH
        EXTERN ?BRET
        EXTERN ?FLT_DIV
        EXTERN ?FLT_TO_L
        EXTERN ?L_MOV_X
        EXTERN ?UL_TO_FLT
        EXTERN ?V0

        PUBLIC ??Delay_1us?relay
        FUNCTION ??Delay_1us?relay,0203H
        PUBLIC ??IIC_MasterACK?relay
        FUNCTION ??IIC_MasterACK?relay,0203H
        PUBLIC ??IIC_SalveCK?relay
        FUNCTION ??IIC_SalveCK?relay,0203H
        PUBLIC ??Light?relay
        FUNCTION ??Light?relay,0203H
        FUNCTION ??delay_nus?relay,0203H
        PUBLIC ??get_light?relay
        FUNCTION ??get_light?relay,0203H
        FUNCTION ??i2c_read?relay,0203H
        FUNCTION ??i2c_send?relay,0203H
        FUNCTION ??start_i2c?relay,0203H
        FUNCTION ??stop_i2c?relay,0203H
        PUBLIC Delay_1us
        FUNCTION Delay_1us,080203H
        ARGFRAME XSTACK, 0, STACK
        ARGFRAME IOVERLAY, 0, STATIC
        ARGFRAME DOVERLAY, 0, STATIC
        PUBLIC IIC_MasterACK
        FUNCTION IIC_MasterACK,021203H
        ARGFRAME XSTACK, 10, STACK
        ARGFRAME IOVERLAY, 0, STATIC
        ARGFRAME DOVERLAY, 0, STATIC
        LOCFRAME ISTACK, 2, STACK
        PUBLIC IIC_SalveCK
        FUNCTION IIC_SalveCK,021203H
        ARGFRAME XSTACK, 9, STACK
        ARGFRAME IOVERLAY, 0, STATIC
        ARGFRAME DOVERLAY, 0, STATIC
        LOCFRAME XSTACK, 9, STACK
        PUBLIC Light
        FUNCTION Light,021203H
        ARGFRAME XSTACK, 0, STACK
        LOCFRAME XSTACK, 16, STACK
        PUBWEAK P0DIR
        PUBWEAK P0SEL
        PUBWEAK _A_P0
        PUBWEAK __Constant_3f99999a
        FUNCTION delay_nus,021203H
        ARGFRAME XSTACK, 10, STACK
        ARGFRAME IOVERLAY, 0, STATIC
        ARGFRAME DOVERLAY, 0, STATIC
        LOCFRAME ISTACK, 2, STACK
        PUBLIC get_light
        FUNCTION get_light,021203H
        ARGFRAME XSTACK, 16, STACK
        ARGFRAME IOVERLAY, 0, STATIC
        ARGFRAME DOVERLAY, 0, STATIC
        LOCFRAME XSTACK, 10, STACK
        FUNCTION i2c_read,021201H
        ARGFRAME XSTACK, 10, STACK
        ARGFRAME IOVERLAY, 0, STATIC
        ARGFRAME DOVERLAY, 0, STATIC
        LOCFRAME XSTACK, 9, STACK
        FUNCTION i2c_send,021203H
        ARGFRAME XSTACK, 10, STACK
        ARGFRAME IOVERLAY, 0, STATIC
        ARGFRAME DOVERLAY, 0, STATIC
        LOCFRAME XSTACK, 9, STACK
        FUNCTION start_i2c,021203H
        ARGFRAME XSTACK, 10, STACK
        ARGFRAME IOVERLAY, 0, STATIC
        ARGFRAME DOVERLAY, 0, STATIC
        LOCFRAME ISTACK, 2, STACK
        FUNCTION stop_i2c,021203H
        ARGFRAME XSTACK, 10, STACK
        ARGFRAME IOVERLAY, 0, STATIC
        ARGFRAME DOVERLAY, 0, STATIC
        LOCFRAME ISTACK, 2, STACK
        
        CFI Names cfiNames0
        CFI StackFrame CFA_SP SP IDATA
        CFI StackFrame CFA_PSP16 PSP16 XDATA
        CFI StackFrame CFA_XSP16 XSP16 XDATA
        CFI StaticOverlayFrame CFA_IOVERLAY IOVERLAY
        CFI StaticOverlayFrame CFA_DOVERLAY DOVERLAY
        CFI Resource `PSW.CY`:1, `B.BR0`:1, `B.BR1`:1, `B.BR2`:1, `B.BR3`:1
        CFI Resource `B.BR4`:1, `B.BR5`:1, `B.BR6`:1, `B.BR7`:1, `VB.BR8`:1
        CFI Resource `VB.BR9`:1, `VB.BR10`:1, `VB.BR11`:1, `VB.BR12`:1
        CFI Resource `VB.BR13`:1, `VB.BR14`:1, `VB.BR15`:1, VB:8, B:8, A:8
        CFI Resource PSW:8, DPL0:8, DPH0:8, R0:8, R1:8, R2:8, R3:8, R4:8, R5:8
        CFI Resource R6:8, R7:8, V0:8, V1:8, V2:8, V3:8, V4:8, V5:8, V6:8, V7:8
        CFI Resource V8:8, V9:8, V10:8, V11:8, V12:8, V13:8, V14:8, V15:8, SP:8
        CFI Resource PSPH:8, PSPL:8, PSP16:16, XSPH:8, XSPL:8, XSP16:16
        CFI VirtualResource ?RET:24
        CFI Resource ?BRET_EXT:8
        CFI VirtualResource ?RET_HIGH:8, ?RET_LOW:8
        CFI ResourceParts PSP16 PSPH, PSPL
        CFI ResourceParts XSP16 XSPH, XSPL
        CFI ResourceParts ?RET ?BRET_EXT, ?RET_HIGH, ?RET_LOW
        CFI EndNames cfiNames0
        
        CFI Common cfiCommon0 Using cfiNames0
        CFI CodeAlign 1
        CFI DataAlign -1
        CFI ReturnAddress ?RET CODE
        CFI CFA_DOVERLAY Used
        CFI CFA_IOVERLAY Used
        CFI CFA_SP SP+-3
        CFI CFA_PSP16 PSP16+0
        CFI CFA_XSP16 XSP16+0
        CFI `PSW.CY` SameValue
        CFI `B.BR0` SameValue
        CFI `B.BR1` SameValue
        CFI `B.BR2` SameValue
        CFI `B.BR3` SameValue
        CFI `B.BR4` SameValue
        CFI `B.BR5` SameValue
        CFI `B.BR6` SameValue
        CFI `B.BR7` SameValue
        CFI `VB.BR8` SameValue
        CFI `VB.BR9` SameValue
        CFI `VB.BR10` SameValue
        CFI `VB.BR11` SameValue
        CFI `VB.BR12` SameValue
        CFI `VB.BR13` SameValue
        CFI `VB.BR14` SameValue
        CFI `VB.BR15` SameValue
        CFI VB SameValue
        CFI B Undefined
        CFI A Undefined
        CFI PSW SameValue
        CFI DPL0 SameValue
        CFI DPH0 SameValue
        CFI R0 Undefined
        CFI R1 Undefined
        CFI R2 Undefined
        CFI R3 Undefined
        CFI R4 Undefined
        CFI R5 Undefined
        CFI R6 SameValue
        CFI R7 SameValue
        CFI V0 SameValue
        CFI V1 SameValue
        CFI V2 SameValue
        CFI V3 SameValue
        CFI V4 SameValue
        CFI V5 SameValue
        CFI V6 SameValue
        CFI V7 SameValue
        CFI V8 SameValue
        CFI V9 SameValue
        CFI V10 SameValue
        CFI V11 SameValue
        CFI V12 SameValue
        CFI V13 SameValue
        CFI V14 SameValue
        CFI V15 SameValue
        CFI PSPH Undefined
        CFI PSPL Undefined
        CFI XSPH Undefined
        CFI XSPL Undefined
        CFI ?RET Concat
        CFI ?BRET_EXT Frame(CFA_SP, 3)
        CFI ?RET_HIGH Frame(CFA_SP, 2)
        CFI ?RET_LOW Frame(CFA_SP, 1)
        CFI EndCommon cfiCommon0
        
        
        CFI Common cfiCommon1 Using cfiNames0
        CFI CodeAlign 1
        CFI DataAlign -1
        CFI ReturnAddress ?RET CODE
        CFI CFA_DOVERLAY Used
        CFI CFA_IOVERLAY Used
        CFI CFA_SP SP+-2
        CFI CFA_PSP16 PSP16+0
        CFI CFA_XSP16 XSP16+0
        CFI `PSW.CY` SameValue
        CFI `B.BR0` SameValue
        CFI `B.BR1` SameValue
        CFI `B.BR2` SameValue
        CFI `B.BR3` SameValue
        CFI `B.BR4` SameValue
        CFI `B.BR5` SameValue
        CFI `B.BR6` SameValue
        CFI `B.BR7` SameValue
        CFI `VB.BR8` SameValue
        CFI `VB.BR9` SameValue
        CFI `VB.BR10` SameValue
        CFI `VB.BR11` SameValue
        CFI `VB.BR12` SameValue
        CFI `VB.BR13` SameValue
        CFI `VB.BR14` SameValue
        CFI `VB.BR15` SameValue
        CFI VB SameValue
        CFI B SameValue
        CFI A SameValue
        CFI PSW SameValue
        CFI DPL0 SameValue
        CFI DPH0 SameValue
        CFI R0 SameValue
        CFI R1 SameValue
        CFI R2 SameValue
        CFI R3 SameValue
        CFI R4 SameValue
        CFI R5 SameValue
        CFI R6 SameValue
        CFI R7 SameValue
        CFI V0 SameValue
        CFI V1 SameValue
        CFI V2 SameValue
        CFI V3 SameValue
        CFI V4 SameValue
        CFI V5 SameValue
        CFI V6 SameValue
        CFI V7 SameValue
        CFI V8 SameValue
        CFI V9 SameValue
        CFI V10 SameValue
        CFI V11 SameValue
        CFI V12 SameValue
        CFI V13 SameValue
        CFI V14 SameValue
        CFI V15 SameValue
        CFI PSPH Undefined
        CFI PSPL Undefined
        CFI XSPH Undefined
        CFI XSPL Undefined
        CFI ?RET Concat
        CFI ?BRET_EXT SameValue
        CFI ?RET_HIGH Frame(CFA_SP, 2)
        CFI ?RET_LOW Frame(CFA_SP, 1)
        CFI EndCommon cfiCommon1
        
Delay_1us           SYMBOL "Delay_1us"
??Delay_1us?relay   SYMBOL "?relay", Delay_1us
IIC_MasterACK       SYMBOL "IIC_MasterACK"
??IIC_MasterACK?relay SYMBOL "?relay", IIC_MasterACK
IIC_SalveCK         SYMBOL "IIC_SalveCK"
??IIC_SalveCK?relay SYMBOL "?relay", IIC_SalveCK
Light               SYMBOL "Light"
??Light?relay       SYMBOL "?relay", Light
get_light           SYMBOL "get_light"
??get_light?relay   SYMBOL "?relay", get_light

// C:\Users\25814\Desktop\2020±œ…Ë\Õı–¬»Ô_—¯÷Ì\”≤º˛≤ø∑÷\Projects\zstack\Samples\SampleApp\Source\gy30 .c
//    1 #include "gy30.h"

        ASEGN SFR_AN:DATA:NOROOT,080H
// union <unnamed> volatile __sfr _A_P0
_A_P0:
        DATA8
        DS 1

        ASEGN SFR_AN:DATA:NOROOT,0f3H
// unsigned char volatile __sfr P0SEL
P0SEL:
        DATA8
        DS 1

        ASEGN SFR_AN:DATA:NOROOT,0fdH
// unsigned char volatile __sfr P0DIR
P0DIR:
        DATA8
        DS 1
//    2  
//    3 
//    4 
//    5  
//    6 /****************
//    7 *  —” ±∫Ø ˝1us
//    8 ****************/

        RSEG BANKED_CODE:CODE:NOROOT(0)
//    9 void Delay_1us(void) 
Delay_1us:
        CFI Block cfiBlock0 Using cfiCommon0
        CFI Function Delay_1us
        CODE
//   10 {
        ; Saved register size: 0
        ; Auto size: 0
//   11  
//   12   asm("nop");
        nop
//   13   asm("nop");
        nop
//   14   asm("nop");
        nop
//   15   asm("nop");
        nop
//   16   asm("nop");
        nop
//   17   asm("nop");
        nop
//   18   asm("nop");
        nop
//   19   asm("nop");
        nop
//   20   asm("nop");
        nop
//   21   asm("nop");
        nop
//   22  
//   23 }
        LJMP    ?BRET
        CFI EndBlock cfiBlock0
//   24  
//   25 /****************
//   26 *  —” ±∫Ø ˝5us
//   27 ****************/

        RSEG BANKED_CODE:CODE:NOROOT(0)
//   28 static void delay_nus(void)
delay_nus:
        CFI Block cfiBlock1 Using cfiCommon0
        CFI Function delay_nus
        CODE
//   29 {
        FUNCALL delay_nus, Delay_1us
        LOCFRAME ISTACK, 2, STACK
        LOCFRAME PSTACK, 0, STACK
        LOCFRAME XSTACK, 0, STACK
        LOCFRAME IOVERLAY, 0, STATIC
        LOCFRAME DOVERLAY, 0, STATIC
        ARGFRAME ISTACK, 2, STACK
        ARGFRAME PSTACK, 0, STACK
        ARGFRAME XSTACK, 0, STACK
        ARGFRAME IOVERLAY, 0, STATIC
        ARGFRAME DOVERLAY, 0, STATIC
        FUNCALL delay_nus, Delay_1us
        LOCFRAME ISTACK, 2, STACK
        LOCFRAME PSTACK, 0, STACK
        LOCFRAME XSTACK, 0, STACK
        LOCFRAME IOVERLAY, 0, STATIC
        LOCFRAME DOVERLAY, 0, STATIC
        ARGFRAME ISTACK, 2, STACK
        ARGFRAME PSTACK, 0, STACK
        ARGFRAME XSTACK, 0, STACK
        ARGFRAME IOVERLAY, 0, STATIC
        ARGFRAME DOVERLAY, 0, STATIC
        FUNCALL delay_nus, Delay_1us
        LOCFRAME ISTACK, 2, STACK
        LOCFRAME PSTACK, 0, STACK
        LOCFRAME XSTACK, 0, STACK
        LOCFRAME IOVERLAY, 0, STATIC
        LOCFRAME DOVERLAY, 0, STATIC
        ARGFRAME ISTACK, 2, STACK
        ARGFRAME PSTACK, 0, STACK
        ARGFRAME XSTACK, 0, STACK
        ARGFRAME IOVERLAY, 0, STATIC
        ARGFRAME DOVERLAY, 0, STATIC
        FUNCALL delay_nus, Delay_1us
        LOCFRAME ISTACK, 2, STACK
        LOCFRAME PSTACK, 0, STACK
        LOCFRAME XSTACK, 0, STACK
        LOCFRAME IOVERLAY, 0, STATIC
        LOCFRAME DOVERLAY, 0, STATIC
        ARGFRAME ISTACK, 2, STACK
        ARGFRAME PSTACK, 0, STACK
        ARGFRAME XSTACK, 0, STACK
        ARGFRAME IOVERLAY, 0, STATIC
        ARGFRAME DOVERLAY, 0, STATIC
        FUNCALL delay_nus, Delay_1us
        LOCFRAME ISTACK, 2, STACK
        LOCFRAME PSTACK, 0, STACK
        LOCFRAME XSTACK, 0, STACK
        LOCFRAME IOVERLAY, 0, STATIC
        LOCFRAME DOVERLAY, 0, STATIC
        ARGFRAME ISTACK, 2, STACK
        ARGFRAME PSTACK, 0, STACK
        ARGFRAME XSTACK, 0, STACK
        ARGFRAME IOVERLAY, 0, STATIC
        ARGFRAME DOVERLAY, 0, STATIC
        PUSH    DPL
        CFI DPL0 Frame(CFA_SP, 4)
        CFI CFA_SP SP+-4
        PUSH    DPH
        CFI DPH0 Frame(CFA_SP, 5)
        CFI CFA_SP SP+-5
        ; Saved register size: 2
        ; Auto size: 0
//   30  
//   31   Delay_1us();
        ; Setup parameters for call to function Delay_1us
        LCALL   ??Delay_1us?relay
//   32   Delay_1us();
        ; Setup parameters for call to function Delay_1us
        LCALL   ??Delay_1us?relay
//   33   Delay_1us();
        ; Setup parameters for call to function Delay_1us
        LCALL   ??Delay_1us?relay
//   34   Delay_1us();
        ; Setup parameters for call to function Delay_1us
        LCALL   ??Delay_1us?relay
//   35   Delay_1us(); 
        ; Setup parameters for call to function Delay_1us
        LCALL   ??Delay_1us?relay
//   36  
//   37 }
        SJMP    ?Subroutine0
        CFI EndBlock cfiBlock1
//   38  
//   39 /****************
//   40 *   —” ±∫Ø ˝ms
//   41 ****************/
//   42 static void delay_nms(uint ms)
//   43 {
//   44  
//   45   uint i;
//   46   while(ms--)
//   47   {
//   48  
//   49     for(i=0;i<200;i++)
//   50       delay_nus();
//   51     
//   52 } 
//   53  
//   54 }
//   55  
//   56 /****************
//   57 *  ø™ º∫Ø ˝
//   58 ****************/

        RSEG BANKED_CODE:CODE:NOROOT(0)
//   59 static void start_i2c(void)
start_i2c:
        CFI Block cfiBlock2 Using cfiCommon0
        CFI Function start_i2c
        CODE
//   60 {
        FUNCALL start_i2c, delay_nus
        LOCFRAME ISTACK, 2, STACK
        LOCFRAME PSTACK, 0, STACK
        LOCFRAME XSTACK, 0, STACK
        LOCFRAME IOVERLAY, 0, STATIC
        LOCFRAME DOVERLAY, 0, STATIC
        ARGFRAME ISTACK, 2, STACK
        ARGFRAME PSTACK, 0, STACK
        ARGFRAME XSTACK, 0, STACK
        ARGFRAME IOVERLAY, 0, STATIC
        ARGFRAME DOVERLAY, 0, STATIC
        FUNCALL start_i2c, delay_nus
        LOCFRAME ISTACK, 2, STACK
        LOCFRAME PSTACK, 0, STACK
        LOCFRAME XSTACK, 0, STACK
        LOCFRAME IOVERLAY, 0, STATIC
        LOCFRAME DOVERLAY, 0, STATIC
        ARGFRAME ISTACK, 2, STACK
        ARGFRAME PSTACK, 0, STACK
        ARGFRAME XSTACK, 0, STACK
        ARGFRAME IOVERLAY, 0, STATIC
        ARGFRAME DOVERLAY, 0, STATIC
        PUSH    DPL
        CFI DPL0 Frame(CFA_SP, 4)
        CFI CFA_SP SP+-4
        PUSH    DPH
        CFI DPH0 Frame(CFA_SP, 5)
        CFI CFA_SP SP+-5
        ; Saved register size: 2
        ; Auto size: 0
//   61  
//   62   set_sda_out() ;
        ORL     0xfd,#0x10
//   63   SDA=1;
        SETB    0x80.4
//   64   SCL=1 ;
        SETB    0x80.5
//   65   delay_nus() ;
        ; Setup parameters for call to function delay_nus
        LCALL   ??delay_nus?relay
//   66   SDA=0 ;
        CLR     0x80.4
//   67   delay_nus()  ;
        ; Setup parameters for call to function delay_nus
        LCALL   ??Subroutine6_0 & 0xFFFF
//   68   SCL=0;
//   69  
//   70 }
??CrossCallReturnLabel_6:
        SJMP    ?Subroutine0
        CFI EndBlock cfiBlock2
        REQUIRE P0DIR
        REQUIRE _A_P0
//   71  
//   72 /****************
//   73 *   Õ£÷π∫Ø ˝
//   74 ****************/

        RSEG BANKED_CODE:CODE:NOROOT(0)
//   75 static void stop_i2c(void)
stop_i2c:
        CFI Block cfiBlock3 Using cfiCommon0
        CFI Function stop_i2c
        CODE
//   76 {
        FUNCALL stop_i2c, delay_nus
        LOCFRAME ISTACK, 2, STACK
        LOCFRAME PSTACK, 0, STACK
        LOCFRAME XSTACK, 0, STACK
        LOCFRAME IOVERLAY, 0, STATIC
        LOCFRAME DOVERLAY, 0, STATIC
        ARGFRAME ISTACK, 2, STACK
        ARGFRAME PSTACK, 0, STACK
        ARGFRAME XSTACK, 0, STACK
        ARGFRAME IOVERLAY, 0, STATIC
        ARGFRAME DOVERLAY, 0, STATIC
        FUNCALL stop_i2c, delay_nus
        LOCFRAME ISTACK, 2, STACK
        LOCFRAME PSTACK, 0, STACK
        LOCFRAME XSTACK, 0, STACK
        LOCFRAME IOVERLAY, 0, STATIC
        LOCFRAME DOVERLAY, 0, STATIC
        ARGFRAME ISTACK, 2, STACK
        ARGFRAME PSTACK, 0, STACK
        ARGFRAME XSTACK, 0, STACK
        ARGFRAME IOVERLAY, 0, STATIC
        ARGFRAME DOVERLAY, 0, STATIC
        FUNCALL stop_i2c, delay_nus
        LOCFRAME ISTACK, 2, STACK
        LOCFRAME PSTACK, 0, STACK
        LOCFRAME XSTACK, 0, STACK
        LOCFRAME IOVERLAY, 0, STATIC
        LOCFRAME DOVERLAY, 0, STATIC
        ARGFRAME ISTACK, 2, STACK
        ARGFRAME PSTACK, 0, STACK
        ARGFRAME XSTACK, 0, STACK
        ARGFRAME IOVERLAY, 0, STATIC
        ARGFRAME DOVERLAY, 0, STATIC
        PUSH    DPL
        CFI DPL0 Frame(CFA_SP, 4)
        CFI CFA_SP SP+-4
        PUSH    DPH
        CFI DPH0 Frame(CFA_SP, 5)
        CFI CFA_SP SP+-5
        ; Saved register size: 2
        ; Auto size: 0
//   77  
//   78   set_sda_out() ;
        ORL     0xfd,#0x10
//   79   SDA=0;
        CLR     0x80.4
//   80   delay_nus();
        ; Setup parameters for call to function delay_nus
        LCALL   ??delay_nus?relay
//   81   SCL=1;
        SETB    0x80.5
//   82   delay_nus();
        ; Setup parameters for call to function delay_nus
        LCALL   ??delay_nus?relay
//   83   SDA=1;;
        SETB    0x80.4
//   84   delay_nus(); 
        ; Setup parameters for call to function delay_nus
        LCALL   ??delay_nus?relay
        CFI EndBlock cfiBlock3
//   85  
//   86 }
        REQUIRE ?Subroutine0
        REQUIRE P0DIR
        REQUIRE _A_P0
        ; // Fall through to label ?Subroutine0

        RSEG BANKED_CODE:CODE:NOROOT(0)
?Subroutine0:
        CFI Block cfiBlock4 Using cfiCommon0
        CFI NoFunction
        CFI CFA_SP SP+-5
        CFI DPL0 Frame(CFA_SP, 4)
        CFI DPH0 Frame(CFA_SP, 5)
        POP     DPH
        CFI CFA_SP SP+-4
        CFI DPH0 SameValue
        POP     DPL
        CFI CFA_SP SP+-3
        CFI DPL0 SameValue
        LJMP    ?BRET
        CFI EndBlock cfiBlock4
//   87  
//   88 /*********************
//   89 *  ¥”ª˙”¶¥ 1£∫≤ª”¶¥
//   90 *           0£∫”¶¥
//   91 **********************/

        RSEG BANKED_CODE:CODE:NOROOT(0)
//   92 uchar IIC_SalveCK(void)
IIC_SalveCK:
        CFI Block cfiBlock5 Using cfiCommon0
        CFI Function IIC_SalveCK
        CODE
//   93 {
        FUNCALL IIC_SalveCK, delay_nus
        LOCFRAME ISTACK, 0, STACK
        LOCFRAME PSTACK, 0, STACK
        LOCFRAME XSTACK, 9, STACK
        LOCFRAME IOVERLAY, 0, STATIC
        LOCFRAME DOVERLAY, 0, STATIC
        ARGFRAME ISTACK, 0, STACK
        ARGFRAME PSTACK, 0, STACK
        ARGFRAME XSTACK, 9, STACK
        ARGFRAME IOVERLAY, 0, STATIC
        ARGFRAME DOVERLAY, 0, STATIC
        FUNCALL IIC_SalveCK, delay_nus
        LOCFRAME ISTACK, 0, STACK
        LOCFRAME PSTACK, 0, STACK
        LOCFRAME XSTACK, 9, STACK
        LOCFRAME IOVERLAY, 0, STATIC
        LOCFRAME DOVERLAY, 0, STATIC
        ARGFRAME ISTACK, 0, STACK
        ARGFRAME PSTACK, 0, STACK
        ARGFRAME XSTACK, 9, STACK
        ARGFRAME IOVERLAY, 0, STATIC
        ARGFRAME DOVERLAY, 0, STATIC
        MOV     A,#-0x9
        LCALL   ?BANKED_ENTER_XDATA
        CFI DPH0 load(1, XDATA, add(CFA_XSP16, literal(-1)))
        CFI DPL0 load(1, XDATA, add(CFA_XSP16, literal(-2)))
        CFI ?BRET_EXT load(1, XDATA, add(CFA_XSP16, literal(-3)))
        CFI ?RET_HIGH load(1, XDATA, add(CFA_XSP16, literal(-4)))
        CFI ?RET_LOW load(1, XDATA, add(CFA_XSP16, literal(-5)))
        CFI R7 load(1, XDATA, add(CFA_XSP16, literal(-6)))
        CFI V0 load(1, XDATA, add(CFA_XSP16, literal(-7)))
        CFI VB load(1, XDATA, add(CFA_XSP16, literal(-8)))
        CFI R6 load(1, XDATA, add(CFA_XSP16, literal(-9)))
        CFI CFA_SP SP+0
        CFI CFA_XSP16 add(XSP16, 9)
        ; Saved register size: 9
        ; Auto size: 0
//   94  
//   95    uchar error;
//   96    set_sda_in();
        ANL     0xfd,#0xef
//   97    SCL=1;
        SETB    0x80.5
//   98    delay_nus();
        ; Setup parameters for call to function delay_nus
        LCALL   ??delay_nus?relay
//   99    if(SDA==1)
        MOV     A,0x80
        LCALL   ?Subroutine4 & 0xFFFF
//  100        error=1;
//  101    else
//  102        error=0;
//  103    delay_nus();
//  104    SCL=0 ;
//  105    return error;
??CrossCallReturnLabel_4:
        MOV     A,R6
        MOV     C,0xE0 /* A   */.4
        CLR     A
        RLC     A
        CFI EndBlock cfiBlock5
        REQUIRE ?Subroutine1
        REQUIRE P0DIR
        REQUIRE _A_P0
        ; // Fall through to label ?Subroutine1
//  106  
//  107 }

        RSEG BANKED_CODE:CODE:NOROOT(0)
?Subroutine1:
        CFI Block cfiBlock6 Using cfiCommon0
        CFI NoFunction
        CFI CFA_SP SP+0
        CFI CFA_XSP16 add(XSP16, 9)
        CFI VB load(1, XDATA, add(CFA_XSP16, literal(-8)))
        CFI DPL0 load(1, XDATA, add(CFA_XSP16, literal(-2)))
        CFI DPH0 load(1, XDATA, add(CFA_XSP16, literal(-1)))
        CFI R6 load(1, XDATA, add(CFA_XSP16, literal(-9)))
        CFI R7 load(1, XDATA, add(CFA_XSP16, literal(-6)))
        CFI V0 load(1, XDATA, add(CFA_XSP16, literal(-7)))
        CFI ?BRET_EXT load(1, XDATA, add(CFA_XSP16, literal(-3)))
        CFI ?RET_HIGH load(1, XDATA, add(CFA_XSP16, literal(-4)))
        CFI ?RET_LOW load(1, XDATA, add(CFA_XSP16, literal(-5)))
        MOV     R1,A
        CFI EndBlock cfiBlock6
        REQUIRE ??Subroutine5_0
        ; // Fall through to label ??Subroutine5_0

        RSEG BANKED_CODE:CODE:NOROOT(0)
??Subroutine5_0:
        CFI Block cfiBlock7 Using cfiCommon0
        CFI NoFunction
        CFI CFA_SP SP+0
        CFI CFA_XSP16 add(XSP16, 9)
        CFI VB load(1, XDATA, add(CFA_XSP16, literal(-8)))
        CFI DPL0 load(1, XDATA, add(CFA_XSP16, literal(-2)))
        CFI DPH0 load(1, XDATA, add(CFA_XSP16, literal(-1)))
        CFI R6 load(1, XDATA, add(CFA_XSP16, literal(-9)))
        CFI R7 load(1, XDATA, add(CFA_XSP16, literal(-6)))
        CFI V0 load(1, XDATA, add(CFA_XSP16, literal(-7)))
        CFI ?BRET_EXT load(1, XDATA, add(CFA_XSP16, literal(-3)))
        CFI ?RET_HIGH load(1, XDATA, add(CFA_XSP16, literal(-4)))
        CFI ?RET_LOW load(1, XDATA, add(CFA_XSP16, literal(-5)))
        MOV     R7,#0x1
        LJMP    ?BANKED_LEAVE_XDATA
        CFI EndBlock cfiBlock7

        RSEG BANKED_CODE:CODE:NOROOT(0)
?Subroutine4:
        CFI Block cfiCond8 Using cfiCommon0
        CFI NoFunction
        CFI Conditional ??CrossCallReturnLabel_4
        CFI R6 load(1, XDATA, add(CFA_XSP16, literal(-9)))
        CFI VB load(1, XDATA, add(CFA_XSP16, literal(-8)))
        CFI V0 load(1, XDATA, add(CFA_XSP16, literal(-7)))
        CFI R7 load(1, XDATA, add(CFA_XSP16, literal(-6)))
        CFI ?RET_LOW load(1, XDATA, add(CFA_XSP16, literal(-5)))
        CFI ?RET_HIGH load(1, XDATA, add(CFA_XSP16, literal(-4)))
        CFI ?BRET_EXT load(1, XDATA, add(CFA_XSP16, literal(-3)))
        CFI DPL0 load(1, XDATA, add(CFA_XSP16, literal(-2)))
        CFI DPH0 load(1, XDATA, add(CFA_XSP16, literal(-1)))
        CFI CFA_SP SP+0
        CFI CFA_XSP16 add(XSP16, 9)
        CFI Block cfiCond9 Using cfiCommon0
        CFI (cfiCond9) NoFunction
        CFI (cfiCond9) Conditional ??CrossCallReturnLabel_5
        CFI (cfiCond9) R6 load(1, XDATA, add(CFA_XSP16, literal(-9)))
        CFI (cfiCond9) VB load(1, XDATA, add(CFA_XSP16, literal(-8)))
        CFI (cfiCond9) V0 load(1, XDATA, add(CFA_XSP16, literal(-7)))
        CFI (cfiCond9) R7 load(1, XDATA, add(CFA_XSP16, literal(-6)))
        CFI (cfiCond9) ?RET_LOW load(1, XDATA, add(CFA_XSP16, literal(-5)))
        CFI (cfiCond9) ?RET_HIGH load(1, XDATA, add(CFA_XSP16, literal(-4)))
        CFI (cfiCond9) ?BRET_EXT load(1, XDATA, add(CFA_XSP16, literal(-3)))
        CFI (cfiCond9) DPL0 load(1, XDATA, add(CFA_XSP16, literal(-2)))
        CFI (cfiCond9) DPH0 load(1, XDATA, add(CFA_XSP16, literal(-1)))
        CFI (cfiCond9) CFA_SP SP+0
        CFI (cfiCond9) CFA_XSP16 add(XSP16, 9)
        CFI Block cfiPicker10 Using cfiCommon1
        CFI (cfiPicker10) NoFunction
        CFI (cfiPicker10) Picker
        MOV     R6,A
        CFI EndBlock cfiCond8
        CFI EndBlock cfiCond9
        CFI EndBlock cfiPicker10
        ; Setup parameters for call to function delay_nus
        ; Setup parameters for call to function delay_nus
        REQUIRE ??Subroutine6_0
        ; // Fall through to label ??Subroutine6_0

        RSEG BANKED_CODE:CODE:NOROOT(0)
??Subroutine6_0:
        CFI Block cfiCond11 Using cfiCommon0
        CFI NoFunction
        CFI Conditional ??CrossCallReturnLabel_6
        CFI DPL0 Frame(CFA_SP, 4)
        CFI DPH0 Frame(CFA_SP, 5)
        CFI CFA_SP SP+-5
        CFI Block cfiCond12 Using cfiCommon0
        CFI (cfiCond12) NoFunction
        CFI (cfiCond12) Conditional ??CrossCallReturnLabel_7, ??CrossCallReturnLabel_0
        CFI (cfiCond12) R6 load(1, XDATA, add(CFA_XSP16, literal(-9)))
        CFI (cfiCond12) VB load(1, XDATA, add(CFA_XSP16, literal(-8)))
        CFI (cfiCond12) V0 load(1, XDATA, add(CFA_XSP16, literal(-7)))
        CFI (cfiCond12) R7 load(1, XDATA, add(CFA_XSP16, literal(-6)))
        CFI (cfiCond12) ?RET_LOW load(1, XDATA, add(CFA_XSP16, literal(-5)))
        CFI (cfiCond12) ?RET_HIGH load(1, XDATA, add(CFA_XSP16, literal(-4)))
        CFI (cfiCond12) ?BRET_EXT load(1, XDATA, add(CFA_XSP16, literal(-3)))
        CFI (cfiCond12) DPL0 load(1, XDATA, add(CFA_XSP16, literal(-2)))
        CFI (cfiCond12) DPH0 load(1, XDATA, add(CFA_XSP16, literal(-1)))
        CFI (cfiCond12) CFA_SP SP+0
        CFI (cfiCond12) CFA_XSP16 add(XSP16, 9)
        CFI Block cfiCond13 Using cfiCommon0
        CFI (cfiCond13) NoFunction
        CFI (cfiCond13) Conditional ??CrossCallReturnLabel_7, ??CrossCallReturnLabel_1
        CFI (cfiCond13) DPL0 Frame(CFA_SP, 4)
        CFI (cfiCond13) DPH0 Frame(CFA_SP, 5)
        CFI (cfiCond13) CFA_SP SP+-5
        CFI Block cfiCond14 Using cfiCommon0
        CFI (cfiCond14) NoFunction
        CFI (cfiCond14) Conditional ??CrossCallReturnLabel_4
        CFI (cfiCond14) R6 load(1, XDATA, add(CFA_XSP16, literal(-9)))
        CFI (cfiCond14) VB load(1, XDATA, add(CFA_XSP16, literal(-8)))
        CFI (cfiCond14) V0 load(1, XDATA, add(CFA_XSP16, literal(-7)))
        CFI (cfiCond14) R7 load(1, XDATA, add(CFA_XSP16, literal(-6)))
        CFI (cfiCond14) ?RET_LOW load(1, XDATA, add(CFA_XSP16, literal(-5)))
        CFI (cfiCond14) ?RET_HIGH load(1, XDATA, add(CFA_XSP16, literal(-4)))
        CFI (cfiCond14) ?BRET_EXT load(1, XDATA, add(CFA_XSP16, literal(-3)))
        CFI (cfiCond14) DPL0 load(1, XDATA, add(CFA_XSP16, literal(-2)))
        CFI (cfiCond14) DPH0 load(1, XDATA, add(CFA_XSP16, literal(-1)))
        CFI (cfiCond14) CFA_SP SP+0
        CFI (cfiCond14) CFA_XSP16 add(XSP16, 9)
        CFI Block cfiCond15 Using cfiCommon0
        CFI (cfiCond15) NoFunction
        CFI (cfiCond15) Conditional ??CrossCallReturnLabel_5
        CFI (cfiCond15) R6 load(1, XDATA, add(CFA_XSP16, literal(-9)))
        CFI (cfiCond15) VB load(1, XDATA, add(CFA_XSP16, literal(-8)))
        CFI (cfiCond15) V0 load(1, XDATA, add(CFA_XSP16, literal(-7)))
        CFI (cfiCond15) R7 load(1, XDATA, add(CFA_XSP16, literal(-6)))
        CFI (cfiCond15) ?RET_LOW load(1, XDATA, add(CFA_XSP16, literal(-5)))
        CFI (cfiCond15) ?RET_HIGH load(1, XDATA, add(CFA_XSP16, literal(-4)))
        CFI (cfiCond15) ?BRET_EXT load(1, XDATA, add(CFA_XSP16, literal(-3)))
        CFI (cfiCond15) DPL0 load(1, XDATA, add(CFA_XSP16, literal(-2)))
        CFI (cfiCond15) DPH0 load(1, XDATA, add(CFA_XSP16, literal(-1)))
        CFI (cfiCond15) CFA_SP SP+0
        CFI (cfiCond15) CFA_XSP16 add(XSP16, 9)
        CFI Block cfiPicker16 Using cfiCommon1
        CFI (cfiPicker16) NoFunction
        CFI (cfiPicker16) Picker
        LCALL   ??delay_nus?relay
        CLR     0x80.5
        RET
        CFI EndBlock cfiCond11
        CFI EndBlock cfiCond12
        CFI EndBlock cfiCond13
        CFI EndBlock cfiCond14
        CFI EndBlock cfiCond15
        CFI EndBlock cfiPicker16
//  108  
//  109 /************************
//  110 * ÷˜ª˙œÚ¥”ª˙–¥ ˝æ› 
//  111 *  val£∫“™–¥µƒ ˝æ›         
//  112 ************************/

        RSEG BANKED_CODE:CODE:NOROOT(0)
//  113 static void i2c_send(uchar val)                 
i2c_send:
        CFI Block cfiBlock17 Using cfiCommon0
        CFI Function i2c_send
        CODE
//  114 {
        FUNCALL i2c_send, delay_nus
        LOCFRAME ISTACK, 0, STACK
        LOCFRAME PSTACK, 0, STACK
        LOCFRAME XSTACK, 9, STACK
        LOCFRAME IOVERLAY, 0, STATIC
        LOCFRAME DOVERLAY, 0, STATIC
        ARGFRAME ISTACK, 0, STACK
        ARGFRAME PSTACK, 0, STACK
        ARGFRAME XSTACK, 9, STACK
        ARGFRAME IOVERLAY, 0, STATIC
        ARGFRAME DOVERLAY, 0, STATIC
        FUNCALL i2c_send, delay_nus
        LOCFRAME ISTACK, 0, STACK
        LOCFRAME PSTACK, 0, STACK
        LOCFRAME XSTACK, 9, STACK
        LOCFRAME IOVERLAY, 0, STATIC
        LOCFRAME DOVERLAY, 0, STATIC
        ARGFRAME ISTACK, 0, STACK
        ARGFRAME PSTACK, 0, STACK
        ARGFRAME XSTACK, 9, STACK
        ARGFRAME IOVERLAY, 0, STATIC
        ARGFRAME DOVERLAY, 0, STATIC
        FUNCALL i2c_send, delay_nus
        LOCFRAME ISTACK, 0, STACK
        LOCFRAME PSTACK, 0, STACK
        LOCFRAME XSTACK, 9, STACK
        LOCFRAME IOVERLAY, 0, STATIC
        LOCFRAME DOVERLAY, 0, STATIC
        ARGFRAME ISTACK, 0, STACK
        ARGFRAME PSTACK, 0, STACK
        ARGFRAME XSTACK, 9, STACK
        ARGFRAME IOVERLAY, 0, STATIC
        ARGFRAME DOVERLAY, 0, STATIC
        FUNCALL i2c_send, IIC_SalveCK
        LOCFRAME ISTACK, 0, STACK
        LOCFRAME PSTACK, 0, STACK
        LOCFRAME XSTACK, 9, STACK
        LOCFRAME IOVERLAY, 0, STATIC
        LOCFRAME DOVERLAY, 0, STATIC
        ARGFRAME ISTACK, 0, STACK
        ARGFRAME PSTACK, 0, STACK
        ARGFRAME XSTACK, 9, STACK
        ARGFRAME IOVERLAY, 0, STATIC
        ARGFRAME DOVERLAY, 0, STATIC
        MOV     A,#-0x9
        LCALL   ?BANKED_ENTER_XDATA
        CFI DPH0 load(1, XDATA, add(CFA_XSP16, literal(-1)))
        CFI DPL0 load(1, XDATA, add(CFA_XSP16, literal(-2)))
        CFI ?BRET_EXT load(1, XDATA, add(CFA_XSP16, literal(-3)))
        CFI ?RET_HIGH load(1, XDATA, add(CFA_XSP16, literal(-4)))
        CFI ?RET_LOW load(1, XDATA, add(CFA_XSP16, literal(-5)))
        CFI R7 load(1, XDATA, add(CFA_XSP16, literal(-6)))
        CFI V0 load(1, XDATA, add(CFA_XSP16, literal(-7)))
        CFI VB load(1, XDATA, add(CFA_XSP16, literal(-8)))
        CFI R6 load(1, XDATA, add(CFA_XSP16, literal(-9)))
        CFI CFA_SP SP+0
        CFI CFA_XSP16 add(XSP16, 9)
        ; Saved register size: 9
        ; Auto size: 0
        MOV     A,R1
        MOV     R7,A
//  115  
//  116         int i;
//  117         set_sda_out();
        ORL     0xfd,#0x10
//  118         for(i=0;i<8;i++)
        MOV     R6,#0x8
//  119 {
//  120  
//  121   if(val&0x80)
??i2c_send_0:
        MOV     A,R7
        MOV     C,0xE0 /* A   */.7
        JNC     ??i2c_send_1
//  122    SDA=1;
        SETB    0x80.4
        SJMP    ??i2c_send_2
//  123   else
//  124      SDA=0;
??i2c_send_1:
        CLR     0x80.4
//  125    val<<=1;
??i2c_send_2:
        CLR     C
        RLC     A
        MOV     R7,A
//  126    delay_nus();
        ; Setup parameters for call to function delay_nus
        LCALL   ?Subroutine2 & 0xFFFF
//  127    SCL=1; ; 
//  128    delay_nus();
//  129    SCL=0;;
//  130    delay_nus();
??CrossCallReturnLabel_0:
        ; Setup parameters for call to function delay_nus
        LCALL   ??delay_nus?relay
//  131  
//  132 }
        DEC     R6
        MOV     A,R6
        JNZ     ??i2c_send_0
//  133         IIC_SalveCK();      
        ; Setup parameters for call to function IIC_SalveCK
        LCALL   ??IIC_SalveCK?relay
//  134  
//  135 }
        SJMP    ??Subroutine5_0
        CFI EndBlock cfiBlock17
        REQUIRE P0DIR
        REQUIRE _A_P0
//  136  
//  137 /*********************
//  138 *  ÷˜ª˙”¶¥ 1£∫”¶¥
//  139 *           0£∫≤ª”¶¥
//  140 **********************/

        RSEG BANKED_CODE:CODE:NOROOT(0)
//  141 void IIC_MasterACK(uint ack)
IIC_MasterACK:
        CFI Block cfiBlock18 Using cfiCommon0
        CFI Function IIC_MasterACK
        CODE
//  142 {
        FUNCALL IIC_MasterACK, delay_nus
        LOCFRAME ISTACK, 2, STACK
        LOCFRAME PSTACK, 0, STACK
        LOCFRAME XSTACK, 0, STACK
        LOCFRAME IOVERLAY, 0, STATIC
        LOCFRAME DOVERLAY, 0, STATIC
        ARGFRAME ISTACK, 2, STACK
        ARGFRAME PSTACK, 0, STACK
        ARGFRAME XSTACK, 0, STACK
        ARGFRAME IOVERLAY, 0, STATIC
        ARGFRAME DOVERLAY, 0, STATIC
        FUNCALL IIC_MasterACK, delay_nus
        LOCFRAME ISTACK, 2, STACK
        LOCFRAME PSTACK, 0, STACK
        LOCFRAME XSTACK, 0, STACK
        LOCFRAME IOVERLAY, 0, STATIC
        LOCFRAME DOVERLAY, 0, STATIC
        ARGFRAME ISTACK, 2, STACK
        ARGFRAME PSTACK, 0, STACK
        ARGFRAME XSTACK, 0, STACK
        ARGFRAME IOVERLAY, 0, STATIC
        ARGFRAME DOVERLAY, 0, STATIC
        PUSH    DPL
        CFI DPL0 Frame(CFA_SP, 4)
        CFI CFA_SP SP+-4
        PUSH    DPH
        CFI DPH0 Frame(CFA_SP, 5)
        CFI CFA_SP SP+-5
        ; Saved register size: 2
        ; Auto size: 0
//  143  
//  144     set_sda_out();
        ORL     0xfd,#0x10
//  145     if(ack)
        MOV     A,R2
        ORL     A,R3
        JZ      ??IIC_MasterACK_0
//  146          SDA=0;
        CLR     0x80.4
        SJMP    ??IIC_MasterACK_1
//  147      else
//  148          SDA=1;
??IIC_MasterACK_0:
        SETB    0x80.4
//  149     delay_nus();
??IIC_MasterACK_1:
        ; Setup parameters for call to function delay_nus
        LCALL   ?Subroutine2 & 0xFFFF
//  150     SCL=1;
//  151     delay_nus();
//  152     SCL=0;
//  153     SDA=1;
??CrossCallReturnLabel_1:
        SETB    0x80.4
//  154  
//  155 }
        SJMP    ?Subroutine0
        CFI EndBlock cfiBlock18
        REQUIRE P0DIR
        REQUIRE _A_P0

        RSEG BANKED_CODE:CODE:NOROOT(0)
?Subroutine2:
        CFI Block cfiCond19 Using cfiCommon0
        CFI NoFunction
        CFI Conditional ??CrossCallReturnLabel_0
        CFI R6 load(1, XDATA, add(CFA_XSP16, literal(-9)))
        CFI VB load(1, XDATA, add(CFA_XSP16, literal(-8)))
        CFI V0 load(1, XDATA, add(CFA_XSP16, literal(-7)))
        CFI R7 load(1, XDATA, add(CFA_XSP16, literal(-6)))
        CFI ?RET_LOW load(1, XDATA, add(CFA_XSP16, literal(-5)))
        CFI ?RET_HIGH load(1, XDATA, add(CFA_XSP16, literal(-4)))
        CFI ?BRET_EXT load(1, XDATA, add(CFA_XSP16, literal(-3)))
        CFI DPL0 load(1, XDATA, add(CFA_XSP16, literal(-2)))
        CFI DPH0 load(1, XDATA, add(CFA_XSP16, literal(-1)))
        CFI CFA_SP SP+0
        CFI CFA_XSP16 add(XSP16, 9)
        CFI Block cfiCond20 Using cfiCommon0
        CFI (cfiCond20) NoFunction
        CFI (cfiCond20) Conditional ??CrossCallReturnLabel_1
        CFI (cfiCond20) DPL0 Frame(CFA_SP, 4)
        CFI (cfiCond20) DPH0 Frame(CFA_SP, 5)
        CFI (cfiCond20) CFA_SP SP+-5
        CFI Block cfiPicker21 Using cfiCommon1
        CFI (cfiPicker21) NoFunction
        CFI (cfiPicker21) Picker
        LCALL   ??delay_nus?relay
        SETB    0x80.5
        ; Setup parameters for call to function delay_nus
        ; Setup parameters for call to function delay_nus
        LCALL   ??Subroutine6_0 & 0xFFFF
??CrossCallReturnLabel_7:
        RET
        CFI EndBlock cfiCond19
        CFI EndBlock cfiCond20
        CFI EndBlock cfiPicker21
//  156  
//  157 /*************************
//  158 *  ÷˜ª˙∂¡»°¥”ª˙∑¢¿¥µƒ ˝æ› 
//  159 *     val£∫∂¡»°µΩµƒ÷µ 
//  160 ************************/

        RSEG BANKED_CODE:CODE:NOROOT(0)
//  161 static char i2c_read()
i2c_read:
        CFI Block cfiBlock22 Using cfiCommon0
        CFI Function i2c_read
        CODE
//  162 {
        FUNCALL i2c_read, delay_nus
        LOCFRAME ISTACK, 0, STACK
        LOCFRAME PSTACK, 0, STACK
        LOCFRAME XSTACK, 9, STACK
        LOCFRAME IOVERLAY, 0, STATIC
        LOCFRAME DOVERLAY, 0, STATIC
        ARGFRAME ISTACK, 0, STACK
        ARGFRAME PSTACK, 0, STACK
        ARGFRAME XSTACK, 9, STACK
        ARGFRAME IOVERLAY, 0, STATIC
        ARGFRAME DOVERLAY, 0, STATIC
        FUNCALL i2c_read, delay_nus
        LOCFRAME ISTACK, 0, STACK
        LOCFRAME PSTACK, 0, STACK
        LOCFRAME XSTACK, 9, STACK
        LOCFRAME IOVERLAY, 0, STATIC
        LOCFRAME DOVERLAY, 0, STATIC
        ARGFRAME ISTACK, 0, STACK
        ARGFRAME PSTACK, 0, STACK
        ARGFRAME XSTACK, 9, STACK
        ARGFRAME IOVERLAY, 0, STATIC
        ARGFRAME DOVERLAY, 0, STATIC
        FUNCALL i2c_read, delay_nus
        LOCFRAME ISTACK, 0, STACK
        LOCFRAME PSTACK, 0, STACK
        LOCFRAME XSTACK, 9, STACK
        LOCFRAME IOVERLAY, 0, STATIC
        LOCFRAME DOVERLAY, 0, STATIC
        ARGFRAME ISTACK, 0, STACK
        ARGFRAME PSTACK, 0, STACK
        ARGFRAME XSTACK, 9, STACK
        ARGFRAME IOVERLAY, 0, STATIC
        ARGFRAME DOVERLAY, 0, STATIC
        MOV     A,#-0x9
        LCALL   ?BANKED_ENTER_XDATA
        CFI DPH0 load(1, XDATA, add(CFA_XSP16, literal(-1)))
        CFI DPL0 load(1, XDATA, add(CFA_XSP16, literal(-2)))
        CFI ?BRET_EXT load(1, XDATA, add(CFA_XSP16, literal(-3)))
        CFI ?RET_HIGH load(1, XDATA, add(CFA_XSP16, literal(-4)))
        CFI ?RET_LOW load(1, XDATA, add(CFA_XSP16, literal(-5)))
        CFI R7 load(1, XDATA, add(CFA_XSP16, literal(-6)))
        CFI V0 load(1, XDATA, add(CFA_XSP16, literal(-7)))
        CFI VB load(1, XDATA, add(CFA_XSP16, literal(-8)))
        CFI R6 load(1, XDATA, add(CFA_XSP16, literal(-9)))
        CFI CFA_SP SP+0
        CFI CFA_XSP16 add(XSP16, 9)
        ; Saved register size: 9
        ; Auto size: 0
//  163         int i;
//  164         char val=0;
        MOV     R6,#0x0
//  165         SDA=1;
        SETB    0x80.4
//  166         set_sda_in();
        ANL     0xfd,#0xef
//  167         for(i=0;i<8;i++)
        MOV     R7,#0x8
//  168         {
//  169           val<<=1;
//  170           SCL=1;
??i2c_read_0:
        SETB    0x80.5
//  171           delay_nus();
        ; Setup parameters for call to function delay_nus
        LCALL   ??delay_nus?relay
//  172           val |=SDA;
        MOV     C,0x80.4
        CLR     A
        RLC     A
        MOV     R0,A
        MOV     A,R6
        RLC     A
        ORL     A,R0
        LCALL   ?Subroutine4 & 0xFFFF
//  173           delay_nus();
//  174           SCL=0;
//  175           delay_nus();                                       
??CrossCallReturnLabel_5:
        ; Setup parameters for call to function delay_nus
        LCALL   ??delay_nus?relay
//  176         }
        DEC     R7
        MOV     A,R7
        JNZ     ??i2c_read_0
//  177         return val;
        MOV     A,R6
        LJMP    ?Subroutine1 & 0xFFFF
        CFI EndBlock cfiBlock22
        REQUIRE _A_P0
        REQUIRE P0DIR
//  178          
//  179  
//  180 }
//  181  
//  182 /*************************
//  183 *  ∂¡»°¥´∏–∆˜µƒ ˝æ› 
//  184 *    t:π‚∏– ˝÷µ
//  185 ************************/

        RSEG BANKED_CODE:CODE:NOROOT(0)
//  186 unsigned short get_light(void)
get_light:
        CFI Block cfiBlock23 Using cfiCommon0
        CFI Function get_light
        CODE
//  187 {
        FUNCALL get_light, start_i2c
        LOCFRAME ISTACK, 0, STACK
        LOCFRAME PSTACK, 0, STACK
        LOCFRAME XSTACK, 10, STACK
        LOCFRAME IOVERLAY, 0, STATIC
        LOCFRAME DOVERLAY, 0, STATIC
        ARGFRAME ISTACK, 0, STACK
        ARGFRAME PSTACK, 0, STACK
        ARGFRAME XSTACK, 10, STACK
        ARGFRAME IOVERLAY, 0, STATIC
        ARGFRAME DOVERLAY, 0, STATIC
        FUNCALL get_light, i2c_send
        LOCFRAME ISTACK, 0, STACK
        LOCFRAME PSTACK, 0, STACK
        LOCFRAME XSTACK, 10, STACK
        LOCFRAME IOVERLAY, 0, STATIC
        LOCFRAME DOVERLAY, 0, STATIC
        ARGFRAME ISTACK, 0, STACK
        ARGFRAME PSTACK, 0, STACK
        ARGFRAME XSTACK, 10, STACK
        ARGFRAME IOVERLAY, 0, STATIC
        ARGFRAME DOVERLAY, 0, STATIC
        FUNCALL get_light, i2c_send
        LOCFRAME ISTACK, 0, STACK
        LOCFRAME PSTACK, 0, STACK
        LOCFRAME XSTACK, 10, STACK
        LOCFRAME IOVERLAY, 0, STATIC
        LOCFRAME DOVERLAY, 0, STATIC
        ARGFRAME ISTACK, 0, STACK
        ARGFRAME PSTACK, 0, STACK
        ARGFRAME XSTACK, 10, STACK
        ARGFRAME IOVERLAY, 0, STATIC
        ARGFRAME DOVERLAY, 0, STATIC
        FUNCALL get_light, stop_i2c
        LOCFRAME ISTACK, 0, STACK
        LOCFRAME PSTACK, 0, STACK
        LOCFRAME XSTACK, 10, STACK
        LOCFRAME IOVERLAY, 0, STATIC
        LOCFRAME DOVERLAY, 0, STATIC
        ARGFRAME ISTACK, 0, STACK
        ARGFRAME PSTACK, 0, STACK
        ARGFRAME XSTACK, 10, STACK
        ARGFRAME IOVERLAY, 0, STATIC
        ARGFRAME DOVERLAY, 0, STATIC
        FUNCALL get_light, start_i2c
        LOCFRAME ISTACK, 0, STACK
        LOCFRAME PSTACK, 0, STACK
        LOCFRAME XSTACK, 10, STACK
        LOCFRAME IOVERLAY, 0, STATIC
        LOCFRAME DOVERLAY, 0, STATIC
        ARGFRAME ISTACK, 0, STACK
        ARGFRAME PSTACK, 0, STACK
        ARGFRAME XSTACK, 10, STACK
        ARGFRAME IOVERLAY, 0, STATIC
        ARGFRAME DOVERLAY, 0, STATIC
        FUNCALL get_light, i2c_send
        LOCFRAME ISTACK, 0, STACK
        LOCFRAME PSTACK, 0, STACK
        LOCFRAME XSTACK, 10, STACK
        LOCFRAME IOVERLAY, 0, STATIC
        LOCFRAME DOVERLAY, 0, STATIC
        ARGFRAME ISTACK, 0, STACK
        ARGFRAME PSTACK, 0, STACK
        ARGFRAME XSTACK, 10, STACK
        ARGFRAME IOVERLAY, 0, STATIC
        ARGFRAME DOVERLAY, 0, STATIC
        FUNCALL get_light, i2c_send
        LOCFRAME ISTACK, 0, STACK
        LOCFRAME PSTACK, 0, STACK
        LOCFRAME XSTACK, 10, STACK
        LOCFRAME IOVERLAY, 0, STATIC
        LOCFRAME DOVERLAY, 0, STATIC
        ARGFRAME ISTACK, 0, STACK
        ARGFRAME PSTACK, 0, STACK
        ARGFRAME XSTACK, 10, STACK
        ARGFRAME IOVERLAY, 0, STATIC
        ARGFRAME DOVERLAY, 0, STATIC
        FUNCALL get_light, stop_i2c
        LOCFRAME ISTACK, 0, STACK
        LOCFRAME PSTACK, 0, STACK
        LOCFRAME XSTACK, 10, STACK
        LOCFRAME IOVERLAY, 0, STATIC
        LOCFRAME DOVERLAY, 0, STATIC
        ARGFRAME ISTACK, 0, STACK
        ARGFRAME PSTACK, 0, STACK
        ARGFRAME XSTACK, 10, STACK
        ARGFRAME IOVERLAY, 0, STATIC
        ARGFRAME DOVERLAY, 0, STATIC
        FUNCALL get_light, delay_nus
        LOCFRAME ISTACK, 0, STACK
        LOCFRAME PSTACK, 0, STACK
        LOCFRAME XSTACK, 10, STACK
        LOCFRAME IOVERLAY, 0, STATIC
        LOCFRAME DOVERLAY, 0, STATIC
        ARGFRAME ISTACK, 0, STACK
        ARGFRAME PSTACK, 0, STACK
        ARGFRAME XSTACK, 10, STACK
        ARGFRAME IOVERLAY, 0, STATIC
        ARGFRAME DOVERLAY, 0, STATIC
        FUNCALL get_light, start_i2c
        LOCFRAME ISTACK, 0, STACK
        LOCFRAME PSTACK, 0, STACK
        LOCFRAME XSTACK, 10, STACK
        LOCFRAME IOVERLAY, 0, STATIC
        LOCFRAME DOVERLAY, 0, STATIC
        ARGFRAME ISTACK, 0, STACK
        ARGFRAME PSTACK, 0, STACK
        ARGFRAME XSTACK, 10, STACK
        ARGFRAME IOVERLAY, 0, STATIC
        ARGFRAME DOVERLAY, 0, STATIC
        FUNCALL get_light, i2c_send
        LOCFRAME ISTACK, 0, STACK
        LOCFRAME PSTACK, 0, STACK
        LOCFRAME XSTACK, 10, STACK
        LOCFRAME IOVERLAY, 0, STATIC
        LOCFRAME DOVERLAY, 0, STATIC
        ARGFRAME ISTACK, 0, STACK
        ARGFRAME PSTACK, 0, STACK
        ARGFRAME XSTACK, 10, STACK
        ARGFRAME IOVERLAY, 0, STATIC
        ARGFRAME DOVERLAY, 0, STATIC
        FUNCALL get_light, i2c_read
        LOCFRAME ISTACK, 0, STACK
        LOCFRAME PSTACK, 0, STACK
        LOCFRAME XSTACK, 10, STACK
        LOCFRAME IOVERLAY, 0, STATIC
        LOCFRAME DOVERLAY, 0, STATIC
        ARGFRAME ISTACK, 0, STACK
        ARGFRAME PSTACK, 0, STACK
        ARGFRAME XSTACK, 10, STACK
        ARGFRAME IOVERLAY, 0, STATIC
        ARGFRAME DOVERLAY, 0, STATIC
        FUNCALL get_light, IIC_MasterACK
        LOCFRAME ISTACK, 0, STACK
        LOCFRAME PSTACK, 0, STACK
        LOCFRAME XSTACK, 10, STACK
        LOCFRAME IOVERLAY, 0, STATIC
        LOCFRAME DOVERLAY, 0, STATIC
        ARGFRAME ISTACK, 0, STACK
        ARGFRAME PSTACK, 0, STACK
        ARGFRAME XSTACK, 10, STACK
        ARGFRAME IOVERLAY, 0, STATIC
        ARGFRAME DOVERLAY, 0, STATIC
        FUNCALL get_light, i2c_read
        LOCFRAME ISTACK, 0, STACK
        LOCFRAME PSTACK, 0, STACK
        LOCFRAME XSTACK, 10, STACK
        LOCFRAME IOVERLAY, 0, STATIC
        LOCFRAME DOVERLAY, 0, STATIC
        ARGFRAME ISTACK, 0, STACK
        ARGFRAME PSTACK, 0, STACK
        ARGFRAME XSTACK, 10, STACK
        ARGFRAME IOVERLAY, 0, STATIC
        ARGFRAME DOVERLAY, 0, STATIC
        FUNCALL get_light, IIC_MasterACK
        LOCFRAME ISTACK, 0, STACK
        LOCFRAME PSTACK, 0, STACK
        LOCFRAME XSTACK, 10, STACK
        LOCFRAME IOVERLAY, 0, STATIC
        LOCFRAME DOVERLAY, 0, STATIC
        ARGFRAME ISTACK, 0, STACK
        ARGFRAME PSTACK, 0, STACK
        ARGFRAME XSTACK, 10, STACK
        ARGFRAME IOVERLAY, 0, STATIC
        ARGFRAME DOVERLAY, 0, STATIC
        FUNCALL get_light, stop_i2c
        LOCFRAME ISTACK, 0, STACK
        LOCFRAME PSTACK, 0, STACK
        LOCFRAME XSTACK, 10, STACK
        LOCFRAME IOVERLAY, 0, STATIC
        LOCFRAME DOVERLAY, 0, STATIC
        ARGFRAME ISTACK, 0, STACK
        ARGFRAME PSTACK, 0, STACK
        ARGFRAME XSTACK, 10, STACK
        ARGFRAME IOVERLAY, 0, STATIC
        ARGFRAME DOVERLAY, 0, STATIC
        MOV     A,#-0xa
        LCALL   ?BANKED_ENTER_XDATA
        CFI DPH0 load(1, XDATA, add(CFA_XSP16, literal(-1)))
        CFI DPL0 load(1, XDATA, add(CFA_XSP16, literal(-2)))
        CFI ?BRET_EXT load(1, XDATA, add(CFA_XSP16, literal(-3)))
        CFI ?RET_HIGH load(1, XDATA, add(CFA_XSP16, literal(-4)))
        CFI ?RET_LOW load(1, XDATA, add(CFA_XSP16, literal(-5)))
        CFI R7 load(1, XDATA, add(CFA_XSP16, literal(-6)))
        CFI V1 load(1, XDATA, add(CFA_XSP16, literal(-7)))
        CFI V0 load(1, XDATA, add(CFA_XSP16, literal(-8)))
        CFI VB load(1, XDATA, add(CFA_XSP16, literal(-9)))
        CFI R6 load(1, XDATA, add(CFA_XSP16, literal(-10)))
        CFI CFA_SP SP+0
        CFI CFA_XSP16 add(XSP16, 10)
        ; Saved register size: 10
        ; Auto size: 0
//  188   unsigned char t0;
//  189   unsigned char t1;
//  190   unsigned short t;
//  191   start_i2c();
        ; Setup parameters for call to function start_i2c
        LCALL   ?Subroutine3 & 0xFFFF
//  192   i2c_send(SlaveAddress);
//  193   i2c_send(PowerOn);
??CrossCallReturnLabel_2:
        ; Setup parameters for call to function i2c_send
        MOV     R1,#0x1
        LCALL   ??i2c_send?relay
//  194   stop_i2c();            
        ; Setup parameters for call to function stop_i2c
        LCALL   ??stop_i2c?relay
//  195   start_i2c();
        ; Setup parameters for call to function start_i2c
        LCALL   ?Subroutine3 & 0xFFFF
//  196   i2c_send(SlaveAddress);
//  197   i2c_send(ContinuHMode);
??CrossCallReturnLabel_3:
        ; Setup parameters for call to function i2c_send
        MOV     R1,#0x10
        LCALL   ??i2c_send?relay
//  198   stop_i2c();                     
        ; Setup parameters for call to function stop_i2c
        LCALL   ??stop_i2c?relay
//  199   delay_nms(1); 
        MOV     R6,#0x1
        MOV     R7,#0x0
??get_light_0:
        MOV     A,R6
        MOV     R0,A
        MOV     A,R7
        MOV     R1,A
        MOV     A,R0
        ADD     A,#-0x1
        DEC     R6
        MOV     A,R1
        ADDC    A,#-0x1
        MOV     R7,A
        MOV     A,R0
        ORL     A,R1
        JZ      ??get_light_1
        MOV     ?V0 + 0,#-0x38
??get_light_2:
        ; Setup parameters for call to function delay_nus
        LCALL   ??delay_nus?relay
        DEC     ?V0 + 0
        MOV     A,?V0 + 0
        JZ      ??get_light_0
        SJMP    ??get_light_2
//  200   start_i2c();
??get_light_1:
        ; Setup parameters for call to function start_i2c
        LCALL   ??start_i2c?relay
//  201   i2c_send(SlaveAddress+1);                     
        ; Setup parameters for call to function i2c_send
        MOV     R1,#0x47
        LCALL   ??i2c_send?relay
//  202   t0 = i2c_read();
        ; Setup parameters for call to function i2c_read
        LCALL   ??i2c_read?relay
        MOV     A,R1
        MOV     R6,A
//  203   IIC_MasterACK(1);
        ; Setup parameters for call to function IIC_MasterACK
        MOV     R2,#0x1
        MOV     R3,#0x0
        LCALL   ??IIC_MasterACK?relay
//  204   t1 = i2c_read();
        ; Setup parameters for call to function i2c_read
        LCALL   ??i2c_read?relay
        MOV     A,R1
        MOV     ?V0 + 0,A
//  205   IIC_MasterACK(0);
        ; Setup parameters for call to function IIC_MasterACK
        MOV     R2,#0x0
        MOV     R3,#0x0
        LCALL   ??IIC_MasterACK?relay
//  206   stop_i2c();
        ; Setup parameters for call to function stop_i2c
        LCALL   ??stop_i2c?relay
//  207   t =  ((short)t0)<<8;
//  208   t |= t1;
//  209   return t;
        MOV     A,R6
        MOV     R2,?V0 + 0
        MOV     R3,A
        MOV     R7,#0x2
        LJMP    ?BANKED_LEAVE_XDATA
        CFI EndBlock cfiBlock23
//  210 }

        RSEG BANKED_CODE:CODE:NOROOT(0)
?Subroutine3:
        CFI Block cfiCond24 Using cfiCommon0
        CFI NoFunction
        CFI Conditional ??CrossCallReturnLabel_2
        CFI R6 load(1, XDATA, add(CFA_XSP16, literal(-10)))
        CFI VB load(1, XDATA, add(CFA_XSP16, literal(-9)))
        CFI V0 load(1, XDATA, add(CFA_XSP16, literal(-8)))
        CFI V1 load(1, XDATA, add(CFA_XSP16, literal(-7)))
        CFI R7 load(1, XDATA, add(CFA_XSP16, literal(-6)))
        CFI ?RET_LOW load(1, XDATA, add(CFA_XSP16, literal(-5)))
        CFI ?RET_HIGH load(1, XDATA, add(CFA_XSP16, literal(-4)))
        CFI ?BRET_EXT load(1, XDATA, add(CFA_XSP16, literal(-3)))
        CFI DPL0 load(1, XDATA, add(CFA_XSP16, literal(-2)))
        CFI DPH0 load(1, XDATA, add(CFA_XSP16, literal(-1)))
        CFI CFA_SP SP+0
        CFI CFA_XSP16 add(XSP16, 10)
        CFI Block cfiCond25 Using cfiCommon0
        CFI (cfiCond25) NoFunction
        CFI (cfiCond25) Conditional ??CrossCallReturnLabel_3
        CFI (cfiCond25) R6 load(1, XDATA, add(CFA_XSP16, literal(-10)))
        CFI (cfiCond25) VB load(1, XDATA, add(CFA_XSP16, literal(-9)))
        CFI (cfiCond25) V0 load(1, XDATA, add(CFA_XSP16, literal(-8)))
        CFI (cfiCond25) V1 load(1, XDATA, add(CFA_XSP16, literal(-7)))
        CFI (cfiCond25) R7 load(1, XDATA, add(CFA_XSP16, literal(-6)))
        CFI (cfiCond25) ?RET_LOW load(1, XDATA, add(CFA_XSP16, literal(-5)))
        CFI (cfiCond25) ?RET_HIGH load(1, XDATA, add(CFA_XSP16, literal(-4)))
        CFI (cfiCond25) ?BRET_EXT load(1, XDATA, add(CFA_XSP16, literal(-3)))
        CFI (cfiCond25) DPL0 load(1, XDATA, add(CFA_XSP16, literal(-2)))
        CFI (cfiCond25) DPH0 load(1, XDATA, add(CFA_XSP16, literal(-1)))
        CFI (cfiCond25) CFA_SP SP+0
        CFI (cfiCond25) CFA_XSP16 add(XSP16, 10)
        CFI Block cfiPicker26 Using cfiCommon1
        CFI (cfiPicker26) NoFunction
        CFI (cfiPicker26) Picker
        LCALL   ??start_i2c?relay
        ; Setup parameters for call to function i2c_send
        ; Setup parameters for call to function i2c_send
        MOV     R1,#0x46
        LCALL   ??i2c_send?relay
        RET
        CFI EndBlock cfiCond24
        CFI EndBlock cfiCond25
        CFI EndBlock cfiPicker26
//  211  

        RSEG BANKED_CODE:CODE:NOROOT(0)
//  212 uint Light(void)
Light:
        CFI Block cfiBlock27 Using cfiCommon0
        CFI Function Light
        CODE
//  213 {
        FUNCALL Light, get_light
        LOCFRAME ISTACK, 0, STACK
        LOCFRAME PSTACK, 0, STACK
        LOCFRAME XSTACK, 16, STACK
        LOCFRAME IOVERLAY, 0, STATIC
        LOCFRAME DOVERLAY, 0, STATIC
        ARGFRAME ISTACK, 0, STACK
        ARGFRAME PSTACK, 0, STACK
        ARGFRAME XSTACK, 16, STACK
        ARGFRAME IOVERLAY, 0, STATIC
        ARGFRAME DOVERLAY, 0, STATIC
        MOV     A,#-0x10
        LCALL   ?BANKED_ENTER_XDATA
        CFI DPH0 load(1, XDATA, add(CFA_XSP16, literal(-1)))
        CFI DPL0 load(1, XDATA, add(CFA_XSP16, literal(-2)))
        CFI ?BRET_EXT load(1, XDATA, add(CFA_XSP16, literal(-3)))
        CFI ?RET_HIGH load(1, XDATA, add(CFA_XSP16, literal(-4)))
        CFI ?RET_LOW load(1, XDATA, add(CFA_XSP16, literal(-5)))
        CFI R7 load(1, XDATA, add(CFA_XSP16, literal(-6)))
        CFI V7 load(1, XDATA, add(CFA_XSP16, literal(-7)))
        CFI V6 load(1, XDATA, add(CFA_XSP16, literal(-8)))
        CFI V5 load(1, XDATA, add(CFA_XSP16, literal(-9)))
        CFI V4 load(1, XDATA, add(CFA_XSP16, literal(-10)))
        CFI V3 load(1, XDATA, add(CFA_XSP16, literal(-11)))
        CFI V2 load(1, XDATA, add(CFA_XSP16, literal(-12)))
        CFI V1 load(1, XDATA, add(CFA_XSP16, literal(-13)))
        CFI V0 load(1, XDATA, add(CFA_XSP16, literal(-14)))
        CFI VB load(1, XDATA, add(CFA_XSP16, literal(-15)))
        CFI R6 load(1, XDATA, add(CFA_XSP16, literal(-16)))
        CFI CFA_SP SP+0
        CFI CFA_XSP16 add(XSP16, 16)
        ; Saved register size: 16
        ; Auto size: 0
//  214  
//  215     uint w=0;
//  216     LIGHT_INIT();
        ANL     0xf3,#0xcf
        ORL     0xfd,#0x30
        SETB    0x80.5
        SETB    0x80.4
//  217     w = (uint)(get_light()/1.2);
//  218     uint lightData = w;  
//  219     return lightData;    
        ; Setup parameters for call to function get_light
        LCALL   ??get_light?relay
        MOV     ?V0 + 0,R2
        MOV     ?V0 + 1,R3
        CLR     A
        MOV     ?V0 + 2,A
        MOV     ?V0 + 3,A
        MOV     R0,#?V0 + 0
        LCALL   ?UL_TO_FLT
        MOV     DPTR,#__Constant_3f99999a
        MOV     R0,#?V0 + 4
        LCALL   ?L_MOV_X
        MOV     R0,#?V0 + 0
        MOV     R1,#?V0 + 4
        LCALL   ?FLT_DIV
        MOV     R0,#?V0 + 0
        LCALL   ?FLT_TO_L
        MOV     R2,?V0 + 0
        MOV     R3,?V0 + 1
        MOV     R7,#0x8
        LJMP    ?BANKED_LEAVE_XDATA
        CFI EndBlock cfiBlock27
        REQUIRE P0SEL
        REQUIRE P0DIR
        REQUIRE _A_P0
//  220  
//  221 }

        RSEG XDATA_ROM_C:CONST:REORDER:NOROOT(0)
        DATA32
__Constant_3f99999a:
        DD 3F99999AH

        RSEG BANK_RELAYS:CODE:REORDER:NOROOT(0)
??Delay_1us?relay:
        LCALL   ?BDISPATCH
        DATA
        DC24    Delay_1us

        RSEG BANK_RELAYS:CODE:REORDER:NOROOT(0)
??delay_nus?relay:
        LCALL   ?BDISPATCH
        DATA
        DC24    delay_nus

        RSEG BANK_RELAYS:CODE:REORDER:NOROOT(0)
??start_i2c?relay:
        LCALL   ?BDISPATCH
        DATA
        DC24    start_i2c

        RSEG BANK_RELAYS:CODE:REORDER:NOROOT(0)
??stop_i2c?relay:
        LCALL   ?BDISPATCH
        DATA
        DC24    stop_i2c

        RSEG BANK_RELAYS:CODE:REORDER:NOROOT(0)
??IIC_SalveCK?relay:
        LCALL   ?BDISPATCH
        DATA
        DC24    IIC_SalveCK

        RSEG BANK_RELAYS:CODE:REORDER:NOROOT(0)
??i2c_send?relay:
        LCALL   ?BDISPATCH
        DATA
        DC24    i2c_send

        RSEG BANK_RELAYS:CODE:REORDER:NOROOT(0)
??IIC_MasterACK?relay:
        LCALL   ?BDISPATCH
        DATA
        DC24    IIC_MasterACK

        RSEG BANK_RELAYS:CODE:REORDER:NOROOT(0)
??i2c_read?relay:
        LCALL   ?BDISPATCH
        DATA
        DC24    i2c_read

        RSEG BANK_RELAYS:CODE:REORDER:NOROOT(0)
??get_light?relay:
        LCALL   ?BDISPATCH
        DATA
        DC24    get_light

        RSEG BANK_RELAYS:CODE:REORDER:NOROOT(0)
??Light?relay:
        LCALL   ?BDISPATCH
        DATA
        DC24    Light

        END
// 
// 411 bytes in segment BANKED_CODE
//  60 bytes in segment BANK_RELAYS
//   3 bytes in segment SFR_AN
//   4 bytes in segment XDATA_ROM_C
// 
// 471 bytes of CODE  memory
//   0 bytes of CONST memory (+ 4 bytes shared)
//   0 bytes of DATA  memory (+ 3 bytes shared)
//
//Errors: none
//Warnings: none
