///////////////////////////////////////////////////////////////////////////////
//                                                                            /
// IAR C/C++ Compiler V8.10.1.10194/W32 for 8051        25/Nov/2019  21:51:45 /
// Copyright 2004-2011 IAR Systems AB.                                        /
//                                                                            /
//    Core               =  plain                                             /
//    Code model         =  banked                                            /
//    Data model         =  large                                             /
//    Calling convention =  xdata reentrant                                   /
//    Constant location  =  data_rom                                          /
//    Dptr setup         =  1,16                                              /
//    Source file        =  C:\Users\25814\Desktop\6.ZStack-2.5.1a¹¤³ÌÄ£°å\Co /
//                          mponents\mt\MT_SYS.c                              /
//    Command line       =  -f C:\Users\25814\Desktop\6.ZStack-2.5.1a¹¤³ÌÄ£°å /
//                          \Projects\zstack\Samples\GenericApp\CC2530DB\..\. /
//                          .\..\Tools\CC2530DB\f8wEndev.cfg (-DCPU32MHZ      /
//                          -DROOT=__near_func -DMAC_CFG_TX_DATA_MAX=3        /
//                          -DMAC_CFG_TX_MAX=6 -DMAC_CFG_RX_MAX=3) -f         /
//                          C:\Users\25814\Desktop\6.ZStack-2.5.1a¹¤³ÌÄ£°å\Pr /
//                          ojects\zstack\Samples\GenericApp\CC2530DB\..\..\. /
//                          .\Tools\CC2530DB\f8wConfig.cfg (-DZIGBEEPRO       /
//                          -DSECURE=0 -DZG_SECURE_DYNAMIC=0 -DREFLECTOR      /
//                          -DDEFAULT_CHANLIST=0x00000800                     /
//                          -DZDAPP_CONFIG_PAN_ID=0xFFF1                      /
//                          -DNWK_START_DELAY=100 -DEXTENDED_JOINING_RANDOM_M /
//                          ASK=0x007F -DBEACON_REQUEST_DELAY=100             /
//                          -DBEACON_REQ_DELAY_MASK=0x00FF                    /
//                          -DLINK_STATUS_JITTER_MASK=0x007F                  /
//                          -DROUTE_EXPIRY_TIME=30 -DAPSC_ACK_WAIT_DURATION_P /
//                          OLLED=3000 -DNWK_INDIRECT_MSG_TIMEOUT=7           /
//                          -DMAX_RREQ_ENTRIES=8 -DAPSC_MAX_FRAME_RETRIES=3   /
//                          -DNWK_MAX_DATA_RETRIES=2                          /
//                          -DMAX_POLL_FAILURE_RETRIES=2 -DMAX_BCAST=9        /
//                          -DAPS_MAX_GROUPS=16 -DMAX_RTG_ENTRIES=40          /
//                          -DNWK_MAX_BINDING_ENTRIES=4                       /
//                          -DMAX_BINDING_CLUSTER_IDS=4                       /
//                          "-DDEFAULT_KEY={0x01, 0x03, 0x05, 0x07, 0x09,     /
//                          0x0B, 0x0D, 0x0F, 0x00, 0x02, 0x04, 0x06, 0x08,   /
//                          0x0A, 0x0C, 0x0D}" -DMAC_MAX_FRAME_SIZE=116       /
//                          -DZDNWKMGR_MIN_TRANSMISSIONS=20 "-DCONST=const    /
//                          __code" -DGENERIC=__generic                       /
//                          -DRFD_RCVC_ALWAYS_ON=FALSE -DPOLL_RATE=1000       /
//                          -DQUEUED_POLL_RATE=100 -DRESPONSE_POLL_RATE=100)  /
//                          -DREJOIN_POLL_RATE=440 C:\Users\25814\Desktop\6.Z /
//                          Stack-2.5.1a¹¤³ÌÄ£°å\Components\mt\MT_SYS.c -D    /
//                          NWK_AUTO_POLL -D ZAPP_P1 -D MT_TASK -D            /
//                          MT_SYS_FUNC -D MT_ZDO_FUNC -D                     /
//                          LCD_SUPPORTED=DEBUG -D xPOWER_SAVING -lC          /
//                          C:\Users\25814\Desktop\6.ZStack-2.5.1a¹¤³ÌÄ£°å\Pr /
//                          ojects\zstack\Samples\GenericApp\CC2530DB\EndDevi /
//                          ceEB\List\ -lA C:\Users\25814\Desktop\6.ZStack-2. /
//                          5.1a¹¤³ÌÄ£°å\Projects\zstack\Samples\GenericApp\C /
//                          C2530DB\EndDeviceEB\List\ --diag_suppress         /
//                          Pe001,Pa010 -o C:\Users\25814\Desktop\6.ZStack-2. /
//                          5.1a¹¤³ÌÄ£°å\Projects\zstack\Samples\GenericApp\C /
//                          C2530DB\EndDeviceEB\Obj\ -e --no_code_motion      /
//                          --debug --core=plain --dptr=16,1                  /
//                          --data_model=large --code_model=banked            /
//                          --calling_convention=xdata_reentrant              /
//                          --place_constants=data_rom --nr_virtual_regs 16   /
//                          -I C:\Users\25814\Desktop\6.ZStack-2.5.1a¹¤³ÌÄ£°å /
//                          \Projects\zstack\Samples\GenericApp\CC2530DB\ -I  /
//                          C:\Users\25814\Desktop\6.ZStack-2.5.1a¹¤³ÌÄ£°å\Pr /
//                          ojects\zstack\Samples\GenericApp\CC2530DB\..\Sour /
//                          ce\ -I C:\Users\25814\Desktop\6.ZStack-2.5.1a¹¤³Ì /
//                          Ä£°å\Projects\zstack\Samples\GenericApp\CC2530DB\ /
//                          ..\..\..\ZMain\TI2530DB\ -I                       /
//                          C:\Users\25814\Desktop\6.ZStack-2.5.1a¹¤³ÌÄ£°å\Pr /
//                          ojects\zstack\Samples\GenericApp\CC2530DB\..\..\. /
//                          .\..\..\Components\hal\include\ -I                /
//                          C:\Users\25814\Desktop\6.ZStack-2.5.1a¹¤³ÌÄ£°å\Pr /
//                          ojects\zstack\Samples\GenericApp\CC2530DB\..\..\. /
//                          .\..\..\Components\hal\target\CC2530EB\ -I        /
//                          C:\Users\25814\Desktop\6.ZStack-2.5.1a¹¤³ÌÄ£°å\Pr /
//                          ojects\zstack\Samples\GenericApp\CC2530DB\..\..\. /
//                          .\..\..\Components\mac\include\ -I                /
//                          C:\Users\25814\Desktop\6.ZStack-2.5.1a¹¤³ÌÄ£°å\Pr /
//                          ojects\zstack\Samples\GenericApp\CC2530DB\..\..\. /
//                          .\..\..\Components\mac\high_level\ -I             /
//                          C:\Users\25814\Desktop\6.ZStack-2.5.1a¹¤³ÌÄ£°å\Pr /
//                          ojects\zstack\Samples\GenericApp\CC2530DB\..\..\. /
//                          .\..\..\Components\mac\low_level\srf04\ -I        /
//                          C:\Users\25814\Desktop\6.ZStack-2.5.1a¹¤³ÌÄ£°å\Pr /
//                          ojects\zstack\Samples\GenericApp\CC2530DB\..\..\. /
//                          .\..\..\Components\mac\low_level\srf04\single_chi /
//                          p\ -I C:\Users\25814\Desktop\6.ZStack-2.5.1a¹¤³ÌÄ /
//                          £°å\Projects\zstack\Samples\GenericApp\CC2530DB\. /
//                          .\..\..\..\..\Components\mt\ -I                   /
//                          C:\Users\25814\Desktop\6.ZStack-2.5.1a¹¤³ÌÄ£°å\Pr /
//                          ojects\zstack\Samples\GenericApp\CC2530DB\..\..\. /
//                          .\..\..\Components\osal\include\ -I               /
//                          C:\Users\25814\Desktop\6.ZStack-2.5.1a¹¤³ÌÄ£°å\Pr /
//                          ojects\zstack\Samples\GenericApp\CC2530DB\..\..\. /
//                          .\..\..\Components\services\saddr\ -I             /
//                          C:\Users\25814\Desktop\6.ZStack-2.5.1a¹¤³ÌÄ£°å\Pr /
//                          ojects\zstack\Samples\GenericApp\CC2530DB\..\..\. /
//                          .\..\..\Components\services\sdata\ -I             /
//                          C:\Users\25814\Desktop\6.ZStack-2.5.1a¹¤³ÌÄ£°å\Pr /
//                          ojects\zstack\Samples\GenericApp\CC2530DB\..\..\. /
//                          .\..\..\Components\stack\af\ -I                   /
//                          C:\Users\25814\Desktop\6.ZStack-2.5.1a¹¤³ÌÄ£°å\Pr /
//                          ojects\zstack\Samples\GenericApp\CC2530DB\..\..\. /
//                          .\..\..\Components\stack\nwk\ -I                  /
//                          C:\Users\25814\Desktop\6.ZStack-2.5.1a¹¤³ÌÄ£°å\Pr /
//                          ojects\zstack\Samples\GenericApp\CC2530DB\..\..\. /
//                          .\..\..\Components\stack\sapi\ -I                 /
//                          C:\Users\25814\Desktop\6.ZStack-2.5.1a¹¤³ÌÄ£°å\Pr /
//                          ojects\zstack\Samples\GenericApp\CC2530DB\..\..\. /
//                          .\..\..\Components\stack\sec\ -I                  /
//                          C:\Users\25814\Desktop\6.ZStack-2.5.1a¹¤³ÌÄ£°å\Pr /
//                          ojects\zstack\Samples\GenericApp\CC2530DB\..\..\. /
//                          .\..\..\Components\stack\sys\ -I                  /
//                          C:\Users\25814\Desktop\6.ZStack-2.5.1a¹¤³ÌÄ£°å\Pr /
//                          ojects\zstack\Samples\GenericApp\CC2530DB\..\..\. /
//                          .\..\..\Components\stack\zdo\ -I                  /
//                          C:\Users\25814\Desktop\6.ZStack-2.5.1a¹¤³ÌÄ£°å\Pr /
//                          ojects\zstack\Samples\GenericApp\CC2530DB\..\..\. /
//                          .\..\..\Components\zmac\ -I                       /
//                          C:\Users\25814\Desktop\6.ZStack-2.5.1a¹¤³ÌÄ£°å\Pr /
//                          ojects\zstack\Samples\GenericApp\CC2530DB\..\..\. /
//                          .\..\..\Components\zmac\f8w\ -Ohz                 /
//    List file          =  C:\Users\25814\Desktop\6.ZStack-2.5.1a¹¤³ÌÄ£°å\Pr /
//                          ojects\zstack\Samples\GenericApp\CC2530DB\EndDevi /
//                          ceEB\List\MT_SYS.s51                              /
//                                                                            /
//                                                                            /
///////////////////////////////////////////////////////////////////////////////

        NAME MT_SYS

        RTMODEL "__SystemLibrary", "CLib"
        RTMODEL "__calling_convention", "xdata_reentrant"
        RTMODEL "__code_model", "banked"
        RTMODEL "__core", "plain"
        RTMODEL "__data_model", "large"
        RTMODEL "__dptr_size", "16"
        RTMODEL "__extended_stack", "disabled"
        RTMODEL "__location_for_constants", "data"
        RTMODEL "__number_of_dptrs", "1"
        RTMODEL "__rt_version", "1"

        RSEG DOVERLAY:DATA:NOROOT(0)
        RSEG IOVERLAY:IDATA:NOROOT(0)
        RSEG ISTACK:IDATA:NOROOT(0)
        RSEG PSTACK:XDATA:NOROOT(0)
        RSEG XSTACK:XDATA:NOROOT(0)

        EXTERN ?ALLOC_XSTACK8
        EXTERN ?BANKED_ENTER_XDATA
        EXTERN ?BANKED_LEAVE_XDATA
        EXTERN ?BDISPATCH
        EXTERN ?BRET
        EXTERN ?DEALLOC_XSTACK8
        EXTERN ?MOVE_LONG8_XDATA_XDATA
        EXTERN ?PUSH_XSTACK_I_FOUR
        EXTERN ?PUSH_XSTACK_I_THREE
        EXTERN ?PUSH_XSTACK_I_TWO
        EXTERN ?UC_SWITCH_DENSE
        EXTERN ?UC_SWITCH_SPARSE
        EXTERN ?US_DIV_MOD
        EXTERN ?V0
        EXTERN ?XSP
        EXTERN ?XSTACK_DISP0_8

        PUBLIC ??MT_SysAdcRead?relay
        FUNCTION ??MT_SysAdcRead?relay,0203H
        PUBLIC ??MT_SysCommandProcessing?relay
        FUNCTION ??MT_SysCommandProcessing?relay,0203H
        PUBLIC ??MT_SysGetExtAddr?relay
        FUNCTION ??MT_SysGetExtAddr?relay,0203H
        PUBLIC ??MT_SysGetUtcTime?relay
        FUNCTION ??MT_SysGetUtcTime?relay,0203H
        PUBLIC ??MT_SysGpio?relay
        FUNCTION ??MT_SysGpio?relay,0203H
        PUBLIC ??MT_SysOsalNVDelete?relay
        FUNCTION ??MT_SysOsalNVDelete?relay,0203H
        PUBLIC ??MT_SysOsalNVItemInit?relay
        FUNCTION ??MT_SysOsalNVItemInit?relay,0203H
        PUBLIC ??MT_SysOsalNVLength?relay
        FUNCTION ??MT_SysOsalNVLength?relay,0203H
        PUBLIC ??MT_SysOsalNVRead?relay
        FUNCTION ??MT_SysOsalNVRead?relay,0203H
        PUBLIC ??MT_SysOsalNVWrite?relay
        FUNCTION ??MT_SysOsalNVWrite?relay,0203H
        PUBLIC ??MT_SysOsalStartTimer?relay
        FUNCTION ??MT_SysOsalStartTimer?relay,0203H
        PUBLIC ??MT_SysOsalStopTimer?relay
        FUNCTION ??MT_SysOsalStopTimer?relay,0203H
        PUBLIC ??MT_SysOsalTimerExpired?relay
        FUNCTION ??MT_SysOsalTimerExpired?relay,0203H
        PUBLIC ??MT_SysPing?relay
        FUNCTION ??MT_SysPing?relay,0203H
        PUBLIC ??MT_SysRandom?relay
        FUNCTION ??MT_SysRandom?relay,0203H
        PUBLIC ??MT_SysReset?relay
        FUNCTION ??MT_SysReset?relay,0203H
        PUBLIC ??MT_SysResetInd?relay
        FUNCTION ??MT_SysResetInd?relay,0203H
        PUBLIC ??MT_SysSetExtAddr?relay
        FUNCTION ??MT_SysSetExtAddr?relay,0203H
        PUBLIC ??MT_SysSetTxPower?relay
        FUNCTION ??MT_SysSetTxPower?relay,0203H
        PUBLIC ??MT_SysSetUtcTime?relay
        FUNCTION ??MT_SysSetUtcTime?relay,0203H
        PUBLIC ??MT_SysStackTune?relay
        FUNCTION ??MT_SysStackTune?relay,0203H
        PUBLIC ??MT_SysVersion?relay
        FUNCTION ??MT_SysVersion?relay,0203H
        PUBLIC MT_SysAdcRead
        FUNCTION MT_SysAdcRead,0a1203H
        ARGFRAME XSTACK, 9, STACK
        ARGFRAME IOVERLAY, 0, STATIC
        ARGFRAME DOVERLAY, 0, STATIC
        LOCFRAME ISTACK, 1, STACK
        LOCFRAME XSTACK, 12, STACK
        PUBLIC MT_SysCommandProcessing
        FUNCTION MT_SysCommandProcessing,0a1203H
        ARGFRAME XSTACK, 0, STACK
        LOCFRAME XSTACK, 9, STACK
        PUBLIC MT_SysGetExtAddr
        FUNCTION MT_SysGetExtAddr,021203H
        ARGFRAME XSTACK, 9, STACK
        ARGFRAME IOVERLAY, 0, STATIC
        ARGFRAME DOVERLAY, 0, STATIC
        LOCFRAME ISTACK, 2, STACK
        LOCFRAME XSTACK, 8, STACK
        PUBLIC MT_SysGetUtcTime
        FUNCTION MT_SysGetUtcTime,021203H
        ARGFRAME XSTACK, 9, STACK
        ARGFRAME IOVERLAY, 0, STATIC
        ARGFRAME DOVERLAY, 0, STATIC
        LOCFRAME ISTACK, 1, STACK
        LOCFRAME XSTACK, 23, STACK
        PUBLIC MT_SysGpio
        FUNCTION MT_SysGpio,021203H
        ARGFRAME XSTACK, 9, STACK
        ARGFRAME IOVERLAY, 0, STATIC
        ARGFRAME DOVERLAY, 0, STATIC
        LOCFRAME ISTACK, 2, STACK
        LOCFRAME XSTACK, 1, STACK
        PUBLIC MT_SysOsalEventId
        PUBLIC MT_SysOsalNVDelete
        FUNCTION MT_SysOsalNVDelete,021203H
        ARGFRAME XSTACK, 9, STACK
        ARGFRAME IOVERLAY, 0, STATIC
        ARGFRAME DOVERLAY, 0, STATIC
        LOCFRAME ISTACK, 1, STACK
        LOCFRAME XSTACK, 10, STACK
        PUBLIC MT_SysOsalNVItemInit
        FUNCTION MT_SysOsalNVItemInit,021203H
        ARGFRAME XSTACK, 9, STACK
        ARGFRAME IOVERLAY, 0, STATIC
        ARGFRAME DOVERLAY, 0, STATIC
        LOCFRAME ISTACK, 1, STACK
        LOCFRAME XSTACK, 19, STACK
        PUBLIC MT_SysOsalNVLength
        FUNCTION MT_SysOsalNVLength,021203H
        ARGFRAME XSTACK, 9, STACK
        ARGFRAME IOVERLAY, 0, STATIC
        ARGFRAME DOVERLAY, 0, STATIC
        LOCFRAME ISTACK, 1, STACK
        LOCFRAME XSTACK, 12, STACK
        PUBLIC MT_SysOsalNVRead
        FUNCTION MT_SysOsalNVRead,021203H
        ARGFRAME XSTACK, 9, STACK
        ARGFRAME IOVERLAY, 0, STATIC
        ARGFRAME DOVERLAY, 0, STATIC
        LOCFRAME ISTACK, 2, STACK
        LOCFRAME XSTACK, 22, STACK
        PUBLIC MT_SysOsalNVWrite
        FUNCTION MT_SysOsalNVWrite,021203H
        ARGFRAME XSTACK, 9, STACK
        ARGFRAME IOVERLAY, 0, STATIC
        ARGFRAME DOVERLAY, 0, STATIC
        LOCFRAME ISTACK, 1, STACK
        LOCFRAME XSTACK, 18, STACK
        PUBLIC MT_SysOsalStartTimer
        FUNCTION MT_SysOsalStartTimer,021203H
        ARGFRAME XSTACK, 9, STACK
        ARGFRAME IOVERLAY, 0, STATIC
        ARGFRAME DOVERLAY, 0, STATIC
        LOCFRAME ISTACK, 1, STACK
        LOCFRAME XSTACK, 10, STACK
        PUBLIC MT_SysOsalStopTimer
        FUNCTION MT_SysOsalStopTimer,021203H
        ARGFRAME XSTACK, 9, STACK
        ARGFRAME IOVERLAY, 0, STATIC
        ARGFRAME DOVERLAY, 0, STATIC
        LOCFRAME ISTACK, 1, STACK
        LOCFRAME XSTACK, 10, STACK
        PUBLIC MT_SysOsalTimerExpired
        FUNCTION MT_SysOsalTimerExpired,021203H
        ARGFRAME XSTACK, 0, STACK
        LOCFRAME ISTACK, 1, STACK
        LOCFRAME XSTACK, 10, STACK
        PUBLIC MT_SysPing
        FUNCTION MT_SysPing,021203H
        ARGFRAME XSTACK, 9, STACK
        ARGFRAME IOVERLAY, 0, STATIC
        ARGFRAME DOVERLAY, 0, STATIC
        LOCFRAME ISTACK, 2, STACK
        LOCFRAME XSTACK, 2, STACK
        PUBLIC MT_SysRandom
        FUNCTION MT_SysRandom,021203H
        ARGFRAME XSTACK, 9, STACK
        ARGFRAME IOVERLAY, 0, STATIC
        ARGFRAME DOVERLAY, 0, STATIC
        LOCFRAME ISTACK, 1, STACK
        LOCFRAME XSTACK, 12, STACK
        PUBLIC MT_SysReset
        FUNCTION MT_SysReset,021203H
        ARGFRAME XSTACK, 9, STACK
        ARGFRAME IOVERLAY, 0, STATIC
        ARGFRAME DOVERLAY, 0, STATIC
        LOCFRAME ISTACK, 2, STACK
        PUBLIC MT_SysResetInd
        FUNCTION MT_SysResetInd,021203H
        ARGFRAME XSTACK, 0, STACK
        LOCFRAME ISTACK, 1, STACK
        LOCFRAME XSTACK, 20, STACK
        PUBLIC MT_SysSetExtAddr
        FUNCTION MT_SysSetExtAddr,021203H
        ARGFRAME XSTACK, 9, STACK
        ARGFRAME IOVERLAY, 0, STATIC
        ARGFRAME DOVERLAY, 0, STATIC
        LOCFRAME ISTACK, 1, STACK
        LOCFRAME XSTACK, 15, STACK
        PUBLIC MT_SysSetTxPower
        FUNCTION MT_SysSetTxPower,021203H
        ARGFRAME XSTACK, 9, STACK
        ARGFRAME IOVERLAY, 0, STATIC
        ARGFRAME DOVERLAY, 0, STATIC
        LOCFRAME ISTACK, 3, STACK
        LOCFRAME XSTACK, 2, STACK
        PUBLIC MT_SysSetUtcTime
        FUNCTION MT_SysSetUtcTime,021203H
        ARGFRAME XSTACK, 9, STACK
        ARGFRAME IOVERLAY, 0, STATIC
        ARGFRAME DOVERLAY, 0, STATIC
        LOCFRAME ISTACK, 1, STACK
        LOCFRAME XSTACK, 24, STACK
        PUBLIC MT_SysStackTune
        FUNCTION MT_SysStackTune,021203H
        ARGFRAME XSTACK, 9, STACK
        ARGFRAME IOVERLAY, 0, STATIC
        ARGFRAME DOVERLAY, 0, STATIC
        LOCFRAME ISTACK, 1, STACK
        LOCFRAME XSTACK, 10, STACK
        PUBLIC MT_SysVersion
        FUNCTION MT_SysVersion,021203H
        ARGFRAME XSTACK, 9, STACK
        ARGFRAME IOVERLAY, 0, STATIC
        ARGFRAME DOVERLAY, 0, STATIC
        LOCFRAME ISTACK, 2, STACK
        PUBWEAK SLEEPSTA
        PUBWEAK WDCTL
        PUBWEAK _A_IEN0
        
        CFI Names cfiNames0
        CFI StackFrame CFA_SP SP IDATA
        CFI StackFrame CFA_PSP16 PSP16 XDATA
        CFI StackFrame CFA_XSP16 XSP16 XDATA
        CFI StaticOverlayFrame CFA_IOVERLAY IOVERLAY
        CFI StaticOverlayFrame CFA_DOVERLAY DOVERLAY
        CFI Resource `PSW.CY`:1, `B.BR0`:1, `B.BR1`:1, `B.BR2`:1, `B.BR3`:1
        CFI Resource `B.BR4`:1, `B.BR5`:1, `B.BR6`:1, `B.BR7`:1, `VB.BR8`:1
        CFI Resource `VB.BR9`:1, `VB.BR10`:1, `VB.BR11`:1, `VB.BR12`:1
        CFI Resource `VB.BR13`:1, `VB.BR14`:1, `VB.BR15`:1, VB:8, B:8, A:8
        CFI Resource PSW:8, DPL0:8, DPH0:8, R0:8, R1:8, R2:8, R3:8, R4:8, R5:8
        CFI Resource R6:8, R7:8, V0:8, V1:8, V2:8, V3:8, V4:8, V5:8, V6:8, V7:8
        CFI Resource V8:8, V9:8, V10:8, V11:8, V12:8, V13:8, V14:8, V15:8, SP:8
        CFI Resource PSPH:8, PSPL:8, PSP16:16, XSPH:8, XSPL:8, XSP16:16
        CFI VirtualResource ?RET:24
        CFI Resource ?BRET_EXT:8
        CFI VirtualResource ?RET_HIGH:8, ?RET_LOW:8
        CFI ResourceParts PSP16 PSPH, PSPL
        CFI ResourceParts XSP16 XSPH, XSPL
        CFI ResourceParts ?RET ?BRET_EXT, ?RET_HIGH, ?RET_LOW
        CFI EndNames cfiNames0
        
        CFI Common cfiCommon0 Using cfiNames0
        CFI CodeAlign 1
        CFI DataAlign -1
        CFI ReturnAddress ?RET CODE
        CFI CFA_DOVERLAY Used
        CFI CFA_IOVERLAY Used
        CFI CFA_SP SP+-3
        CFI CFA_PSP16 PSP16+0
        CFI CFA_XSP16 XSP16+0
        CFI `PSW.CY` SameValue
        CFI `B.BR0` SameValue
        CFI `B.BR1` SameValue
        CFI `B.BR2` SameValue
        CFI `B.BR3` SameValue
        CFI `B.BR4` SameValue
        CFI `B.BR5` SameValue
        CFI `B.BR6` SameValue
        CFI `B.BR7` SameValue
        CFI `VB.BR8` SameValue
        CFI `VB.BR9` SameValue
        CFI `VB.BR10` SameValue
        CFI `VB.BR11` SameValue
        CFI `VB.BR12` SameValue
        CFI `VB.BR13` SameValue
        CFI `VB.BR14` SameValue
        CFI `VB.BR15` SameValue
        CFI VB SameValue
        CFI B Undefined
        CFI A Undefined
        CFI PSW SameValue
        CFI DPL0 SameValue
        CFI DPH0 SameValue
        CFI R0 Undefined
        CFI R1 Undefined
        CFI R2 Undefined
        CFI R3 Undefined
        CFI R4 Undefined
        CFI R5 Undefined
        CFI R6 SameValue
        CFI R7 SameValue
        CFI V0 SameValue
        CFI V1 SameValue
        CFI V2 SameValue
        CFI V3 SameValue
        CFI V4 SameValue
        CFI V5 SameValue
        CFI V6 SameValue
        CFI V7 SameValue
        CFI V8 SameValue
        CFI V9 SameValue
        CFI V10 SameValue
        CFI V11 SameValue
        CFI V12 SameValue
        CFI V13 SameValue
        CFI V14 SameValue
        CFI V15 SameValue
        CFI PSPH Undefined
        CFI PSPL Undefined
        CFI XSPH Undefined
        CFI XSPL Undefined
        CFI ?RET Concat
        CFI ?BRET_EXT Frame(CFA_SP, 3)
        CFI ?RET_HIGH Frame(CFA_SP, 2)
        CFI ?RET_LOW Frame(CFA_SP, 1)
        CFI EndCommon cfiCommon0
        
        
        CFI Common cfiCommon1 Using cfiNames0
        CFI CodeAlign 1
        CFI DataAlign -1
        CFI ReturnAddress ?RET CODE
        CFI CFA_DOVERLAY Used
        CFI CFA_IOVERLAY Used
        CFI CFA_SP SP+-2
        CFI CFA_PSP16 PSP16+0
        CFI CFA_XSP16 XSP16+0
        CFI `PSW.CY` SameValue
        CFI `B.BR0` SameValue
        CFI `B.BR1` SameValue
        CFI `B.BR2` SameValue
        CFI `B.BR3` SameValue
        CFI `B.BR4` SameValue
        CFI `B.BR5` SameValue
        CFI `B.BR6` SameValue
        CFI `B.BR7` SameValue
        CFI `VB.BR8` SameValue
        CFI `VB.BR9` SameValue
        CFI `VB.BR10` SameValue
        CFI `VB.BR11` SameValue
        CFI `VB.BR12` SameValue
        CFI `VB.BR13` SameValue
        CFI `VB.BR14` SameValue
        CFI `VB.BR15` SameValue
        CFI VB SameValue
        CFI B SameValue
        CFI A SameValue
        CFI PSW SameValue
        CFI DPL0 SameValue
        CFI DPH0 SameValue
        CFI R0 SameValue
        CFI R1 SameValue
        CFI R2 SameValue
        CFI R3 SameValue
        CFI R4 SameValue
        CFI R5 SameValue
        CFI R6 SameValue
        CFI R7 SameValue
        CFI V0 SameValue
        CFI V1 SameValue
        CFI V2 SameValue
        CFI V3 SameValue
        CFI V4 SameValue
        CFI V5 SameValue
        CFI V6 SameValue
        CFI V7 SameValue
        CFI V8 SameValue
        CFI V9 SameValue
        CFI V10 SameValue
        CFI V11 SameValue
        CFI V12 SameValue
        CFI V13 SameValue
        CFI V14 SameValue
        CFI V15 SameValue
        CFI PSPH Undefined
        CFI PSPL Undefined
        CFI XSPH Undefined
        CFI XSPL Undefined
        CFI ?RET Concat
        CFI ?BRET_EXT SameValue
        CFI ?RET_HIGH Frame(CFA_SP, 2)
        CFI ?RET_LOW Frame(CFA_SP, 1)
        CFI EndCommon cfiCommon1
        
MT_BuildAndSendZToolResponse SYMBOL "MT_BuildAndSendZToolResponse"
ZMacSetReq          SYMBOL "ZMacSetReq"
osal_nv_write       SYMBOL "osal_nv_write"
ZMacGetReq          SYMBOL "ZMacGetReq"
osal_nv_item_len    SYMBOL "osal_nv_item_len"
osal_mem_alloc      SYMBOL "osal_mem_alloc"
osal_memset         SYMBOL "osal_memset"
osal_nv_read        SYMBOL "osal_nv_read"
osal_mem_free       SYMBOL "osal_mem_free"
zgSetItem           SYMBOL "zgSetItem"
osal_nv_item_init   SYMBOL "osal_nv_item_init"
osal_nv_delete      SYMBOL "osal_nv_delete"
osal_start_timerEx  SYMBOL "osal_start_timerEx"
osal_stop_timerEx   SYMBOL "osal_stop_timerEx"
Onboard_rand        SYMBOL "Onboard_rand"
HalAdcRead          SYMBOL "HalAdcRead"
osal_build_uint32   SYMBOL "osal_build_uint32"
osal_build_uint16   SYMBOL "osal_build_uint16"
osal_ConvertUTCSecs SYMBOL "osal_ConvertUTCSecs"
osal_setClock       SYMBOL "osal_setClock"
osal_getClock       SYMBOL "osal_getClock"
osal_ConvertUTCTime SYMBOL "osal_ConvertUTCTime"
osal_buffer_uint32  SYMBOL "osal_buffer_uint32"
macRadioSetTxPower  SYMBOL "macRadioSetTxPower"
MAC_MlmeSetReq      SYMBOL "MAC_MlmeSetReq"
osal_memcpy         SYMBOL "osal_memcpy"
??HalAdcRead?relay  SYMBOL "?relay", HalAdcRead
??MAC_MlmeSetReq?relay SYMBOL "?relay", MAC_MlmeSetReq
??MT_BuildAndSendZToolResponse?relay SYMBOL "?relay", MT_BuildAndSendZToolResponse
??Onboard_rand?relay SYMBOL "?relay", Onboard_rand
??ZMacGetReq?relay  SYMBOL "?relay", ZMacGetReq
??ZMacSetReq?relay  SYMBOL "?relay", ZMacSetReq
??macRadioSetTxPower?relay SYMBOL "?relay", macRadioSetTxPower
??osal_ConvertUTCSecs?relay SYMBOL "?relay", osal_ConvertUTCSecs
??osal_ConvertUTCTime?relay SYMBOL "?relay", osal_ConvertUTCTime
??osal_buffer_uint32?relay SYMBOL "?relay", osal_buffer_uint32
??osal_build_uint16?relay SYMBOL "?relay", osal_build_uint16
??osal_build_uint32?relay SYMBOL "?relay", osal_build_uint32
??osal_getClock?relay SYMBOL "?relay", osal_getClock
??osal_mem_alloc?relay SYMBOL "?relay", osal_mem_alloc
??osal_mem_free?relay SYMBOL "?relay", osal_mem_free
??osal_memcpy?relay SYMBOL "?relay", osal_memcpy
??osal_memset?relay SYMBOL "?relay", osal_memset
??osal_nv_delete?relay SYMBOL "?relay", osal_nv_delete
??osal_nv_item_init?relay SYMBOL "?relay", osal_nv_item_init
??osal_nv_item_len?relay SYMBOL "?relay", osal_nv_item_len
??osal_nv_read?relay SYMBOL "?relay", osal_nv_read
??osal_nv_write?relay SYMBOL "?relay", osal_nv_write
??osal_setClock?relay SYMBOL "?relay", osal_setClock
??osal_start_timerEx?relay SYMBOL "?relay", osal_start_timerEx
??osal_stop_timerEx?relay SYMBOL "?relay", osal_stop_timerEx
??zgSetItem?relay   SYMBOL "?relay", zgSetItem
MT_SysAdcRead       SYMBOL "MT_SysAdcRead"
??MT_SysAdcRead?relay SYMBOL "?relay", MT_SysAdcRead
MT_SysCommandProcessing SYMBOL "MT_SysCommandProcessing"
??MT_SysCommandProcessing?relay SYMBOL "?relay", MT_SysCommandProcessing
MT_SysGetExtAddr    SYMBOL "MT_SysGetExtAddr"
??MT_SysGetExtAddr?relay SYMBOL "?relay", MT_SysGetExtAddr
MT_SysGetUtcTime    SYMBOL "MT_SysGetUtcTime"
??MT_SysGetUtcTime?relay SYMBOL "?relay", MT_SysGetUtcTime
MT_SysGpio          SYMBOL "MT_SysGpio"
??MT_SysGpio?relay  SYMBOL "?relay", MT_SysGpio
MT_SysOsalNVDelete  SYMBOL "MT_SysOsalNVDelete"
??MT_SysOsalNVDelete?relay SYMBOL "?relay", MT_SysOsalNVDelete
MT_SysOsalNVItemInit SYMBOL "MT_SysOsalNVItemInit"
??MT_SysOsalNVItemInit?relay SYMBOL "?relay", MT_SysOsalNVItemInit
MT_SysOsalNVLength  SYMBOL "MT_SysOsalNVLength"
??MT_SysOsalNVLength?relay SYMBOL "?relay", MT_SysOsalNVLength
MT_SysOsalNVRead    SYMBOL "MT_SysOsalNVRead"
??MT_SysOsalNVRead?relay SYMBOL "?relay", MT_SysOsalNVRead
MT_SysOsalNVWrite   SYMBOL "MT_SysOsalNVWrite"
??MT_SysOsalNVWrite?relay SYMBOL "?relay", MT_SysOsalNVWrite
MT_SysOsalStartTimer SYMBOL "MT_SysOsalStartTimer"
??MT_SysOsalStartTimer?relay SYMBOL "?relay", MT_SysOsalStartTimer
MT_SysOsalStopTimer SYMBOL "MT_SysOsalStopTimer"
??MT_SysOsalStopTimer?relay SYMBOL "?relay", MT_SysOsalStopTimer
MT_SysOsalTimerExpired SYMBOL "MT_SysOsalTimerExpired"
??MT_SysOsalTimerExpired?relay SYMBOL "?relay", MT_SysOsalTimerExpired
MT_SysPing          SYMBOL "MT_SysPing"
??MT_SysPing?relay  SYMBOL "?relay", MT_SysPing
MT_SysRandom        SYMBOL "MT_SysRandom"
??MT_SysRandom?relay SYMBOL "?relay", MT_SysRandom
MT_SysReset         SYMBOL "MT_SysReset"
??MT_SysReset?relay SYMBOL "?relay", MT_SysReset
MT_SysResetInd      SYMBOL "MT_SysResetInd"
??MT_SysResetInd?relay SYMBOL "?relay", MT_SysResetInd
MT_SysSetExtAddr    SYMBOL "MT_SysSetExtAddr"
??MT_SysSetExtAddr?relay SYMBOL "?relay", MT_SysSetExtAddr
MT_SysSetTxPower    SYMBOL "MT_SysSetTxPower"
??MT_SysSetTxPower?relay SYMBOL "?relay", MT_SysSetTxPower
MT_SysSetUtcTime    SYMBOL "MT_SysSetUtcTime"
??MT_SysSetUtcTime?relay SYMBOL "?relay", MT_SysSetUtcTime
MT_SysStackTune     SYMBOL "MT_SysStackTune"
??MT_SysStackTune?relay SYMBOL "?relay", MT_SysStackTune
MT_SysVersion       SYMBOL "MT_SysVersion"
??MT_SysVersion?relay SYMBOL "?relay", MT_SysVersion

        EXTERN Onboard_soft_reset
        FUNCTION Onboard_soft_reset,0202H
        ARGFRAME ISTACK, 2, STACK
        ARGFRAME PSTACK, 0, STACK
        ARGFRAME XSTACK, 0, STACK
        ARGFRAME IOVERLAY, 0, STATIC
        ARGFRAME DOVERLAY, 0, STATIC
        EXTERN MT_BuildAndSendZToolResponse
        FUNCTION MT_BuildAndSendZToolResponse,0202H
        ARGFRAME ISTACK, 2, STACK
        ARGFRAME PSTACK, 0, STACK
        ARGFRAME XSTACK, 24, STACK
        ARGFRAME IOVERLAY, 0, STATIC
        ARGFRAME DOVERLAY, 0, STATIC
        EXTERN ZMacSetReq
        FUNCTION ZMacSetReq,0202H
        ARGFRAME ISTACK, 0, STACK
        ARGFRAME PSTACK, 0, STACK
        ARGFRAME XSTACK, 14, STACK
        ARGFRAME IOVERLAY, 0, STATIC
        ARGFRAME DOVERLAY, 0, STATIC
        EXTERN osal_nv_write
        FUNCTION osal_nv_write,0202H
        ARGFRAME ISTACK, 0, STACK
        ARGFRAME PSTACK, 0, STACK
        ARGFRAME XSTACK, 19, STACK
        ARGFRAME IOVERLAY, 0, STATIC
        ARGFRAME DOVERLAY, 0, STATIC
        EXTERN ZMacGetReq
        FUNCTION ZMacGetReq,0202H
        ARGFRAME ISTACK, 2, STACK
        ARGFRAME PSTACK, 0, STACK
        ARGFRAME XSTACK, 10, STACK
        ARGFRAME IOVERLAY, 0, STATIC
        ARGFRAME DOVERLAY, 0, STATIC
        EXTERN osal_nv_item_len
        FUNCTION osal_nv_item_len,0202H
        ARGFRAME ISTACK, 0, STACK
        ARGFRAME PSTACK, 0, STACK
        ARGFRAME XSTACK, 18, STACK
        ARGFRAME IOVERLAY, 0, STATIC
        ARGFRAME DOVERLAY, 0, STATIC
        EXTERN osal_mem_alloc
        FUNCTION osal_mem_alloc,0202H
        ARGFRAME ISTACK, 0, STACK
        ARGFRAME PSTACK, 0, STACK
        ARGFRAME XSTACK, 19, STACK
        ARGFRAME IOVERLAY, 0, STATIC
        ARGFRAME DOVERLAY, 0, STATIC
        EXTERN osal_memset
        FUNCTION osal_memset,0202H
        ARGFRAME ISTACK, 0, STACK
        ARGFRAME PSTACK, 0, STACK
        ARGFRAME XSTACK, 18, STACK
        ARGFRAME IOVERLAY, 0, STATIC
        ARGFRAME DOVERLAY, 0, STATIC
        EXTERN osal_nv_read
        FUNCTION osal_nv_read,0202H
        ARGFRAME ISTACK, 0, STACK
        ARGFRAME PSTACK, 0, STACK
        ARGFRAME XSTACK, 22, STACK
        ARGFRAME IOVERLAY, 0, STATIC
        ARGFRAME DOVERLAY, 0, STATIC
        EXTERN osal_mem_free
        FUNCTION osal_mem_free,0202H
        ARGFRAME ISTACK, 0, STACK
        ARGFRAME PSTACK, 0, STACK
        ARGFRAME XSTACK, 19, STACK
        ARGFRAME IOVERLAY, 0, STATIC
        ARGFRAME DOVERLAY, 0, STATIC
        EXTERN zgSetItem
        FUNCTION zgSetItem,0202H
        ARGFRAME ISTACK, 0, STACK
        ARGFRAME PSTACK, 0, STACK
        ARGFRAME XSTACK, 16, STACK
        ARGFRAME IOVERLAY, 0, STATIC
        ARGFRAME DOVERLAY, 0, STATIC
        EXTERN osal_nv_item_init
        FUNCTION osal_nv_item_init,0202H
        ARGFRAME ISTACK, 0, STACK
        ARGFRAME PSTACK, 0, STACK
        ARGFRAME XSTACK, 17, STACK
        ARGFRAME IOVERLAY, 0, STATIC
        ARGFRAME DOVERLAY, 0, STATIC
        EXTERN osal_nv_delete
        FUNCTION osal_nv_delete,0202H
        ARGFRAME ISTACK, 0, STACK
        ARGFRAME PSTACK, 0, STACK
        ARGFRAME XSTACK, 10, STACK
        ARGFRAME IOVERLAY, 0, STATIC
        ARGFRAME DOVERLAY, 0, STATIC
        EXTERN osal_start_timerEx
        FUNCTION osal_start_timerEx,0202H
        ARGFRAME ISTACK, 0, STACK
        ARGFRAME PSTACK, 0, STACK
        ARGFRAME XSTACK, 10, STACK
        ARGFRAME IOVERLAY, 0, STATIC
        ARGFRAME DOVERLAY, 0, STATIC
        EXTERN osal_stop_timerEx
        FUNCTION osal_stop_timerEx,0202H
        ARGFRAME ISTACK, 0, STACK
        ARGFRAME PSTACK, 0, STACK
        ARGFRAME XSTACK, 10, STACK
        ARGFRAME IOVERLAY, 0, STATIC
        ARGFRAME DOVERLAY, 0, STATIC
        EXTERN Onboard_rand
        FUNCTION Onboard_rand,0202H
        ARGFRAME ISTACK, 0, STACK
        ARGFRAME PSTACK, 0, STACK
        ARGFRAME XSTACK, 12, STACK
        ARGFRAME IOVERLAY, 0, STATIC
        ARGFRAME DOVERLAY, 0, STATIC
        EXTERN HalAdcRead
        FUNCTION HalAdcRead,0202H
        ARGFRAME ISTACK, 0, STACK
        ARGFRAME PSTACK, 0, STACK
        ARGFRAME XSTACK, 12, STACK
        ARGFRAME IOVERLAY, 0, STATIC
        ARGFRAME DOVERLAY, 0, STATIC
        EXTERN osal_build_uint32
        FUNCTION osal_build_uint32,0202H
        ARGFRAME ISTACK, 0, STACK
        ARGFRAME PSTACK, 0, STACK
        ARGFRAME XSTACK, 24, STACK
        ARGFRAME IOVERLAY, 0, STATIC
        ARGFRAME DOVERLAY, 0, STATIC
        EXTERN osal_build_uint16
        FUNCTION osal_build_uint16,0202H
        ARGFRAME ISTACK, 0, STACK
        ARGFRAME PSTACK, 0, STACK
        ARGFRAME XSTACK, 24, STACK
        ARGFRAME IOVERLAY, 0, STATIC
        ARGFRAME DOVERLAY, 0, STATIC
        EXTERN osal_ConvertUTCSecs
        FUNCTION osal_ConvertUTCSecs,0202H
        ARGFRAME ISTACK, 0, STACK
        ARGFRAME PSTACK, 0, STACK
        ARGFRAME XSTACK, 24, STACK
        ARGFRAME IOVERLAY, 0, STATIC
        ARGFRAME DOVERLAY, 0, STATIC
        EXTERN osal_setClock
        FUNCTION osal_setClock,0202H
        ARGFRAME ISTACK, 0, STACK
        ARGFRAME PSTACK, 0, STACK
        ARGFRAME XSTACK, 24, STACK
        ARGFRAME IOVERLAY, 0, STATIC
        ARGFRAME DOVERLAY, 0, STATIC
        EXTERN osal_getClock
        FUNCTION osal_getClock,0202H
        ARGFRAME ISTACK, 0, STACK
        ARGFRAME PSTACK, 0, STACK
        ARGFRAME XSTACK, 19, STACK
        ARGFRAME IOVERLAY, 0, STATIC
        ARGFRAME DOVERLAY, 0, STATIC
        EXTERN osal_ConvertUTCTime
        FUNCTION osal_ConvertUTCTime,0202H
        ARGFRAME ISTACK, 0, STACK
        ARGFRAME PSTACK, 0, STACK
        ARGFRAME XSTACK, 23, STACK
        ARGFRAME IOVERLAY, 0, STATIC
        ARGFRAME DOVERLAY, 0, STATIC
        EXTERN osal_buffer_uint32
        FUNCTION osal_buffer_uint32,0202H
        ARGFRAME ISTACK, 0, STACK
        ARGFRAME PSTACK, 0, STACK
        ARGFRAME XSTACK, 23, STACK
        ARGFRAME IOVERLAY, 0, STATIC
        ARGFRAME DOVERLAY, 0, STATIC
        EXTERN macRadioSetTxPower
        FUNCTION macRadioSetTxPower,0202H
        ARGFRAME ISTACK, 2, STACK
        ARGFRAME PSTACK, 0, STACK
        ARGFRAME XSTACK, 2, STACK
        ARGFRAME IOVERLAY, 0, STATIC
        ARGFRAME DOVERLAY, 0, STATIC
        EXTERN MAC_MlmeSetReq
        FUNCTION MAC_MlmeSetReq,0202H
        ARGFRAME ISTACK, 2, STACK
        ARGFRAME PSTACK, 0, STACK
        ARGFRAME XSTACK, 2, STACK
        ARGFRAME IOVERLAY, 0, STATIC
        ARGFRAME DOVERLAY, 0, STATIC
        EXTERN osal_memcpy
        FUNCTION osal_memcpy,0202H
        ARGFRAME ISTACK, 0, STACK
        ARGFRAME PSTACK, 0, STACK
        ARGFRAME XSTACK, 20, STACK
        ARGFRAME IOVERLAY, 0, STATIC
        ARGFRAME DOVERLAY, 0, STATIC
        EXTERN ??HalAdcRead?relay
        FUNCTION ??HalAdcRead?relay,00H
        EXTERN ??MAC_MlmeSetReq?relay
        FUNCTION ??MAC_MlmeSetReq?relay,00H
        EXTERN ??MT_BuildAndSendZToolResponse?relay
        FUNCTION ??MT_BuildAndSendZToolResponse?relay,00H
        EXTERN ??Onboard_rand?relay
        FUNCTION ??Onboard_rand?relay,00H
        EXTERN ??ZMacGetReq?relay
        FUNCTION ??ZMacGetReq?relay,00H
        EXTERN ??ZMacSetReq?relay
        FUNCTION ??ZMacSetReq?relay,00H
        EXTERN ??macRadioSetTxPower?relay
        FUNCTION ??macRadioSetTxPower?relay,00H
        EXTERN ??osal_ConvertUTCSecs?relay
        FUNCTION ??osal_ConvertUTCSecs?relay,00H
        EXTERN ??osal_ConvertUTCTime?relay
        FUNCTION ??osal_ConvertUTCTime?relay,00H
        EXTERN ??osal_buffer_uint32?relay
        FUNCTION ??osal_buffer_uint32?relay,00H
        EXTERN ??osal_build_uint16?relay
        FUNCTION ??osal_build_uint16?relay,00H
        EXTERN ??osal_build_uint32?relay
        FUNCTION ??osal_build_uint32?relay,00H
        EXTERN ??osal_getClock?relay
        FUNCTION ??osal_getClock?relay,00H
        EXTERN ??osal_mem_alloc?relay
        FUNCTION ??osal_mem_alloc?relay,00H
        EXTERN ??osal_mem_free?relay
        FUNCTION ??osal_mem_free?relay,00H
        EXTERN ??osal_memcpy?relay
        FUNCTION ??osal_memcpy?relay,00H
        EXTERN ??osal_memset?relay
        FUNCTION ??osal_memset?relay,00H
        EXTERN ??osal_nv_delete?relay
        FUNCTION ??osal_nv_delete?relay,00H
        EXTERN ??osal_nv_item_init?relay
        FUNCTION ??osal_nv_item_init?relay,00H
        EXTERN ??osal_nv_item_len?relay
        FUNCTION ??osal_nv_item_len?relay,00H
        EXTERN ??osal_nv_read?relay
        FUNCTION ??osal_nv_read?relay,00H
        EXTERN ??osal_nv_write?relay
        FUNCTION ??osal_nv_write?relay,00H
        EXTERN ??osal_setClock?relay
        FUNCTION ??osal_setClock?relay,00H
        EXTERN ??osal_start_timerEx?relay
        FUNCTION ??osal_start_timerEx?relay,00H
        EXTERN ??osal_stop_timerEx?relay
        FUNCTION ??osal_stop_timerEx?relay,00H
        EXTERN ??zgSetItem?relay
        FUNCTION ??zgSetItem?relay,00H
        EXTERN MTVersionString
        EXTERN MT_TaskID

// C:\Users\25814\Desktop\6.ZStack-2.5.1a¹¤³ÌÄ£°å\Components\mt\MT_SYS.c
//    1 /******************************************************************************
//    2   Filename:       MT_SYS.c
//    3   Revised:        $Date: 2012-03-07 01:04:58 -0800 (Wed, 07 Mar 2012) $
//    4   Revision:       $Revision: 29656 $
//    5 
//    6   Description:   MonitorTest functions for SYS commands.
//    7 
//    8   Copyright 2007-2012 Texas Instruments Incorporated. All rights reserved.
//    9 
//   10   IMPORTANT: Your use of this Software is limited to those specific rights
//   11   granted under the terms of a software license agreement between the user
//   12   who downloaded the software, his/her employer (which must be your employer)
//   13   and Texas Instruments Incorporated (the "License"). You may not use this
//   14   Software unless you agree to abide by the terms of the License. The License
//   15   limits your use, and you acknowledge, that the Software may not be modified,
//   16   copied or distributed unless embedded on a Texas Instruments microcontroller
//   17   or used solely and exclusively in conjunction with a Texas Instruments radio
//   18   frequency transceiver, which is integrated into your product. Other than for
//   19   the foregoing purpose, you may not use, reproduce, copy, prepare derivative
//   20   works of, modify, distribute, perform, display or sell this Software and/or
//   21   its documentation for any purpose.
//   22 
//   23   YOU FURTHER ACKNOWLEDGE AND AGREE THAT THE SOFTWARE AND DOCUMENTATION ARE
//   24   PROVIDED “AS IS” WITHOUT WARRANTY OF ANY KIND, EITHER EXPRESS OR IMPLIED,
//   25   INCLUDING WITHOUT LIMITATION, ANY WARRANTY OF MERCHANTABILITY, TITLE,
//   26   NON-INFRINGEMENT AND FITNESS FOR A PARTICULAR PURPOSE. IN NO EVENT SHALL
//   27   TEXAS INSTRUMENTS OR ITS LICENSORS BE LIABLE OR OBLIGATED UNDER CONTRACT,
//   28   NEGLIGENCE, STRICT LIABILITY, CONTRIBUTION, BREACH OF WARRANTY, OR OTHER
//   29   LEGAL EQUITABLE THEORY ANY DIRECT OR INDIRECT DAMAGES OR EXPENSES
//   30   INCLUDING BUT NOT LIMITED TO ANY INCIDENTAL, SPECIAL, INDIRECT, PUNITIVE
//   31   OR CONSEQUENTIAL DAMAGES, LOST PROFITS OR LOST DATA, COST OF PROCUREMENT
//   32   OF SUBSTITUTE GOODS, TECHNOLOGY, SERVICES, OR ANY CLAIMS BY THIRD PARTIES
//   33   (INCLUDING BUT NOT LIMITED TO ANY DEFENSE THEREOF), OR OTHER SIMILAR COSTS.
//   34 
//   35   Should you have any questions regarding your right to use this Software,
//   36   contact Texas Instruments Incorporated at www.TI.com.
//   37 
//   38  *****************************************************************************/
//   39 
//   40 /***************************************************************************************************
//   41  * INCLUDES
//   42  ***************************************************************************************************/
//   43 #include "ZComDef.h"
//   44 #include "MT.h"
//   45 #include "MT_SYS.h"
//   46 #include "MT_VERSION.h"
//   47 #include "nwk_util.h"
//   48 #include "OSAL.h"
//   49 #include "OSAL_NV.h"
//   50 #include "Onboard.h"  /* This is here because RAM read/write macros need it */

        ASEGN SFR_AN:DATA:NOROOT,09dH
// unsigned char volatile __sfr SLEEPSTA
SLEEPSTA:
        DATA8
        DS 1

        ASEGN SFR_AN:DATA:NOROOT,0a8H
// union <unnamed> volatile __sfr _A_IEN0
_A_IEN0:
        DATA8
        DS 1

        ASEGN SFR_AN:DATA:NOROOT,0c9H
// unsigned char volatile __sfr WDCTL
WDCTL:
        DATA8
        DS 1
//   51 #include "hal_adc.h"
//   52 #include "ZGlobals.h"
//   53 #include "OSAL_Clock.h"
//   54 #include "mac_low_level.h"
//   55 
//   56 /***************************************************************************************************
//   57  * MACROS
//   58  ***************************************************************************************************/
//   59 
//   60 #define MT_SYS_DEVICE_INFO_RESPONSE_LEN 14
//   61 #define MT_NV_ITEM_MAX_LENGTH           250
//   62 
//   63 #if !defined HAL_GPIO || !HAL_GPIO
//   64 #define GPIO_DIR_IN(IDX)
//   65 #define GPIO_DIR_OUT(IDX)
//   66 #define GPIO_TRI(IDX)
//   67 #define GPIO_PULL_UP(IDX)
//   68 #define GPIO_PULL_DN(IDX)
//   69 #define GPIO_SET(IDX)
//   70 #define GPIO_CLR(IDX)
//   71 #define GPIO_TOG(IDX)
//   72 #define GPIO_GET(IDX) 0
//   73 #define GPIO_HiD_SET() (val = 0)
//   74 #define GPIO_HiD_CLR() (val = 0)
//   75 #endif
//   76 
//   77 /***************************************************************************************************
//   78  * CONSTANTS
//   79  ***************************************************************************************************/
//   80 
//   81 #if !defined MT_SYS_OSAL_NV_READ_CERTIFICATE_DATA
//   82 #define MT_SYS_OSAL_NV_READ_CERTIFICATE_DATA  FALSE
//   83 #endif
//   84 

        RSEG XDATA_ROM_C:CONST:REORDER:NOROOT(0)
        DATA8
//   85 const uint16 MT_SysOsalEventId [] = {
MT_SysOsalEventId:
        DATA16
        DW 2048
        DW 1024
        DW 512
        DW 256
//   86                                       MT_SYS_OSAL_EVENT_0,
//   87                                       MT_SYS_OSAL_EVENT_1,
//   88                                       MT_SYS_OSAL_EVENT_2,
//   89                                       MT_SYS_OSAL_EVENT_3
//   90                                     };
//   91 
//   92 typedef enum {
//   93   GPIO_DIR,
//   94   GPIO_TRI,
//   95   GPIO_SET,
//   96   GPIO_CLR,
//   97   GPIO_TOG,
//   98   GPIO_GET,
//   99   GPIO_HiD = 0x12
//  100 } GPIO_Op_t;
//  101 
//  102 /***************************************************************************************************
//  103  * LOCAL FUNCTIONS
//  104  ***************************************************************************************************/
//  105 #if defined (MT_SYS_FUNC)
//  106 void MT_SysReset(uint8 *pBuf);
//  107 void MT_SysPing(void);
//  108 void MT_SysVersion(void);
//  109 void MT_SysSetExtAddr(uint8 *pBuf);
//  110 void MT_SysGetExtAddr(void);
//  111 void MT_SysOsalNVItemInit(uint8 *pBuf);
//  112 void MT_SysOsalNVDelete(uint8 *pBuf);
//  113 void MT_SysOsalNVLength(uint8 *pBuf);
//  114 void MT_SysOsalNVRead(uint8 *pBuf);
//  115 void MT_SysOsalNVWrite(uint8 *pBuf);
//  116 void MT_SysOsalStartTimer(uint8 *pBuf);
//  117 void MT_SysOsalStopTimer(uint8 *pBuf);
//  118 void MT_SysRandom(void);
//  119 void MT_SysAdcRead(uint8 *pBuf);
//  120 void MT_SysGpio(uint8 *pBuf);
//  121 void MT_SysStackTune(uint8 *pBuf);
//  122 void MT_SysGetDeviceInfo(uint8 *pBuf);
//  123 void MT_SysSetUtcTime(uint8 *pBuf);
//  124 void MT_SysGetUtcTime(void);
//  125 void MT_SysSetTxPower(uint8 *pBuf);
//  126 #endif /* MT_SYS_FUNC */
//  127 
//  128 #if defined (MT_SYS_FUNC)
//  129 /***************************************************************************************************
//  130  * @fn      MT_SysProcessing
//  131  *
//  132  * @brief   Process all the SYS commands that are issued by test tool
//  133  *
//  134  * @param   pBuf - pointer to the msg buffer
//  135  *
//  136  *          | LEN  | CMD0  | CMD1  |  DATA  |
//  137  *          |  1   |   1   |   1   |  0-255 |
//  138  *
//  139  * @return  status
//  140  ***************************************************************************************************/

        RSEG BANKED_CODE:CODE:NOROOT(0)
//  141 uint8 MT_SysCommandProcessing(uint8 *pBuf)
MT_SysCommandProcessing:
        CFI Block cfiBlock0 Using cfiCommon0
        CFI Function MT_SysCommandProcessing
        CODE
//  142 {
        FUNCALL MT_SysCommandProcessing, MT_SysReset
        LOCFRAME ISTACK, 0, STACK
        LOCFRAME PSTACK, 0, STACK
        LOCFRAME XSTACK, 9, STACK
        LOCFRAME IOVERLAY, 0, STATIC
        LOCFRAME DOVERLAY, 0, STATIC
        ARGFRAME ISTACK, 0, STACK
        ARGFRAME PSTACK, 0, STACK
        ARGFRAME XSTACK, 9, STACK
        ARGFRAME IOVERLAY, 0, STATIC
        ARGFRAME DOVERLAY, 0, STATIC
        FUNCALL MT_SysCommandProcessing, MT_SysPing
        LOCFRAME ISTACK, 0, STACK
        LOCFRAME PSTACK, 0, STACK
        LOCFRAME XSTACK, 9, STACK
        LOCFRAME IOVERLAY, 0, STATIC
        LOCFRAME DOVERLAY, 0, STATIC
        ARGFRAME ISTACK, 0, STACK
        ARGFRAME PSTACK, 0, STACK
        ARGFRAME XSTACK, 9, STACK
        ARGFRAME IOVERLAY, 0, STATIC
        ARGFRAME DOVERLAY, 0, STATIC
        FUNCALL MT_SysCommandProcessing, MT_SysVersion
        LOCFRAME ISTACK, 0, STACK
        LOCFRAME PSTACK, 0, STACK
        LOCFRAME XSTACK, 9, STACK
        LOCFRAME IOVERLAY, 0, STATIC
        LOCFRAME DOVERLAY, 0, STATIC
        ARGFRAME ISTACK, 0, STACK
        ARGFRAME PSTACK, 0, STACK
        ARGFRAME XSTACK, 9, STACK
        ARGFRAME IOVERLAY, 0, STATIC
        ARGFRAME DOVERLAY, 0, STATIC
        FUNCALL MT_SysCommandProcessing, MT_SysSetExtAddr
        LOCFRAME ISTACK, 0, STACK
        LOCFRAME PSTACK, 0, STACK
        LOCFRAME XSTACK, 9, STACK
        LOCFRAME IOVERLAY, 0, STATIC
        LOCFRAME DOVERLAY, 0, STATIC
        ARGFRAME ISTACK, 0, STACK
        ARGFRAME PSTACK, 0, STACK
        ARGFRAME XSTACK, 9, STACK
        ARGFRAME IOVERLAY, 0, STATIC
        ARGFRAME DOVERLAY, 0, STATIC
        FUNCALL MT_SysCommandProcessing, MT_SysGetExtAddr
        LOCFRAME ISTACK, 0, STACK
        LOCFRAME PSTACK, 0, STACK
        LOCFRAME XSTACK, 9, STACK
        LOCFRAME IOVERLAY, 0, STATIC
        LOCFRAME DOVERLAY, 0, STATIC
        ARGFRAME ISTACK, 0, STACK
        ARGFRAME PSTACK, 0, STACK
        ARGFRAME XSTACK, 9, STACK
        ARGFRAME IOVERLAY, 0, STATIC
        ARGFRAME DOVERLAY, 0, STATIC
        FUNCALL MT_SysCommandProcessing, MT_SysOsalNVDelete
        LOCFRAME ISTACK, 0, STACK
        LOCFRAME PSTACK, 0, STACK
        LOCFRAME XSTACK, 9, STACK
        LOCFRAME IOVERLAY, 0, STATIC
        LOCFRAME DOVERLAY, 0, STATIC
        ARGFRAME ISTACK, 0, STACK
        ARGFRAME PSTACK, 0, STACK
        ARGFRAME XSTACK, 9, STACK
        ARGFRAME IOVERLAY, 0, STATIC
        ARGFRAME DOVERLAY, 0, STATIC
        FUNCALL MT_SysCommandProcessing, MT_SysOsalNVItemInit
        LOCFRAME ISTACK, 0, STACK
        LOCFRAME PSTACK, 0, STACK
        LOCFRAME XSTACK, 9, STACK
        LOCFRAME IOVERLAY, 0, STATIC
        LOCFRAME DOVERLAY, 0, STATIC
        ARGFRAME ISTACK, 0, STACK
        ARGFRAME PSTACK, 0, STACK
        ARGFRAME XSTACK, 9, STACK
        ARGFRAME IOVERLAY, 0, STATIC
        ARGFRAME DOVERLAY, 0, STATIC
        FUNCALL MT_SysCommandProcessing, MT_SysOsalNVLength
        LOCFRAME ISTACK, 0, STACK
        LOCFRAME PSTACK, 0, STACK
        LOCFRAME XSTACK, 9, STACK
        LOCFRAME IOVERLAY, 0, STATIC
        LOCFRAME DOVERLAY, 0, STATIC
        ARGFRAME ISTACK, 0, STACK
        ARGFRAME PSTACK, 0, STACK
        ARGFRAME XSTACK, 9, STACK
        ARGFRAME IOVERLAY, 0, STATIC
        ARGFRAME DOVERLAY, 0, STATIC
        FUNCALL MT_SysCommandProcessing, MT_SysOsalNVRead
        LOCFRAME ISTACK, 0, STACK
        LOCFRAME PSTACK, 0, STACK
        LOCFRAME XSTACK, 9, STACK
        LOCFRAME IOVERLAY, 0, STATIC
        LOCFRAME DOVERLAY, 0, STATIC
        ARGFRAME ISTACK, 0, STACK
        ARGFRAME PSTACK, 0, STACK
        ARGFRAME XSTACK, 9, STACK
        ARGFRAME IOVERLAY, 0, STATIC
        ARGFRAME DOVERLAY, 0, STATIC
        FUNCALL MT_SysCommandProcessing, MT_SysOsalNVWrite
        LOCFRAME ISTACK, 0, STACK
        LOCFRAME PSTACK, 0, STACK
        LOCFRAME XSTACK, 9, STACK
        LOCFRAME IOVERLAY, 0, STATIC
        LOCFRAME DOVERLAY, 0, STATIC
        ARGFRAME ISTACK, 0, STACK
        ARGFRAME PSTACK, 0, STACK
        ARGFRAME XSTACK, 9, STACK
        ARGFRAME IOVERLAY, 0, STATIC
        ARGFRAME DOVERLAY, 0, STATIC
        FUNCALL MT_SysCommandProcessing, MT_SysOsalStartTimer
        LOCFRAME ISTACK, 0, STACK
        LOCFRAME PSTACK, 0, STACK
        LOCFRAME XSTACK, 9, STACK
        LOCFRAME IOVERLAY, 0, STATIC
        LOCFRAME DOVERLAY, 0, STATIC
        ARGFRAME ISTACK, 0, STACK
        ARGFRAME PSTACK, 0, STACK
        ARGFRAME XSTACK, 9, STACK
        ARGFRAME IOVERLAY, 0, STATIC
        ARGFRAME DOVERLAY, 0, STATIC
        FUNCALL MT_SysCommandProcessing, MT_SysOsalStopTimer
        LOCFRAME ISTACK, 0, STACK
        LOCFRAME PSTACK, 0, STACK
        LOCFRAME XSTACK, 9, STACK
        LOCFRAME IOVERLAY, 0, STATIC
        LOCFRAME DOVERLAY, 0, STATIC
        ARGFRAME ISTACK, 0, STACK
        ARGFRAME PSTACK, 0, STACK
        ARGFRAME XSTACK, 9, STACK
        ARGFRAME IOVERLAY, 0, STATIC
        ARGFRAME DOVERLAY, 0, STATIC
        FUNCALL MT_SysCommandProcessing, MT_SysRandom
        LOCFRAME ISTACK, 0, STACK
        LOCFRAME PSTACK, 0, STACK
        LOCFRAME XSTACK, 9, STACK
        LOCFRAME IOVERLAY, 0, STATIC
        LOCFRAME DOVERLAY, 0, STATIC
        ARGFRAME ISTACK, 0, STACK
        ARGFRAME PSTACK, 0, STACK
        ARGFRAME XSTACK, 9, STACK
        ARGFRAME IOVERLAY, 0, STATIC
        ARGFRAME DOVERLAY, 0, STATIC
        FUNCALL MT_SysCommandProcessing, MT_SysAdcRead
        LOCFRAME ISTACK, 0, STACK
        LOCFRAME PSTACK, 0, STACK
        LOCFRAME XSTACK, 9, STACK
        LOCFRAME IOVERLAY, 0, STATIC
        LOCFRAME DOVERLAY, 0, STATIC
        ARGFRAME ISTACK, 0, STACK
        ARGFRAME PSTACK, 0, STACK
        ARGFRAME XSTACK, 9, STACK
        ARGFRAME IOVERLAY, 0, STATIC
        ARGFRAME DOVERLAY, 0, STATIC
        FUNCALL MT_SysCommandProcessing, MT_SysGpio
        LOCFRAME ISTACK, 0, STACK
        LOCFRAME PSTACK, 0, STACK
        LOCFRAME XSTACK, 9, STACK
        LOCFRAME IOVERLAY, 0, STATIC
        LOCFRAME DOVERLAY, 0, STATIC
        ARGFRAME ISTACK, 0, STACK
        ARGFRAME PSTACK, 0, STACK
        ARGFRAME XSTACK, 9, STACK
        ARGFRAME IOVERLAY, 0, STATIC
        ARGFRAME DOVERLAY, 0, STATIC
        FUNCALL MT_SysCommandProcessing, MT_SysStackTune
        LOCFRAME ISTACK, 0, STACK
        LOCFRAME PSTACK, 0, STACK
        LOCFRAME XSTACK, 9, STACK
        LOCFRAME IOVERLAY, 0, STATIC
        LOCFRAME DOVERLAY, 0, STATIC
        ARGFRAME ISTACK, 0, STACK
        ARGFRAME PSTACK, 0, STACK
        ARGFRAME XSTACK, 9, STACK
        ARGFRAME IOVERLAY, 0, STATIC
        ARGFRAME DOVERLAY, 0, STATIC
        FUNCALL MT_SysCommandProcessing, MT_SysSetUtcTime
        LOCFRAME ISTACK, 0, STACK
        LOCFRAME PSTACK, 0, STACK
        LOCFRAME XSTACK, 9, STACK
        LOCFRAME IOVERLAY, 0, STATIC
        LOCFRAME DOVERLAY, 0, STATIC
        ARGFRAME ISTACK, 0, STACK
        ARGFRAME PSTACK, 0, STACK
        ARGFRAME XSTACK, 9, STACK
        ARGFRAME IOVERLAY, 0, STATIC
        ARGFRAME DOVERLAY, 0, STATIC
        FUNCALL MT_SysCommandProcessing, MT_SysGetUtcTime
        LOCFRAME ISTACK, 0, STACK
        LOCFRAME PSTACK, 0, STACK
        LOCFRAME XSTACK, 9, STACK
        LOCFRAME IOVERLAY, 0, STATIC
        LOCFRAME DOVERLAY, 0, STATIC
        ARGFRAME ISTACK, 0, STACK
        ARGFRAME PSTACK, 0, STACK
        ARGFRAME XSTACK, 9, STACK
        ARGFRAME IOVERLAY, 0, STATIC
        ARGFRAME DOVERLAY, 0, STATIC
        FUNCALL MT_SysCommandProcessing, MT_SysSetTxPower
        LOCFRAME ISTACK, 0, STACK
        LOCFRAME PSTACK, 0, STACK
        LOCFRAME XSTACK, 9, STACK
        LOCFRAME IOVERLAY, 0, STATIC
        LOCFRAME DOVERLAY, 0, STATIC
        ARGFRAME ISTACK, 0, STACK
        ARGFRAME PSTACK, 0, STACK
        ARGFRAME XSTACK, 9, STACK
        ARGFRAME IOVERLAY, 0, STATIC
        ARGFRAME DOVERLAY, 0, STATIC
        MOV     A,#-0x9
        LCALL   ?BANKED_ENTER_XDATA
        CFI DPH0 load(1, XDATA, add(CFA_XSP16, literal(-1)))
        CFI DPL0 load(1, XDATA, add(CFA_XSP16, literal(-2)))
        CFI ?BRET_EXT load(1, XDATA, add(CFA_XSP16, literal(-3)))
        CFI ?RET_HIGH load(1, XDATA, add(CFA_XSP16, literal(-4)))
        CFI ?RET_LOW load(1, XDATA, add(CFA_XSP16, literal(-5)))
        CFI R7 load(1, XDATA, add(CFA_XSP16, literal(-6)))
        CFI V0 load(1, XDATA, add(CFA_XSP16, literal(-7)))
        CFI VB load(1, XDATA, add(CFA_XSP16, literal(-8)))
        CFI R6 load(1, XDATA, add(CFA_XSP16, literal(-9)))
        CFI CFA_SP SP+0
        CFI CFA_XSP16 add(XSP16, 9)
        ; Saved register size: 9
        ; Auto size: 0
//  143   uint8 status = MT_RPC_SUCCESS;
        MOV     R6,#0x0
//  144 
//  145   switch (pBuf[MT_RPC_POS_CMD1])
        MOV     DPL,R2
        MOV     DPH,R3
        INC     DPTR
        INC     DPTR
        MOVX    A,@DPTR
        LCALL   ?UC_SWITCH_DENSE
`?<Jumptable for MT_SysCommandProcessing>_0`:
        DATA
        DATA8
        DATA
        DATA8
        DB        0
        DATA
        DATA8
        DATA
        DATA8
        DB        20
        DATA
        DATA16
        DATA
        DATA16
        DW        ??MT_SysCommandProcessing_0
        DATA
        DATA16
        DATA
        DATA16
        DW        ??MT_SysCommandProcessing_1
        DATA
        DATA16
        DATA
        DATA16
        DW        ??MT_SysCommandProcessing_2
        DATA
        DATA16
        DATA
        DATA16
        DW        ??MT_SysCommandProcessing_3
        DATA
        DATA16
        DATA
        DATA16
        DW        ??MT_SysCommandProcessing_4
        DATA
        DATA16
        DATA
        DATA16
        DW        ??MT_SysCommandProcessing_5
        DATA
        DATA16
        DATA
        DATA16
        DW        ??MT_SysCommandProcessing_0
        DATA
        DATA16
        DATA
        DATA16
        DW        ??MT_SysCommandProcessing_0
        DATA
        DATA16
        DATA
        DATA16
        DW        ??MT_SysCommandProcessing_6
        DATA
        DATA16
        DATA
        DATA16
        DW        ??MT_SysCommandProcessing_7
        DATA
        DATA16
        DATA
        DATA16
        DW        ??MT_SysCommandProcessing_8
        DATA
        DATA16
        DATA
        DATA16
        DW        ??MT_SysCommandProcessing_9
        DATA
        DATA16
        DATA
        DATA16
        DW        ??MT_SysCommandProcessing_10
        DATA
        DATA16
        DATA
        DATA16
        DW        ??MT_SysCommandProcessing_11
        DATA
        DATA16
        DATA
        DATA16
        DW        ??MT_SysCommandProcessing_12
        DATA
        DATA16
        DATA
        DATA16
        DW        ??MT_SysCommandProcessing_13
        DATA
        DATA16
        DATA
        DATA16
        DW        ??MT_SysCommandProcessing_14
        DATA
        DATA16
        DATA
        DATA16
        DW        ??MT_SysCommandProcessing_15
        DATA
        DATA16
        DATA
        DATA16
        DW        ??MT_SysCommandProcessing_16
        DATA
        DATA16
        DATA
        DATA16
        DW        ??MT_SysCommandProcessing_17
        DATA
        DATA16
        DATA
        DATA16
        DW        ??MT_SysCommandProcessing_18
        DATA
        DATA16
        DATA
        DATA16
        DW        ??MT_SysCommandProcessing_19
        CODE
//  146   {
//  147     case MT_SYS_RESET_REQ:
//  148       MT_SysReset(pBuf);
??MT_SysCommandProcessing_1:
        ; Setup parameters for call to function MT_SysReset
        LCALL   ??MT_SysReset?relay
//  149       break;
        SJMP    ??MT_SysCommandProcessing_20
//  150 
//  151     case MT_SYS_PING:
//  152       MT_SysPing();
??MT_SysCommandProcessing_2:
        ; Setup parameters for call to function MT_SysPing
        LCALL   ??MT_SysPing?relay
//  153       break;
        SJMP    ??MT_SysCommandProcessing_20
//  154 
//  155     case MT_SYS_VERSION:
//  156       MT_SysVersion();
??MT_SysCommandProcessing_3:
        ; Setup parameters for call to function MT_SysVersion
        LCALL   ??MT_SysVersion?relay
//  157       break;
        SJMP    ??MT_SysCommandProcessing_20
//  158 
//  159     case MT_SYS_SET_EXTADDR:
//  160       MT_SysSetExtAddr(pBuf);
??MT_SysCommandProcessing_4:
        ; Setup parameters for call to function MT_SysSetExtAddr
        LCALL   ??MT_SysSetExtAddr?relay
//  161       break;
        SJMP    ??MT_SysCommandProcessing_20
//  162 
//  163     case MT_SYS_GET_EXTADDR:
//  164       MT_SysGetExtAddr();
??MT_SysCommandProcessing_5:
        ; Setup parameters for call to function MT_SysGetExtAddr
        LCALL   ??MT_SysGetExtAddr?relay
//  165       break;
        SJMP    ??MT_SysCommandProcessing_20
//  166 
//  167 // CC253X MAC Network Processor does not have NV support
//  168 #if !defined(CC253X_MACNP)
//  169     case MT_SYS_OSAL_NV_DELETE:
//  170       MT_SysOsalNVDelete(pBuf);
??MT_SysCommandProcessing_17:
        ; Setup parameters for call to function MT_SysOsalNVDelete
        LCALL   ??MT_SysOsalNVDelete?relay
//  171       break;
        SJMP    ??MT_SysCommandProcessing_20
//  172 
//  173     case MT_SYS_OSAL_NV_ITEM_INIT:
//  174       MT_SysOsalNVItemInit(pBuf);
??MT_SysCommandProcessing_6:
        ; Setup parameters for call to function MT_SysOsalNVItemInit
        LCALL   ??MT_SysOsalNVItemInit?relay
//  175       break;
        SJMP    ??MT_SysCommandProcessing_20
//  176 
//  177     case MT_SYS_OSAL_NV_LENGTH:
//  178       MT_SysOsalNVLength(pBuf);
??MT_SysCommandProcessing_18:
        ; Setup parameters for call to function MT_SysOsalNVLength
        LCALL   ??MT_SysOsalNVLength?relay
//  179       break;
        SJMP    ??MT_SysCommandProcessing_20
//  180 
//  181     case MT_SYS_OSAL_NV_READ:
//  182       MT_SysOsalNVRead(pBuf);
??MT_SysCommandProcessing_7:
        ; Setup parameters for call to function MT_SysOsalNVRead
        LCALL   ??MT_SysOsalNVRead?relay
//  183       break;
        SJMP    ??MT_SysCommandProcessing_20
//  184 
//  185     case MT_SYS_OSAL_NV_WRITE:
//  186       MT_SysOsalNVWrite(pBuf);
??MT_SysCommandProcessing_8:
        ; Setup parameters for call to function MT_SysOsalNVWrite
        LCALL   ??MT_SysOsalNVWrite?relay
//  187       break;
        SJMP    ??MT_SysCommandProcessing_20
//  188 #endif
//  189 
//  190     case MT_SYS_OSAL_START_TIMER:
//  191       MT_SysOsalStartTimer(pBuf);
??MT_SysCommandProcessing_9:
        ; Setup parameters for call to function MT_SysOsalStartTimer
        LCALL   ??MT_SysOsalStartTimer?relay
//  192       break;
        SJMP    ??MT_SysCommandProcessing_20
//  193 
//  194     case MT_SYS_OSAL_STOP_TIMER:
//  195       MT_SysOsalStopTimer(pBuf);
??MT_SysCommandProcessing_10:
        ; Setup parameters for call to function MT_SysOsalStopTimer
        LCALL   ??MT_SysOsalStopTimer?relay
//  196       break;
        SJMP    ??MT_SysCommandProcessing_20
//  197 
//  198     case MT_SYS_RANDOM:
//  199       MT_SysRandom();
??MT_SysCommandProcessing_11:
        ; Setup parameters for call to function MT_SysRandom
        LCALL   ??MT_SysRandom?relay
//  200       break;
        SJMP    ??MT_SysCommandProcessing_20
//  201 
//  202     case MT_SYS_ADC_READ:
//  203       MT_SysAdcRead(pBuf);
??MT_SysCommandProcessing_12:
        ; Setup parameters for call to function MT_SysAdcRead
        LCALL   ??MT_SysAdcRead?relay
//  204       break;
        SJMP    ??MT_SysCommandProcessing_20
//  205 
//  206     case MT_SYS_GPIO:
//  207       MT_SysGpio(pBuf);
??MT_SysCommandProcessing_13:
        ; Setup parameters for call to function MT_SysGpio
        LCALL   ??MT_SysGpio?relay
//  208       break;
        SJMP    ??MT_SysCommandProcessing_20
//  209 
//  210     case MT_SYS_STACK_TUNE:
//  211       MT_SysStackTune(pBuf);
??MT_SysCommandProcessing_14:
        ; Setup parameters for call to function MT_SysStackTune
        LCALL   ??MT_SysStackTune?relay
//  212       break;
        SJMP    ??MT_SysCommandProcessing_20
//  213 
//  214     case MT_SYS_SET_TIME:
//  215       MT_SysSetUtcTime(pBuf);
??MT_SysCommandProcessing_15:
        ; Setup parameters for call to function MT_SysSetUtcTime
        LCALL   ??MT_SysSetUtcTime?relay
//  216       break;
        SJMP    ??MT_SysCommandProcessing_20
//  217 
//  218     case MT_SYS_GET_TIME:
//  219       MT_SysGetUtcTime();
??MT_SysCommandProcessing_16:
        ; Setup parameters for call to function MT_SysGetUtcTime
        LCALL   ??MT_SysGetUtcTime?relay
//  220       break;
        SJMP    ??MT_SysCommandProcessing_20
//  221 
//  222     case MT_SYS_SET_TX_POWER:
//  223       MT_SysSetTxPower(pBuf);
??MT_SysCommandProcessing_19:
        ; Setup parameters for call to function MT_SysSetTxPower
        LCALL   ??MT_SysSetTxPower?relay
//  224       break;
        SJMP    ??MT_SysCommandProcessing_20
//  225 
//  226     default:
//  227       status = MT_RPC_ERR_COMMAND_ID;
??MT_SysCommandProcessing_0:
        INC     R6
        INC     R6
//  228       break;
//  229   }
//  230 
//  231   return status;
??MT_SysCommandProcessing_20:
        MOV     A,R6
        MOV     R1,A
        LJMP    ??Subroutine30_0 & 0xFFFF
        CFI EndBlock cfiBlock0
//  232 }
//  233 
//  234 /**************************************************************************************************
//  235  * @fn      MT_SysReset
//  236  *
//  237  * @brief   Reset the device.
//  238  * @param   typID: 0=reset, 1=serial bootloader
//  239  *
//  240  * @return  None
//  241  *************************************************************************************************/

        RSEG BANKED_CODE:CODE:NOROOT(0)
//  242 void MT_SysReset(uint8 *pBuf)
MT_SysReset:
        CFI Block cfiBlock1 Using cfiCommon0
        CFI Function MT_SysReset
        CODE
//  243 {
        FUNCALL MT_SysReset, Onboard_soft_reset
        LOCFRAME ISTACK, 2, STACK
        LOCFRAME PSTACK, 0, STACK
        LOCFRAME XSTACK, 0, STACK
        LOCFRAME IOVERLAY, 0, STATIC
        LOCFRAME DOVERLAY, 0, STATIC
        ARGFRAME ISTACK, 2, STACK
        ARGFRAME PSTACK, 0, STACK
        ARGFRAME XSTACK, 0, STACK
        ARGFRAME IOVERLAY, 0, STATIC
        ARGFRAME DOVERLAY, 0, STATIC
        PUSH    DPL
        CFI DPL0 Frame(CFA_SP, 4)
        CFI CFA_SP SP+-4
        PUSH    DPH
        CFI DPH0 Frame(CFA_SP, 5)
        CFI CFA_SP SP+-5
        ; Saved register size: 2
        ; Auto size: 0
//  244   if (pBuf[MT_RPC_POS_DAT0] == 0)
        MOV     DPL,R2
        MOV     DPH,R3
        INC     DPTR
        INC     DPTR
        INC     DPTR
        MOVX    A,@DPTR
        JNZ     ??MT_SysReset_0
//  245   {
//  246     SystemReset();
        CLR     0xa8.7
        CLR     0xa8.7
        MOV     0xc9,#-0x55
        MOV     0xc9,#0x5b
??MT_SysReset_1:
        SJMP    ??MT_SysReset_1
//  247   }
//  248 #if !(defined(HAL_BOARD_F2618) || defined(HAL_BOARD_F5438) || defined(HAL_BOARD_LM3S))
//  249   else
//  250   {
//  251     SystemResetSoft();  // Especially useful for CC2531 to not break comm with USB Host.
??MT_SysReset_0:
        ; Setup parameters for call to function Onboard_soft_reset
        LCALL   Onboard_soft_reset & 0xFFFF
//  252   }
//  253 #endif
//  254 
//  255 }
        LJMP    ??Subroutine34_0 & 0xFFFF
        CFI EndBlock cfiBlock1
        REQUIRE _A_IEN0
        REQUIRE WDCTL
//  256 
//  257 /***************************************************************************************************
//  258  * @fn      MT_SysPing
//  259  *
//  260  * @brief   Process the Ping command
//  261  *
//  262  * @param   None
//  263  *
//  264  * @return  None
//  265  ***************************************************************************************************/

        RSEG BANKED_CODE:CODE:NOROOT(0)
//  266 void MT_SysPing(void)
MT_SysPing:
        CFI Block cfiBlock2 Using cfiCommon0
        CFI Function MT_SysPing
        CODE
//  267 {
        FUNCALL MT_SysPing, MT_BuildAndSendZToolResponse
        LOCFRAME ISTACK, 2, STACK
        LOCFRAME PSTACK, 0, STACK
        LOCFRAME XSTACK, 2, STACK
        LOCFRAME IOVERLAY, 0, STATIC
        LOCFRAME DOVERLAY, 0, STATIC
        ARGFRAME ISTACK, 2, STACK
        ARGFRAME PSTACK, 0, STACK
        ARGFRAME XSTACK, 2, STACK
        ARGFRAME IOVERLAY, 0, STATIC
        ARGFRAME DOVERLAY, 0, STATIC
        PUSH    DPL
        CFI DPL0 Frame(CFA_SP, 4)
        CFI CFA_SP SP+-4
        PUSH    DPH
        CFI DPH0 Frame(CFA_SP, 5)
        CFI CFA_SP SP+-5
        ; Saved register size: 2
        ; Auto size: 2
        MOV     A,#-0x2
        LCALL   ?ALLOC_XSTACK8
        CFI CFA_XSP16 add(XSP16, 2)
//  268   uint16 tmp16;
//  269   uint8 retArray[2];
//  270 
//  271   /* Build Capabilities */
//  272   tmp16 = MT_CAP_SYS | MT_CAP_MAC | MT_CAP_NWK | MT_CAP_AF | MT_CAP_ZDO |
//  273           MT_CAP_SAPI | MT_CAP_UTIL | MT_CAP_DEBUG | MT_CAP_APP | MT_CAP_ZOAD;
//  274 
//  275   /* Convert to high byte first into temp buffer */
//  276   retArray[0] = LO_UINT16( tmp16 );
        MOV     DPL,?XSP + 0
        MOV     DPH,?XSP + 1
        MOV     A,#0x11
        MOVX    @DPTR,A
//  277   retArray[1] = HI_UINT16( tmp16 );
        MOV     A,#0x1
        LCALL   ?XSTACK_DISP0_8
        CLR     A
        LCALL   ??Subroutine31_0 & 0xFFFF
//  278 
//  279   /* Build and send back the response */
//  280   MT_BuildAndSendZToolResponse(((uint8)MT_RPC_CMD_SRSP | (uint8)MT_RPC_SYS_SYS), MT_SYS_PING,
//  281                                 sizeof (tmp16), retArray );
??CrossCallReturnLabel_50:
        MOV     R2,#0x1
        LJMP    ?Subroutine1 & 0xFFFF
        CFI EndBlock cfiBlock2
//  282 }
//  283 
//  284 /***************************************************************************************************
//  285  * @fn      MT_SysVersion
//  286  *
//  287  * @brief   Process the Version command
//  288  *
//  289  * @param   None
//  290  *
//  291  * @return  None
//  292  ***************************************************************************************************/

        RSEG BANKED_CODE:CODE:NOROOT(0)
//  293 void MT_SysVersion(void)
MT_SysVersion:
        CFI Block cfiBlock3 Using cfiCommon0
        CFI Function MT_SysVersion
        CODE
//  294 {
        FUNCALL MT_SysVersion, MT_BuildAndSendZToolResponse
        LOCFRAME ISTACK, 2, STACK
        LOCFRAME PSTACK, 0, STACK
        LOCFRAME XSTACK, 0, STACK
        LOCFRAME IOVERLAY, 0, STATIC
        LOCFRAME DOVERLAY, 0, STATIC
        ARGFRAME ISTACK, 2, STACK
        ARGFRAME PSTACK, 0, STACK
        ARGFRAME XSTACK, 0, STACK
        ARGFRAME IOVERLAY, 0, STATIC
        ARGFRAME DOVERLAY, 0, STATIC
        PUSH    DPL
        CFI DPL0 Frame(CFA_SP, 4)
        CFI CFA_SP SP+-4
        PUSH    DPH
        CFI DPH0 Frame(CFA_SP, 5)
        CFI CFA_SP SP+-5
        ; Saved register size: 2
        ; Auto size: 0
//  295   byte *verStr = (byte *)MTVersionString;
//  296   uint8 respLen = sizeof(MTVersionString);
//  297 
//  298   /* Build and send back the response */
//  299   MT_BuildAndSendZToolResponse(((uint8)MT_RPC_CMD_SRSP | (uint8)MT_RPC_SYS_SYS), MT_SYS_VERSION,
//  300                                respLen, verStr);
        ; Setup parameters for call to function MT_BuildAndSendZToolResponse
        MOV     R4,#MTVersionString & 0xff
        MOV     R5,#(MTVersionString >> 8) & 0xff
        MOV     R3,#0x5
        MOV     R2,#0x2
        MOV     R1,#0x61
        LCALL   ??MT_BuildAndSendZToolResponse?relay
//  301 }
        LJMP    ??Subroutine34_0 & 0xFFFF
        CFI EndBlock cfiBlock3
//  302 
//  303 /***************************************************************************************************
//  304  * @fn      MT_SysSetExtAddr
//  305  *
//  306  * @brief   Set the Extended Address
//  307  *
//  308  * @param   pBuf
//  309  *
//  310  * @return  None
//  311  ***************************************************************************************************/

        RSEG BANKED_CODE:CODE:NOROOT(0)
//  312 void MT_SysSetExtAddr(uint8 *pBuf)
MT_SysSetExtAddr:
        CFI Block cfiBlock4 Using cfiCommon0
        CFI Function MT_SysSetExtAddr
        CODE
//  313 {
        FUNCALL MT_SysSetExtAddr, ZMacSetReq
        LOCFRAME ISTACK, 0, STACK
        LOCFRAME PSTACK, 0, STACK
        LOCFRAME XSTACK, 11, STACK
        LOCFRAME IOVERLAY, 0, STATIC
        LOCFRAME DOVERLAY, 0, STATIC
        ARGFRAME ISTACK, 0, STACK
        ARGFRAME PSTACK, 0, STACK
        ARGFRAME XSTACK, 11, STACK
        ARGFRAME IOVERLAY, 0, STATIC
        ARGFRAME DOVERLAY, 0, STATIC
        FUNCALL MT_SysSetExtAddr, osal_nv_write
        LOCFRAME ISTACK, 0, STACK
        LOCFRAME PSTACK, 0, STACK
        LOCFRAME XSTACK, 15, STACK
        LOCFRAME IOVERLAY, 0, STATIC
        LOCFRAME DOVERLAY, 0, STATIC
        ARGFRAME ISTACK, 0, STACK
        ARGFRAME PSTACK, 0, STACK
        ARGFRAME XSTACK, 15, STACK
        ARGFRAME IOVERLAY, 0, STATIC
        ARGFRAME DOVERLAY, 0, STATIC
        FUNCALL MT_SysSetExtAddr, MT_BuildAndSendZToolResponse
        LOCFRAME ISTACK, 0, STACK
        LOCFRAME PSTACK, 0, STACK
        LOCFRAME XSTACK, 11, STACK
        LOCFRAME IOVERLAY, 0, STATIC
        LOCFRAME DOVERLAY, 0, STATIC
        ARGFRAME ISTACK, 0, STACK
        ARGFRAME PSTACK, 0, STACK
        ARGFRAME XSTACK, 11, STACK
        ARGFRAME IOVERLAY, 0, STATIC
        ARGFRAME DOVERLAY, 0, STATIC
        MOV     A,#-0xa
        LCALL   ?BANKED_ENTER_XDATA
        CFI DPH0 load(1, XDATA, add(CFA_XSP16, literal(-1)))
        CFI DPL0 load(1, XDATA, add(CFA_XSP16, literal(-2)))
        CFI ?BRET_EXT load(1, XDATA, add(CFA_XSP16, literal(-3)))
        CFI ?RET_HIGH load(1, XDATA, add(CFA_XSP16, literal(-4)))
        CFI ?RET_LOW load(1, XDATA, add(CFA_XSP16, literal(-5)))
        CFI R7 load(1, XDATA, add(CFA_XSP16, literal(-6)))
        CFI V1 load(1, XDATA, add(CFA_XSP16, literal(-7)))
        CFI V0 load(1, XDATA, add(CFA_XSP16, literal(-8)))
        CFI VB load(1, XDATA, add(CFA_XSP16, literal(-9)))
        CFI R6 load(1, XDATA, add(CFA_XSP16, literal(-10)))
        CFI CFA_SP SP+0
        CFI CFA_XSP16 add(XSP16, 10)
        ; Saved register size: 10
        ; Auto size: 1
        MOV     A,#-0x1
        LCALL   ?ALLOC_XSTACK8
        CFI CFA_XSP16 add(XSP16, 11)
//  314   uint8 retValue = ZFailure;
        LCALL   ?Subroutine22 & 0xFFFF
//  315   uint8 cmdId;
//  316 
//  317   /* parse header */
//  318   cmdId = pBuf[MT_RPC_POS_CMD1];
//  319   pBuf += MT_RPC_FRAME_HDR_SZ;
??CrossCallReturnLabel_33:
        LCALL   ?Subroutine23 & 0xFFFF
//  320 
//  321   if ( ZMacSetReq(ZMacExtAddr, pBuf) == ZMacSuccess )
??CrossCallReturnLabel_35:
        ; Setup parameters for call to function ZMacSetReq
        INC     R2
        INC     R2
        INC     R2
        MOV     R3,A
        MOV     R1,#-0x1e
        LCALL   ??ZMacSetReq?relay
        MOV     A,R1
        JNZ     ??MT_SysSetExtAddr_0
//  322   {
//  323 // CC253X MAC Network Processor does not have NV support
//  324 #if !defined(CC253X_MACNP)
//  325     retValue = osal_nv_write(ZCD_NV_EXTADDR, 0, Z_EXTADDR_LEN, pBuf);
        ; Setup parameters for call to function osal_nv_write
        MOV     R0,#?V0 + 0
        LCALL   ?PUSH_XSTACK_I_TWO
        CFI CFA_XSP16 add(XSP16, 13)
        MOV     ?V0 + 0,#0x8
        MOV     ?V0 + 1,#0x0
        MOV     R0,#?V0 + 0
        LCALL   ?PUSH_XSTACK_I_TWO
        CFI CFA_XSP16 add(XSP16, 15)
        MOV     R4,#0x0
        MOV     R5,#0x0
        MOV     R2,#0x1
        MOV     R3,#0x0
        LCALL   ??osal_nv_write?relay
        MOV     A,#0x4
        LCALL   ?DEALLOC_XSTACK8
        CFI CFA_XSP16 add(XSP16, 11)
        MOV     A,R1
        MOV     DPL,?XSP + 0
        MOV     DPH,?XSP + 1
        MOVX    @DPTR,A
//  326 #endif
//  327   }
//  328 
//  329   /* Build and send back the response */
//  330   MT_BuildAndSendZToolResponse(((uint8)MT_RPC_CMD_SRSP | (uint8)MT_RPC_SYS_SYS), cmdId, 1, &retValue);
??MT_SysSetExtAddr_0:
        ; Setup parameters for call to function MT_BuildAndSendZToolResponse
        MOV     DPL,?XSP + 0
        MOV     DPH,?XSP + 1
        MOV     R4,DPL
        MOV     R5,DPH
        MOV     R3,#0x1
        MOV     A,R6
        MOV     R2,A
        LCALL   ?Subroutine15 & 0xFFFF
//  331 
//  332 }
??CrossCallReturnLabel_43:
        LJMP    ??Subroutine32_0 & 0xFFFF
        CFI EndBlock cfiBlock4
//  333 
//  334 /***************************************************************************************************
//  335  * @fn      MT_SysGetExtAddr
//  336  *
//  337  * @brief   Get the Extended Address
//  338  *
//  339  * @param   None
//  340  *
//  341  * @return  None
//  342  ***************************************************************************************************/

        RSEG BANKED_CODE:CODE:NOROOT(0)
//  343 void MT_SysGetExtAddr(void)
MT_SysGetExtAddr:
        CFI Block cfiBlock5 Using cfiCommon0
        CFI Function MT_SysGetExtAddr
        CODE
//  344 {
        FUNCALL MT_SysGetExtAddr, ZMacGetReq
        LOCFRAME ISTACK, 2, STACK
        LOCFRAME PSTACK, 0, STACK
        LOCFRAME XSTACK, 8, STACK
        LOCFRAME IOVERLAY, 0, STATIC
        LOCFRAME DOVERLAY, 0, STATIC
        ARGFRAME ISTACK, 2, STACK
        ARGFRAME PSTACK, 0, STACK
        ARGFRAME XSTACK, 8, STACK
        ARGFRAME IOVERLAY, 0, STATIC
        ARGFRAME DOVERLAY, 0, STATIC
        FUNCALL MT_SysGetExtAddr, MT_BuildAndSendZToolResponse
        LOCFRAME ISTACK, 2, STACK
        LOCFRAME PSTACK, 0, STACK
        LOCFRAME XSTACK, 8, STACK
        LOCFRAME IOVERLAY, 0, STATIC
        LOCFRAME DOVERLAY, 0, STATIC
        ARGFRAME ISTACK, 2, STACK
        ARGFRAME PSTACK, 0, STACK
        ARGFRAME XSTACK, 8, STACK
        ARGFRAME IOVERLAY, 0, STATIC
        ARGFRAME DOVERLAY, 0, STATIC
        PUSH    DPL
        CFI DPL0 Frame(CFA_SP, 4)
        CFI CFA_SP SP+-4
        PUSH    DPH
        CFI DPH0 Frame(CFA_SP, 5)
        CFI CFA_SP SP+-5
        ; Saved register size: 2
        ; Auto size: 8
        MOV     A,#-0x8
        LCALL   ?ALLOC_XSTACK8
        CFI CFA_XSP16 add(XSP16, 8)
//  345   uint8 extAddr[Z_EXTADDR_LEN];
//  346 
//  347   ZMacGetReq( ZMacExtAddr, extAddr );
        ; Setup parameters for call to function ZMacGetReq
        MOV     DPL,?XSP + 0
        MOV     DPH,?XSP + 1
        MOV     R2,DPL
        MOV     R3,DPH
        MOV     R1,#-0x1e
        LCALL   ??ZMacGetReq?relay
//  348 
//  349   /* Build and send back the response */
//  350   MT_BuildAndSendZToolResponse(((uint8)MT_RPC_CMD_SRSP | (uint8)MT_RPC_SYS_SYS), MT_SYS_GET_EXTADDR,
//  351                                Z_EXTADDR_LEN, extAddr);
        ; Setup parameters for call to function MT_BuildAndSendZToolResponse
        MOV     DPL,?XSP + 0
        MOV     DPH,?XSP + 1
        MOV     R4,DPL
        MOV     R5,DPH
        MOV     R3,#0x8
        MOV     R2,#0x4
        MOV     R1,#0x61
        LCALL   ??MT_BuildAndSendZToolResponse?relay
//  352 }
        MOV     A,#0x8
        LJMP    ??Subroutine33_0 & 0xFFFF
        CFI EndBlock cfiBlock5
//  353 
//  354 /***************************************************************************************************
//  355  * @fn      MT_SysOsalNVRead
//  356  *
//  357  * @brief  Read a NV value
//  358  *
//  359  * @param  uint8 pBuf - pointer to the data
//  360  *
//  361  * @return  None
//  362  ***************************************************************************************************/

        RSEG BANKED_CODE:CODE:NOROOT(0)
//  363 void MT_SysOsalNVRead(uint8 *pBuf)
MT_SysOsalNVRead:
        CFI Block cfiBlock6 Using cfiCommon0
        CFI Function MT_SysOsalNVRead
        CODE
//  364 {
        FUNCALL MT_SysOsalNVRead, MT_BuildAndSendZToolResponse
        LOCFRAME ISTACK, 0, STACK
        LOCFRAME PSTACK, 0, STACK
        LOCFRAME XSTACK, 18, STACK
        LOCFRAME IOVERLAY, 0, STATIC
        LOCFRAME DOVERLAY, 0, STATIC
        ARGFRAME ISTACK, 0, STACK
        ARGFRAME PSTACK, 0, STACK
        ARGFRAME XSTACK, 18, STACK
        ARGFRAME IOVERLAY, 0, STATIC
        ARGFRAME DOVERLAY, 0, STATIC
        FUNCALL MT_SysOsalNVRead, MT_BuildAndSendZToolResponse
        LOCFRAME ISTACK, 0, STACK
        LOCFRAME PSTACK, 0, STACK
        LOCFRAME XSTACK, 18, STACK
        LOCFRAME IOVERLAY, 0, STATIC
        LOCFRAME DOVERLAY, 0, STATIC
        ARGFRAME ISTACK, 0, STACK
        ARGFRAME PSTACK, 0, STACK
        ARGFRAME XSTACK, 18, STACK
        ARGFRAME IOVERLAY, 0, STATIC
        ARGFRAME DOVERLAY, 0, STATIC
        FUNCALL MT_SysOsalNVRead, osal_nv_item_len
        LOCFRAME ISTACK, 0, STACK
        LOCFRAME PSTACK, 0, STACK
        LOCFRAME XSTACK, 18, STACK
        LOCFRAME IOVERLAY, 0, STATIC
        LOCFRAME DOVERLAY, 0, STATIC
        ARGFRAME ISTACK, 0, STACK
        ARGFRAME PSTACK, 0, STACK
        ARGFRAME XSTACK, 18, STACK
        ARGFRAME IOVERLAY, 0, STATIC
        ARGFRAME DOVERLAY, 0, STATIC
        FUNCALL MT_SysOsalNVRead, osal_mem_alloc
        LOCFRAME ISTACK, 0, STACK
        LOCFRAME PSTACK, 0, STACK
        LOCFRAME XSTACK, 18, STACK
        LOCFRAME IOVERLAY, 0, STATIC
        LOCFRAME DOVERLAY, 0, STATIC
        ARGFRAME ISTACK, 0, STACK
        ARGFRAME PSTACK, 0, STACK
        ARGFRAME XSTACK, 18, STACK
        ARGFRAME IOVERLAY, 0, STATIC
        ARGFRAME DOVERLAY, 0, STATIC
        FUNCALL MT_SysOsalNVRead, osal_memset
        LOCFRAME ISTACK, 0, STACK
        LOCFRAME PSTACK, 0, STACK
        LOCFRAME XSTACK, 18, STACK
        LOCFRAME IOVERLAY, 0, STATIC
        LOCFRAME DOVERLAY, 0, STATIC
        ARGFRAME ISTACK, 0, STACK
        ARGFRAME PSTACK, 0, STACK
        ARGFRAME XSTACK, 18, STACK
        ARGFRAME IOVERLAY, 0, STATIC
        ARGFRAME DOVERLAY, 0, STATIC
        FUNCALL MT_SysOsalNVRead, osal_nv_read
        LOCFRAME ISTACK, 0, STACK
        LOCFRAME PSTACK, 0, STACK
        LOCFRAME XSTACK, 22, STACK
        LOCFRAME IOVERLAY, 0, STATIC
        LOCFRAME DOVERLAY, 0, STATIC
        ARGFRAME ISTACK, 0, STACK
        ARGFRAME PSTACK, 0, STACK
        ARGFRAME XSTACK, 22, STACK
        ARGFRAME IOVERLAY, 0, STATIC
        ARGFRAME DOVERLAY, 0, STATIC
        FUNCALL MT_SysOsalNVRead, MT_BuildAndSendZToolResponse
        LOCFRAME ISTACK, 0, STACK
        LOCFRAME PSTACK, 0, STACK
        LOCFRAME XSTACK, 18, STACK
        LOCFRAME IOVERLAY, 0, STATIC
        LOCFRAME DOVERLAY, 0, STATIC
        ARGFRAME ISTACK, 0, STACK
        ARGFRAME PSTACK, 0, STACK
        ARGFRAME XSTACK, 18, STACK
        ARGFRAME IOVERLAY, 0, STATIC
        ARGFRAME DOVERLAY, 0, STATIC
        FUNCALL MT_SysOsalNVRead, osal_mem_free
        LOCFRAME ISTACK, 0, STACK
        LOCFRAME PSTACK, 0, STACK
        LOCFRAME XSTACK, 18, STACK
        LOCFRAME IOVERLAY, 0, STATIC
        LOCFRAME DOVERLAY, 0, STATIC
        ARGFRAME ISTACK, 0, STACK
        ARGFRAME PSTACK, 0, STACK
        ARGFRAME XSTACK, 18, STACK
        ARGFRAME IOVERLAY, 0, STATIC
        ARGFRAME DOVERLAY, 0, STATIC
        MOV     A,#-0x10
        LCALL   ?BANKED_ENTER_XDATA
        CFI DPH0 load(1, XDATA, add(CFA_XSP16, literal(-1)))
        CFI DPL0 load(1, XDATA, add(CFA_XSP16, literal(-2)))
        CFI ?BRET_EXT load(1, XDATA, add(CFA_XSP16, literal(-3)))
        CFI ?RET_HIGH load(1, XDATA, add(CFA_XSP16, literal(-4)))
        CFI ?RET_LOW load(1, XDATA, add(CFA_XSP16, literal(-5)))
        CFI R7 load(1, XDATA, add(CFA_XSP16, literal(-6)))
        CFI V7 load(1, XDATA, add(CFA_XSP16, literal(-7)))
        CFI V6 load(1, XDATA, add(CFA_XSP16, literal(-8)))
        CFI V5 load(1, XDATA, add(CFA_XSP16, literal(-9)))
        CFI V4 load(1, XDATA, add(CFA_XSP16, literal(-10)))
        CFI V3 load(1, XDATA, add(CFA_XSP16, literal(-11)))
        CFI V2 load(1, XDATA, add(CFA_XSP16, literal(-12)))
        CFI V1 load(1, XDATA, add(CFA_XSP16, literal(-13)))
        CFI V0 load(1, XDATA, add(CFA_XSP16, literal(-14)))
        CFI VB load(1, XDATA, add(CFA_XSP16, literal(-15)))
        CFI R6 load(1, XDATA, add(CFA_XSP16, literal(-16)))
        CFI CFA_SP SP+0
        CFI CFA_XSP16 add(XSP16, 16)
        ; Saved register size: 16
        ; Auto size: 2
        MOV     A,#-0x2
        LCALL   ?ALLOC_XSTACK8
        CFI CFA_XSP16 add(XSP16, 18)
//  365   uint16 nvId;
//  366   uint8 nvItemLen=0, nvItemOffset=0;
//  367   uint8 *pRetBuf=NULL;
//  368   uint8 respLen;
//  369 
//  370   /* Skip over RPC header */
//  371   pBuf += MT_RPC_FRAME_HDR_SZ;
        LCALL   ?Subroutine10 & 0xFFFF
//  372 
//  373   /* Get the ID */
//  374   nvId = BUILD_UINT16(pBuf[0], pBuf[1]);
??CrossCallReturnLabel_13:
        MOV     ?V0 + 0,A
        CLR     A
        ADDC    A,R1
        MOV     ?V0 + 1,A
//  375   /* Get the offset */
//  376   nvItemOffset = pBuf[2];
        MOV     DPL,R2
        MOV     DPH,R3
        INC     DPTR
        INC     DPTR
        MOVX    A,@DPTR
        MOV     ?V0 + 2,A
//  377 
//  378 #if !MT_SYS_OSAL_NV_READ_CERTIFICATE_DATA
//  379   if ((ZCD_NV_IMPLICIT_CERTIFICATE == nvId) ||
//  380       (ZCD_NV_CA_PUBLIC_KEY == nvId)        ||
//  381       (ZCD_NV_DEVICE_PRIVATE_KEY == nvId))
        MOV     A,#0x69
        XRL     A,?V0 + 0
        JNZ     ??MT_SysOsalNVRead_0
        MOV     A,R1
??MT_SysOsalNVRead_0:
        JZ      ??MT_SysOsalNVRead_1
        MOV     A,#0x6b
        XRL     A,?V0 + 0
        JNZ     ??MT_SysOsalNVRead_2
        MOV     A,R1
??MT_SysOsalNVRead_2:
        JZ      ??MT_SysOsalNVRead_1
        MOV     A,#0x6a
        XRL     A,?V0 + 0
        JNZ     ??MT_SysOsalNVRead_3
        MOV     A,R1
??MT_SysOsalNVRead_3:
        JNZ     ??MT_SysOsalNVRead_4
//  382   {
//  383     uint8 tmp[2] = { INVALIDPARAMETER, 0 };
??MT_SysOsalNVRead_1:
        MOV     DPL,?XSP + 0
        MOV     DPH,?XSP + 1
        MOV     R4,DPL
        MOV     R5,DPH
        MOV     DPH,#(`?<Constant {2, 0}>` >> 8) & 0xff
        MOV     DPL,#`?<Constant {2, 0}>` & 0xff
??MT_SysOsalNVRead_5:
        MOV     A,#0x2
        LCALL   ?MOVE_LONG8_XDATA_XDATA
//  384     MT_BuildAndSendZToolResponse(((uint8)MT_RPC_CMD_SRSP | (uint8)MT_RPC_SYS_SYS),
//  385                                    MT_SYS_OSAL_NV_READ, 2, tmp);
        ; Setup parameters for call to function MT_BuildAndSendZToolResponse
        MOV     DPL,?XSP + 0
        MOV     DPH,?XSP + 1
        MOV     R4,DPL
        MOV     R5,DPH
        MOV     R3,#0x2
        MOV     R2,#0x8
        MOV     R1,#0x61
        LCALL   ??MT_BuildAndSendZToolResponse?relay
//  386     return;
        LJMP    ??CrossCallReturnLabel_19 & 0xFFFF
//  387   }
//  388 #endif
//  389 
//  390 #if !MT_SYS_KEY_MANAGEMENT
//  391   if ( (nvId == ZCD_NV_NWK_ACTIVE_KEY_INFO) ||
//  392        (nvId == ZCD_NV_NWK_ALTERN_KEY_INFO) ||
//  393       ((nvId >= ZCD_NV_TCLK_TABLE_START) && (nvId <= ZCD_NV_TCLK_TABLE_END)) ||
//  394       ((nvId >= ZCD_NV_APS_LINK_KEY_DATA_START) && (nvId <= ZCD_NV_APS_LINK_KEY_DATA_END)) ||
//  395       ((nvId >= ZCD_NV_MASTER_KEY_DATA_START) && (nvId <= ZCD_NV_MASTER_KEY_DATA_END)) ||
//  396        (nvId == ZCD_NV_PRECFGKEY) )
??MT_SysOsalNVRead_4:
        MOV     A,#0x3a
        XRL     A,?V0 + 0
        JNZ     ??MT_SysOsalNVRead_6
        MOV     A,R1
??MT_SysOsalNVRead_6:
        JZ      ??MT_SysOsalNVRead_7
        MOV     A,#0x3b
        XRL     A,?V0 + 0
        JNZ     ??MT_SysOsalNVRead_8
        MOV     A,R1
??MT_SysOsalNVRead_8:
        JZ      ??MT_SysOsalNVRead_7
        MOV     A,R4
        ADD     A,#-0x1
        MOV     R0,A
        MOV     A,R1
        ADDC    A,#-0x2
        MOV     R1,A
        CLR     C
        MOV     A,R0
        SUBB    A,#-0x1
        MOV     A,R1
        SUBB    A,#0x0
        JC      ??MT_SysOsalNVRead_7
        DEC     R1
        CLR     C
        MOV     A,R0
        SUBB    A,#-0x1
        MOV     A,R1
        SUBB    A,#0x0
        JC      ??MT_SysOsalNVRead_7
        DEC     R1
        CLR     C
        MOV     A,R0
        SUBB    A,#-0x1
        MOV     A,R1
        SUBB    A,#0x0
        JC      ??MT_SysOsalNVRead_7
        MOV     A,#0x62
        XRL     A,?V0 + 0
        JNZ     ??MT_SysOsalNVRead_9
        MOV     A,?V0 + 1
??MT_SysOsalNVRead_9:
        JNZ     ??MT_SysOsalNVRead_10
//  397   {
//  398     uint8 tmp1[2] = { INVALIDPARAMETER, 0 };
??MT_SysOsalNVRead_7:
        MOV     DPL,?XSP + 0
        MOV     DPH,?XSP + 1
        MOV     R4,DPL
        MOV     R5,DPH
        MOV     DPH,#(`?<Constant {2, 0}>_1` >> 8) & 0xff
        MOV     DPL,#`?<Constant {2, 0}>_1` & 0xff
        SJMP    ??MT_SysOsalNVRead_5
//  399     MT_BuildAndSendZToolResponse(((uint8)MT_RPC_CMD_SRSP | (uint8)MT_RPC_SYS_SYS),
//  400                                    MT_SYS_OSAL_NV_READ, 2, tmp1);
//  401     return;
//  402   }
//  403 #endif //!MT_SYS_KEY_MANAGEMENT
//  404 
//  405   nvItemLen = osal_nv_item_len(nvId);
??MT_SysOsalNVRead_10:
        ; Setup parameters for call to function osal_nv_item_len
        MOV     R2,?V0 + 0
        MOV     R3,?V0 + 1
        LCALL   ??osal_nv_item_len?relay
        MOV     A,R2
        MOV     ?V0 + 3,A
//  406 
//  407   /* Return only 250 bytes max */
//  408   if (nvItemLen > MT_NV_ITEM_MAX_LENGTH)
        CLR     C
        SUBB    A,#-0x5
        JC      ??MT_SysOsalNVRead_11
//  409   {
//  410     nvItemLen = MT_NV_ITEM_MAX_LENGTH;
        MOV     ?V0 + 3,#-0x6
        SJMP    ??MT_SysOsalNVRead_12
//  411   }
//  412 
//  413   if ((nvItemLen > 0) && ((nvItemLen - nvItemOffset) > 0))
??MT_SysOsalNVRead_11:
        MOV     A,R2
        JZ      ??MT_SysOsalNVRead_13
??MT_SysOsalNVRead_12:
        MOV     ?V0 + 6,?V0 + 3
        MOV     ?V0 + 4,?V0 + 2
        MOV     A,?V0 + 6
        CLR     C
        SUBB    A,?V0 + 4
        MOV     R0,A
        SUBB    A,0xE0 /* A   */
        MOV     R1,A
        CLR     C
        MOV     A,R0
        SUBB    A,#0x1
        MOV     A,R1
        SUBB    A,#0x0
        MOV     C,0xD0 /* PSW */.2
        XRL     A,PSW
        RLC     A
        JC      ??MT_SysOsalNVRead_13
//  414   {
//  415     respLen = nvItemLen - nvItemOffset + 2;
        MOV     A,?V0 + 3
        CLR     C
        SUBB    A,?V0 + 2
        ADD     A,#0x2
        MOV     ?V0 + 6,A
        SJMP    ??MT_SysOsalNVRead_14
//  416   }
//  417   else
//  418   {
//  419     respLen = 2;
??MT_SysOsalNVRead_13:
        MOV     ?V0 + 6,#0x2
//  420   }
//  421 
//  422   pRetBuf = osal_mem_alloc(respLen);
??MT_SysOsalNVRead_14:
        ; Setup parameters for call to function osal_mem_alloc
        MOV     ?V0 + 4,?V0 + 6
        MOV     R2,?V0 + 4
        MOV     R3,#0x0
        LCALL   ??osal_mem_alloc?relay
        MOV     ?V0 + 4,R2
        MOV     ?V0 + 5,R3
        MOV     R6,?V0 + 4
        MOV     R7,?V0 + 5
//  423 
//  424   if (pRetBuf != NULL)
        MOV     A,R6
        ORL     A,R7
        JZ      ??CrossCallReturnLabel_19
//  425   {
//  426     osal_memset(pRetBuf, 0, respLen);
        ; Setup parameters for call to function osal_memset
        MOV     ?V0 + 4,?V0 + 6
        MOV     R4,?V0 + 4
        MOV     R5,#0x0
        MOV     R1,#0x0
        LCALL   ??osal_memset?relay
//  427 
//  428     /* Default to ZFailure */
//  429     pRetBuf[0] = ZFailure;
        MOV     DPL,R6
        MOV     DPH,R7
        MOV     A,#0x1
        MOVX    @DPTR,A
//  430 
//  431     if (respLen > 2)
        MOV     A,?V0 + 6
        CLR     C
        SUBB    A,#0x3
        JC      ??MT_SysOsalNVRead_15
//  432     {
//  433       if (((osal_nv_read( nvId, (uint16)nvItemOffset, (uint16)nvItemLen, &pRetBuf[2])) == ZSUCCESS) && (respLen > 2))
        ; Setup parameters for call to function osal_nv_read
        MOV     A,R6
        ADD     A,#0x2
        MOV     ?V0 + 4,A
        MOV     A,R7
        ADDC    A,#0x0
        MOV     ?V0 + 5,A
        MOV     R0,#?V0 + 4
        LCALL   ?PUSH_XSTACK_I_TWO
        CFI CFA_XSP16 add(XSP16, 20)
        MOV     ?V0 + 4,?V0 + 3
        MOV     ?V0 + 5,#0x0
        MOV     R0,#?V0 + 4
        LCALL   ?PUSH_XSTACK_I_TWO
        CFI CFA_XSP16 add(XSP16, 22)
        MOV     ?V0 + 4,?V0 + 2
        MOV     R4,?V0 + 4
        MOV     R5,#0x0
        MOV     R2,?V0 + 0
        MOV     R3,?V0 + 1
        LCALL   ??osal_nv_read?relay
        MOV     A,#0x4
        LCALL   ?DEALLOC_XSTACK8
        CFI CFA_XSP16 add(XSP16, 18)
        MOV     A,R1
        JNZ     ??MT_SysOsalNVRead_16
//  434       {
//  435         pRetBuf[0] = ZSuccess;
        MOV     DPL,R6
        MOV     DPH,R7
        CLR     A
        MOVX    @DPTR,A
//  436       }
//  437       pRetBuf[1] = nvItemLen - nvItemOffset;
??MT_SysOsalNVRead_16:
        MOV     A,?V0 + 3
        CLR     C
        SUBB    A,?V0 + 2
        MOV     DPL,R6
        MOV     DPH,R7
        INC     DPTR
        SJMP    ??MT_SysOsalNVRead_17
//  438     }
//  439     else
//  440     {
//  441       pRetBuf[1] = 0;
??MT_SysOsalNVRead_15:
        INC     DPTR
        CLR     A
??MT_SysOsalNVRead_17:
        MOVX    @DPTR,A
//  442     }
//  443 
//  444     /* Build and send back the response */
//  445     MT_BuildAndSendZToolResponse(((uint8)MT_RPC_CMD_SRSP | (uint8)MT_RPC_SYS_SYS),
//  446                                    MT_SYS_OSAL_NV_READ, respLen, pRetBuf );
        ; Setup parameters for call to function MT_BuildAndSendZToolResponse
        MOV     A,R6
        MOV     R4,A
        MOV     A,R7
        MOV     R5,A
        MOV     R3,?V0 + 6
        MOV     R2,#0x8
        LCALL   ?Subroutine16 & 0xFFFF
//  447 
//  448     osal_mem_free(pRetBuf);
//  449   }
??CrossCallReturnLabel_19:
        MOV     A,#0x2
        CFI EndBlock cfiBlock6
        REQUIRE ?Subroutine3
        ; // Fall through to label ?Subroutine3
//  450 }

        RSEG BANKED_CODE:CODE:NOROOT(0)
?Subroutine3:
        CFI Block cfiBlock7 Using cfiCommon0
        CFI NoFunction
        CFI CFA_SP SP+0
        CFI CFA_XSP16 add(XSP16, 18)
        CFI VB load(1, XDATA, add(CFA_XSP16, literal(-15)))
        CFI DPL0 load(1, XDATA, add(CFA_XSP16, literal(-2)))
        CFI DPH0 load(1, XDATA, add(CFA_XSP16, literal(-1)))
        CFI R6 load(1, XDATA, add(CFA_XSP16, literal(-16)))
        CFI R7 load(1, XDATA, add(CFA_XSP16, literal(-6)))
        CFI V0 load(1, XDATA, add(CFA_XSP16, literal(-14)))
        CFI V1 load(1, XDATA, add(CFA_XSP16, literal(-13)))
        CFI V2 load(1, XDATA, add(CFA_XSP16, literal(-12)))
        CFI V3 load(1, XDATA, add(CFA_XSP16, literal(-11)))
        CFI V4 load(1, XDATA, add(CFA_XSP16, literal(-10)))
        CFI V5 load(1, XDATA, add(CFA_XSP16, literal(-9)))
        CFI V6 load(1, XDATA, add(CFA_XSP16, literal(-8)))
        CFI V7 load(1, XDATA, add(CFA_XSP16, literal(-7)))
        CFI ?BRET_EXT load(1, XDATA, add(CFA_XSP16, literal(-3)))
        CFI ?RET_HIGH load(1, XDATA, add(CFA_XSP16, literal(-4)))
        CFI ?RET_LOW load(1, XDATA, add(CFA_XSP16, literal(-5)))
        CFI Invalid
        LCALL   ?DEALLOC_XSTACK8
        CFI CFA_XSP16 add(XSP16, 16)
        CFI Valid
        MOV     R7,#0x8
        LJMP    ?BANKED_LEAVE_XDATA
        CFI EndBlock cfiBlock7
//  451 
//  452 /***************************************************************************************************
//  453  * @fn      MT_SysOsalNVWrite
//  454  *
//  455  * @brief
//  456  *
//  457  * @param   uint8 pData - pointer to the data
//  458  *
//  459  * @return  None
//  460  ***************************************************************************************************/

        RSEG BANKED_CODE:CODE:NOROOT(0)
//  461 void MT_SysOsalNVWrite(uint8 *pBuf)
MT_SysOsalNVWrite:
        CFI Block cfiBlock8 Using cfiCommon0
        CFI Function MT_SysOsalNVWrite
        CODE
//  462 {
        FUNCALL MT_SysOsalNVWrite, zgSetItem
        LOCFRAME ISTACK, 0, STACK
        LOCFRAME PSTACK, 0, STACK
        LOCFRAME XSTACK, 16, STACK
        LOCFRAME IOVERLAY, 0, STATIC
        LOCFRAME DOVERLAY, 0, STATIC
        ARGFRAME ISTACK, 0, STACK
        ARGFRAME PSTACK, 0, STACK
        ARGFRAME XSTACK, 16, STACK
        ARGFRAME IOVERLAY, 0, STATIC
        ARGFRAME DOVERLAY, 0, STATIC
        FUNCALL MT_SysOsalNVWrite, osal_nv_write
        LOCFRAME ISTACK, 0, STACK
        LOCFRAME PSTACK, 0, STACK
        LOCFRAME XSTACK, 18, STACK
        LOCFRAME IOVERLAY, 0, STATIC
        LOCFRAME DOVERLAY, 0, STATIC
        ARGFRAME ISTACK, 0, STACK
        ARGFRAME PSTACK, 0, STACK
        ARGFRAME XSTACK, 18, STACK
        ARGFRAME IOVERLAY, 0, STATIC
        ARGFRAME DOVERLAY, 0, STATIC
        FUNCALL MT_SysOsalNVWrite, ZMacSetReq
        LOCFRAME ISTACK, 0, STACK
        LOCFRAME PSTACK, 0, STACK
        LOCFRAME XSTACK, 14, STACK
        LOCFRAME IOVERLAY, 0, STATIC
        LOCFRAME DOVERLAY, 0, STATIC
        ARGFRAME ISTACK, 0, STACK
        ARGFRAME PSTACK, 0, STACK
        ARGFRAME XSTACK, 14, STACK
        ARGFRAME IOVERLAY, 0, STATIC
        ARGFRAME DOVERLAY, 0, STATIC
        FUNCALL MT_SysOsalNVWrite, MT_BuildAndSendZToolResponse
        LOCFRAME ISTACK, 0, STACK
        LOCFRAME PSTACK, 0, STACK
        LOCFRAME XSTACK, 14, STACK
        LOCFRAME IOVERLAY, 0, STATIC
        LOCFRAME DOVERLAY, 0, STATIC
        ARGFRAME ISTACK, 0, STACK
        ARGFRAME PSTACK, 0, STACK
        ARGFRAME XSTACK, 14, STACK
        ARGFRAME IOVERLAY, 0, STATIC
        ARGFRAME DOVERLAY, 0, STATIC
        MOV     A,#-0xd
        LCALL   ?BANKED_ENTER_XDATA
        CFI DPH0 load(1, XDATA, add(CFA_XSP16, literal(-1)))
        CFI DPL0 load(1, XDATA, add(CFA_XSP16, literal(-2)))
        CFI ?BRET_EXT load(1, XDATA, add(CFA_XSP16, literal(-3)))
        CFI ?RET_HIGH load(1, XDATA, add(CFA_XSP16, literal(-4)))
        CFI ?RET_LOW load(1, XDATA, add(CFA_XSP16, literal(-5)))
        CFI R7 load(1, XDATA, add(CFA_XSP16, literal(-6)))
        CFI V4 load(1, XDATA, add(CFA_XSP16, literal(-7)))
        CFI V3 load(1, XDATA, add(CFA_XSP16, literal(-8)))
        CFI V2 load(1, XDATA, add(CFA_XSP16, literal(-9)))
        CFI V1 load(1, XDATA, add(CFA_XSP16, literal(-10)))
        CFI V0 load(1, XDATA, add(CFA_XSP16, literal(-11)))
        CFI VB load(1, XDATA, add(CFA_XSP16, literal(-12)))
        CFI R6 load(1, XDATA, add(CFA_XSP16, literal(-13)))
        CFI CFA_SP SP+0
        CFI CFA_XSP16 add(XSP16, 13)
        ; Saved register size: 13
        ; Auto size: 1
        MOV     A,#-0x1
        LCALL   ?ALLOC_XSTACK8
        CFI CFA_XSP16 add(XSP16, 14)
//  463   uint16 nvId;
//  464   uint8 nvItemLen=0, nvItemOffset=0;
//  465   uint8 rtrn;
//  466 
//  467   /* Skip over RPC header */
//  468   pBuf += MT_RPC_FRAME_HDR_SZ;
        LCALL   ?Subroutine4 & 0xFFFF
//  469 
//  470   /* Get the ID */
//  471   nvId = BUILD_UINT16(pBuf[0], pBuf[1]);
//  472   /* Get the offset */
//  473   nvItemOffset = pBuf[2];
??CrossCallReturnLabel_0:
        MOV     ?V0 + 4,A
//  474   /* Get the length */
//  475   nvItemLen = pBuf[3];
        MOV     DPL,?V0 + 0
        MOV     DPH,?V0 + 1
        INC     DPTR
        INC     DPTR
        INC     DPTR
        MOVX    A,@DPTR
        MOV     R0,A
//  476   pBuf += 4;
        MOV     A,?V0 + 0
        ADD     A,#0x4
        MOV     ?V0 + 0,A
        MOV     A,?V0 + 1
        ADDC    A,#0x0
        MOV     ?V0 + 1,A
//  477 
//  478   /* Default to ZFailure */
//  479   rtrn = ZFailure;
        MOV     DPL,?XSP + 0
        MOV     DPH,?XSP + 1
        MOV     A,#0x1
        MOVX    @DPTR,A
//  480 
//  481   /* Set the Z-Globals value of this NV item. */
//  482   zgSetItem( nvId, (uint16)nvItemLen, pBuf );
        MOV     DPL,R0
        MOV     ?V0 + 2,DPL
        MOV     ?V0 + 3,#0x0
        ; Setup parameters for call to function zgSetItem
        MOV     R0,#?V0 + 0
        LCALL   ?PUSH_XSTACK_I_TWO
        CFI CFA_XSP16 add(XSP16, 16)
        MOV     R4,?V0 + 2
        MOV     R5,?V0 + 3
        MOV     A,R7
        MOV     R3,A
        LCALL   ??zgSetItem?relay
        MOV     A,#0x2
        LCALL   ?DEALLOC_XSTACK8
        CFI CFA_XSP16 add(XSP16, 14)
//  483 
//  484   if ((osal_nv_write(nvId, (uint16)nvItemOffset, (uint16)nvItemLen, pBuf)) == ZSUCCESS)
        ; Setup parameters for call to function osal_nv_write
        MOV     R0,#?V0 + 0
        LCALL   ?PUSH_XSTACK_I_TWO
        CFI CFA_XSP16 add(XSP16, 16)
        MOV     R0,#?V0 + 2
        LCALL   ?PUSH_XSTACK_I_TWO
        CFI CFA_XSP16 add(XSP16, 18)
        MOV     ?V0 + 2,?V0 + 4
        MOV     R4,?V0 + 2
        MOV     R5,#0x0
        MOV     A,R6
        MOV     R2,A
        MOV     A,R7
        MOV     R3,A
        LCALL   ??osal_nv_write?relay
        MOV     A,#0x4
        LCALL   ?DEALLOC_XSTACK8
        CFI CFA_XSP16 add(XSP16, 14)
        MOV     A,R1
        JNZ     ??MT_SysOsalNVWrite_0
//  485   {
//  486     if (nvId == ZCD_NV_EXTADDR)
        MOV     A,#0x1
        XRL     A,R6
        JNZ     ??MT_SysOsalNVWrite_1
        MOV     A,R7
??MT_SysOsalNVWrite_1:
        JNZ     ??MT_SysOsalNVWrite_2
//  487     {
//  488       rtrn = ZMacSetReq(ZMacExtAddr, pBuf);
        ; Setup parameters for call to function ZMacSetReq
        MOV     R2,?V0 + 0
        MOV     R3,?V0 + 1
        MOV     R1,#-0x1e
        LCALL   ?Subroutine17 & 0xFFFF
//  489     }
??CrossCallReturnLabel_21:
        SJMP    ??MT_SysOsalNVWrite_3
//  490     else
//  491     {
//  492       rtrn = ZSuccess;
??MT_SysOsalNVWrite_2:
        MOV     DPL,?XSP + 0
        MOV     DPH,?XSP + 1
        CLR     A
??MT_SysOsalNVWrite_3:
        MOVX    @DPTR,A
//  493     }
//  494   }
//  495 
//  496   /* Build and send back the response */
//  497   MT_BuildAndSendZToolResponse(((uint8)MT_RPC_CMD_SRSP | (uint8)MT_RPC_SYS_SYS),
//  498                                  MT_SYS_OSAL_NV_WRITE, 1, &rtrn);
??MT_SysOsalNVWrite_0:
        ; Setup parameters for call to function MT_BuildAndSendZToolResponse
        MOV     DPL,?XSP + 0
        MOV     DPH,?XSP + 1
        MOV     R4,DPL
        MOV     R5,DPH
        MOV     R3,#0x1
        MOV     R2,#0x9
        LCALL   ?Subroutine15 & 0xFFFF
//  499 }
??CrossCallReturnLabel_44:
        LCALL   ?DEALLOC_XSTACK8
        CFI CFA_XSP16 add(XSP16, 13)
        MOV     R7,#0x5
        LJMP    ?BANKED_LEAVE_XDATA
        CFI EndBlock cfiBlock8

        RSEG BANKED_CODE:CODE:NOROOT(0)
?Subroutine15:
        CFI Block cfiCond9 Using cfiCommon0
        CFI NoFunction
        CFI Conditional ??CrossCallReturnLabel_43
        CFI R6 load(1, XDATA, add(CFA_XSP16, literal(-10)))
        CFI VB load(1, XDATA, add(CFA_XSP16, literal(-9)))
        CFI V0 load(1, XDATA, add(CFA_XSP16, literal(-8)))
        CFI V1 load(1, XDATA, add(CFA_XSP16, literal(-7)))
        CFI R7 load(1, XDATA, add(CFA_XSP16, literal(-6)))
        CFI ?RET_LOW load(1, XDATA, add(CFA_XSP16, literal(-5)))
        CFI ?RET_HIGH load(1, XDATA, add(CFA_XSP16, literal(-4)))
        CFI ?BRET_EXT load(1, XDATA, add(CFA_XSP16, literal(-3)))
        CFI DPL0 load(1, XDATA, add(CFA_XSP16, literal(-2)))
        CFI DPH0 load(1, XDATA, add(CFA_XSP16, literal(-1)))
        CFI CFA_SP SP+0
        CFI CFA_XSP16 add(XSP16, 11)
        CFI Block cfiCond10 Using cfiCommon0
        CFI (cfiCond10) NoFunction
        CFI (cfiCond10) Conditional ??CrossCallReturnLabel_44
        CFI (cfiCond10) R6 load(1, XDATA, add(CFA_XSP16, literal(-13)))
        CFI (cfiCond10) VB load(1, XDATA, add(CFA_XSP16, literal(-12)))
        CFI (cfiCond10) V0 load(1, XDATA, add(CFA_XSP16, literal(-11)))
        CFI (cfiCond10) V1 load(1, XDATA, add(CFA_XSP16, literal(-10)))
        CFI (cfiCond10) V2 load(1, XDATA, add(CFA_XSP16, literal(-9)))
        CFI (cfiCond10) V3 load(1, XDATA, add(CFA_XSP16, literal(-8)))
        CFI (cfiCond10) V4 load(1, XDATA, add(CFA_XSP16, literal(-7)))
        CFI (cfiCond10) R7 load(1, XDATA, add(CFA_XSP16, literal(-6)))
        CFI (cfiCond10) ?RET_LOW load(1, XDATA, add(CFA_XSP16, literal(-5)))
        CFI (cfiCond10) ?RET_HIGH load(1, XDATA, add(CFA_XSP16, literal(-4)))
        CFI (cfiCond10) ?BRET_EXT load(1, XDATA, add(CFA_XSP16, literal(-3)))
        CFI (cfiCond10) DPL0 load(1, XDATA, add(CFA_XSP16, literal(-2)))
        CFI (cfiCond10) DPH0 load(1, XDATA, add(CFA_XSP16, literal(-1)))
        CFI (cfiCond10) CFA_SP SP+0
        CFI (cfiCond10) CFA_XSP16 add(XSP16, 14)
        CFI Block cfiCond11 Using cfiCommon0
        CFI (cfiCond11) NoFunction
        CFI (cfiCond11) Conditional ??CrossCallReturnLabel_45
        CFI (cfiCond11) R6 load(1, XDATA, add(CFA_XSP16, literal(-14)))
        CFI (cfiCond11) VB load(1, XDATA, add(CFA_XSP16, literal(-13)))
        CFI (cfiCond11) V0 load(1, XDATA, add(CFA_XSP16, literal(-12)))
        CFI (cfiCond11) V1 load(1, XDATA, add(CFA_XSP16, literal(-11)))
        CFI (cfiCond11) V2 load(1, XDATA, add(CFA_XSP16, literal(-10)))
        CFI (cfiCond11) V3 load(1, XDATA, add(CFA_XSP16, literal(-9)))
        CFI (cfiCond11) V4 load(1, XDATA, add(CFA_XSP16, literal(-8)))
        CFI (cfiCond11) V5 load(1, XDATA, add(CFA_XSP16, literal(-7)))
        CFI (cfiCond11) R7 load(1, XDATA, add(CFA_XSP16, literal(-6)))
        CFI (cfiCond11) ?RET_LOW load(1, XDATA, add(CFA_XSP16, literal(-5)))
        CFI (cfiCond11) ?RET_HIGH load(1, XDATA, add(CFA_XSP16, literal(-4)))
        CFI (cfiCond11) ?BRET_EXT load(1, XDATA, add(CFA_XSP16, literal(-3)))
        CFI (cfiCond11) DPL0 load(1, XDATA, add(CFA_XSP16, literal(-2)))
        CFI (cfiCond11) DPH0 load(1, XDATA, add(CFA_XSP16, literal(-1)))
        CFI (cfiCond11) CFA_SP SP+0
        CFI (cfiCond11) CFA_XSP16 add(XSP16, 15)
        CFI Block cfiCond12 Using cfiCommon0
        CFI (cfiCond12) NoFunction
        CFI (cfiCond12) Conditional ??CrossCallReturnLabel_46
        CFI (cfiCond12) DPL0 Frame(CFA_SP, 4)
        CFI (cfiCond12) DPH0 Frame(CFA_SP, 5)
        CFI (cfiCond12) CFA_SP SP+-5
        CFI (cfiCond12) CFA_XSP16 add(XSP16, 1)
        CFI Block cfiPicker13 Using cfiCommon1
        CFI (cfiPicker13) NoFunction
        CFI (cfiPicker13) Picker
        MOV     R1,#0x61
        CFI EndBlock cfiCond9
        CFI EndBlock cfiCond10
        CFI EndBlock cfiCond11
        CFI EndBlock cfiCond12
        CFI EndBlock cfiPicker13
        REQUIRE ??Subroutine25_0
        ; // Fall through to label ??Subroutine25_0

        RSEG BANKED_CODE:CODE:NOROOT(0)
??Subroutine25_0:
        CFI Block cfiCond14 Using cfiCommon0
        CFI NoFunction
        CFI Conditional ??CrossCallReturnLabel_47
        CFI R6 load(1, XDATA, add(CFA_XSP16, literal(-9)))
        CFI VB load(1, XDATA, add(CFA_XSP16, literal(-8)))
        CFI V0 load(1, XDATA, add(CFA_XSP16, literal(-7)))
        CFI R7 load(1, XDATA, add(CFA_XSP16, literal(-6)))
        CFI ?RET_LOW load(1, XDATA, add(CFA_XSP16, literal(-5)))
        CFI ?RET_HIGH load(1, XDATA, add(CFA_XSP16, literal(-4)))
        CFI ?BRET_EXT load(1, XDATA, add(CFA_XSP16, literal(-3)))
        CFI DPL0 load(1, XDATA, add(CFA_XSP16, literal(-2)))
        CFI DPH0 load(1, XDATA, add(CFA_XSP16, literal(-1)))
        CFI CFA_SP SP+0
        CFI CFA_XSP16 add(XSP16, 10)
        CFI Block cfiCond15 Using cfiCommon0
        CFI (cfiCond15) NoFunction
        CFI (cfiCond15) Conditional ??CrossCallReturnLabel_47
        CFI (cfiCond15) R6 load(1, XDATA, add(CFA_XSP16, literal(-9)))
        CFI (cfiCond15) VB load(1, XDATA, add(CFA_XSP16, literal(-8)))
        CFI (cfiCond15) V0 load(1, XDATA, add(CFA_XSP16, literal(-7)))
        CFI (cfiCond15) R7 load(1, XDATA, add(CFA_XSP16, literal(-6)))
        CFI (cfiCond15) ?RET_LOW load(1, XDATA, add(CFA_XSP16, literal(-5)))
        CFI (cfiCond15) ?RET_HIGH load(1, XDATA, add(CFA_XSP16, literal(-4)))
        CFI (cfiCond15) ?BRET_EXT load(1, XDATA, add(CFA_XSP16, literal(-3)))
        CFI (cfiCond15) DPL0 load(1, XDATA, add(CFA_XSP16, literal(-2)))
        CFI (cfiCond15) DPH0 load(1, XDATA, add(CFA_XSP16, literal(-1)))
        CFI (cfiCond15) CFA_SP SP+0
        CFI (cfiCond15) CFA_XSP16 add(XSP16, 10)
        CFI Block cfiCond16 Using cfiCommon0
        CFI (cfiCond16) NoFunction
        CFI (cfiCond16) Conditional ??CrossCallReturnLabel_47
        CFI (cfiCond16) R6 load(1, XDATA, add(CFA_XSP16, literal(-9)))
        CFI (cfiCond16) VB load(1, XDATA, add(CFA_XSP16, literal(-8)))
        CFI (cfiCond16) V0 load(1, XDATA, add(CFA_XSP16, literal(-7)))
        CFI (cfiCond16) R7 load(1, XDATA, add(CFA_XSP16, literal(-6)))
        CFI (cfiCond16) ?RET_LOW load(1, XDATA, add(CFA_XSP16, literal(-5)))
        CFI (cfiCond16) ?RET_HIGH load(1, XDATA, add(CFA_XSP16, literal(-4)))
        CFI (cfiCond16) ?BRET_EXT load(1, XDATA, add(CFA_XSP16, literal(-3)))
        CFI (cfiCond16) DPL0 load(1, XDATA, add(CFA_XSP16, literal(-2)))
        CFI (cfiCond16) DPH0 load(1, XDATA, add(CFA_XSP16, literal(-1)))
        CFI (cfiCond16) CFA_SP SP+0
        CFI (cfiCond16) CFA_XSP16 add(XSP16, 10)
        CFI Block cfiCond17 Using cfiCommon0
        CFI (cfiCond17) NoFunction
        CFI (cfiCond17) Conditional ??CrossCallReturnLabel_47
        CFI (cfiCond17) R6 load(1, XDATA, add(CFA_XSP16, literal(-9)))
        CFI (cfiCond17) VB load(1, XDATA, add(CFA_XSP16, literal(-8)))
        CFI (cfiCond17) V0 load(1, XDATA, add(CFA_XSP16, literal(-7)))
        CFI (cfiCond17) R7 load(1, XDATA, add(CFA_XSP16, literal(-6)))
        CFI (cfiCond17) ?RET_LOW load(1, XDATA, add(CFA_XSP16, literal(-5)))
        CFI (cfiCond17) ?RET_HIGH load(1, XDATA, add(CFA_XSP16, literal(-4)))
        CFI (cfiCond17) ?BRET_EXT load(1, XDATA, add(CFA_XSP16, literal(-3)))
        CFI (cfiCond17) DPL0 load(1, XDATA, add(CFA_XSP16, literal(-2)))
        CFI (cfiCond17) DPH0 load(1, XDATA, add(CFA_XSP16, literal(-1)))
        CFI (cfiCond17) CFA_SP SP+0
        CFI (cfiCond17) CFA_XSP16 add(XSP16, 10)
        CFI Block cfiCond18 Using cfiCommon0
        CFI (cfiCond18) NoFunction
        CFI (cfiCond18) Conditional ??CrossCallReturnLabel_47
        CFI (cfiCond18) R6 load(1, XDATA, add(CFA_XSP16, literal(-9)))
        CFI (cfiCond18) VB load(1, XDATA, add(CFA_XSP16, literal(-8)))
        CFI (cfiCond18) V0 load(1, XDATA, add(CFA_XSP16, literal(-7)))
        CFI (cfiCond18) R7 load(1, XDATA, add(CFA_XSP16, literal(-6)))
        CFI (cfiCond18) ?RET_LOW load(1, XDATA, add(CFA_XSP16, literal(-5)))
        CFI (cfiCond18) ?RET_HIGH load(1, XDATA, add(CFA_XSP16, literal(-4)))
        CFI (cfiCond18) ?BRET_EXT load(1, XDATA, add(CFA_XSP16, literal(-3)))
        CFI (cfiCond18) DPL0 load(1, XDATA, add(CFA_XSP16, literal(-2)))
        CFI (cfiCond18) DPH0 load(1, XDATA, add(CFA_XSP16, literal(-1)))
        CFI (cfiCond18) CFA_SP SP+0
        CFI (cfiCond18) CFA_XSP16 add(XSP16, 10)
        CFI Block cfiCond19 Using cfiCommon0
        CFI (cfiCond19) NoFunction
        CFI (cfiCond19) Conditional ??CrossCallReturnLabel_43
        CFI (cfiCond19) R6 load(1, XDATA, add(CFA_XSP16, literal(-10)))
        CFI (cfiCond19) VB load(1, XDATA, add(CFA_XSP16, literal(-9)))
        CFI (cfiCond19) V0 load(1, XDATA, add(CFA_XSP16, literal(-8)))
        CFI (cfiCond19) V1 load(1, XDATA, add(CFA_XSP16, literal(-7)))
        CFI (cfiCond19) R7 load(1, XDATA, add(CFA_XSP16, literal(-6)))
        CFI (cfiCond19) ?RET_LOW load(1, XDATA, add(CFA_XSP16, literal(-5)))
        CFI (cfiCond19) ?RET_HIGH load(1, XDATA, add(CFA_XSP16, literal(-4)))
        CFI (cfiCond19) ?BRET_EXT load(1, XDATA, add(CFA_XSP16, literal(-3)))
        CFI (cfiCond19) DPL0 load(1, XDATA, add(CFA_XSP16, literal(-2)))
        CFI (cfiCond19) DPH0 load(1, XDATA, add(CFA_XSP16, literal(-1)))
        CFI (cfiCond19) CFA_SP SP+0
        CFI (cfiCond19) CFA_XSP16 add(XSP16, 11)
        CFI Block cfiCond20 Using cfiCommon0
        CFI (cfiCond20) NoFunction
        CFI (cfiCond20) Conditional ??CrossCallReturnLabel_44
        CFI (cfiCond20) R6 load(1, XDATA, add(CFA_XSP16, literal(-13)))
        CFI (cfiCond20) VB load(1, XDATA, add(CFA_XSP16, literal(-12)))
        CFI (cfiCond20) V0 load(1, XDATA, add(CFA_XSP16, literal(-11)))
        CFI (cfiCond20) V1 load(1, XDATA, add(CFA_XSP16, literal(-10)))
        CFI (cfiCond20) V2 load(1, XDATA, add(CFA_XSP16, literal(-9)))
        CFI (cfiCond20) V3 load(1, XDATA, add(CFA_XSP16, literal(-8)))
        CFI (cfiCond20) V4 load(1, XDATA, add(CFA_XSP16, literal(-7)))
        CFI (cfiCond20) R7 load(1, XDATA, add(CFA_XSP16, literal(-6)))
        CFI (cfiCond20) ?RET_LOW load(1, XDATA, add(CFA_XSP16, literal(-5)))
        CFI (cfiCond20) ?RET_HIGH load(1, XDATA, add(CFA_XSP16, literal(-4)))
        CFI (cfiCond20) ?BRET_EXT load(1, XDATA, add(CFA_XSP16, literal(-3)))
        CFI (cfiCond20) DPL0 load(1, XDATA, add(CFA_XSP16, literal(-2)))
        CFI (cfiCond20) DPH0 load(1, XDATA, add(CFA_XSP16, literal(-1)))
        CFI (cfiCond20) CFA_SP SP+0
        CFI (cfiCond20) CFA_XSP16 add(XSP16, 14)
        CFI Block cfiCond21 Using cfiCommon0
        CFI (cfiCond21) NoFunction
        CFI (cfiCond21) Conditional ??CrossCallReturnLabel_45
        CFI (cfiCond21) R6 load(1, XDATA, add(CFA_XSP16, literal(-14)))
        CFI (cfiCond21) VB load(1, XDATA, add(CFA_XSP16, literal(-13)))
        CFI (cfiCond21) V0 load(1, XDATA, add(CFA_XSP16, literal(-12)))
        CFI (cfiCond21) V1 load(1, XDATA, add(CFA_XSP16, literal(-11)))
        CFI (cfiCond21) V2 load(1, XDATA, add(CFA_XSP16, literal(-10)))
        CFI (cfiCond21) V3 load(1, XDATA, add(CFA_XSP16, literal(-9)))
        CFI (cfiCond21) V4 load(1, XDATA, add(CFA_XSP16, literal(-8)))
        CFI (cfiCond21) V5 load(1, XDATA, add(CFA_XSP16, literal(-7)))
        CFI (cfiCond21) R7 load(1, XDATA, add(CFA_XSP16, literal(-6)))
        CFI (cfiCond21) ?RET_LOW load(1, XDATA, add(CFA_XSP16, literal(-5)))
        CFI (cfiCond21) ?RET_HIGH load(1, XDATA, add(CFA_XSP16, literal(-4)))
        CFI (cfiCond21) ?BRET_EXT load(1, XDATA, add(CFA_XSP16, literal(-3)))
        CFI (cfiCond21) DPL0 load(1, XDATA, add(CFA_XSP16, literal(-2)))
        CFI (cfiCond21) DPH0 load(1, XDATA, add(CFA_XSP16, literal(-1)))
        CFI (cfiCond21) CFA_SP SP+0
        CFI (cfiCond21) CFA_XSP16 add(XSP16, 15)
        CFI Block cfiCond22 Using cfiCommon0
        CFI (cfiCond22) NoFunction
        CFI (cfiCond22) Conditional ??CrossCallReturnLabel_46
        CFI (cfiCond22) DPL0 Frame(CFA_SP, 4)
        CFI (cfiCond22) DPH0 Frame(CFA_SP, 5)
        CFI (cfiCond22) CFA_SP SP+-5
        CFI (cfiCond22) CFA_XSP16 add(XSP16, 1)
        CFI Block cfiPicker23 Using cfiCommon1
        CFI (cfiPicker23) NoFunction
        CFI (cfiPicker23) Picker
        LCALL   ??MT_BuildAndSendZToolResponse?relay
        MOV     A,#0x1
        RET
        CFI EndBlock cfiCond14
        CFI EndBlock cfiCond15
        CFI EndBlock cfiCond16
        CFI EndBlock cfiCond17
        CFI EndBlock cfiCond18
        CFI EndBlock cfiCond19
        CFI EndBlock cfiCond20
        CFI EndBlock cfiCond21
        CFI EndBlock cfiCond22
        CFI EndBlock cfiPicker23
//  500 
//  501 /***************************************************************************************************
//  502  * @fn      MT_SysOsalNVItemInit
//  503  *
//  504  * @brief   Attempt to create an NV item
//  505  *
//  506  * @param   uint8 pData - pointer to the data
//  507  *
//  508  * @return  None
//  509  ***************************************************************************************************/

        RSEG BANKED_CODE:CODE:NOROOT(0)
//  510 void MT_SysOsalNVItemInit(uint8 *pBuf)
MT_SysOsalNVItemInit:
        CFI Block cfiBlock24 Using cfiCommon0
        CFI Function MT_SysOsalNVItemInit
        CODE
//  511 {
        FUNCALL MT_SysOsalNVItemInit, osal_nv_item_init
        LOCFRAME ISTACK, 0, STACK
        LOCFRAME PSTACK, 0, STACK
        LOCFRAME XSTACK, 17, STACK
        LOCFRAME IOVERLAY, 0, STATIC
        LOCFRAME DOVERLAY, 0, STATIC
        ARGFRAME ISTACK, 0, STACK
        ARGFRAME PSTACK, 0, STACK
        ARGFRAME XSTACK, 17, STACK
        ARGFRAME IOVERLAY, 0, STATIC
        ARGFRAME DOVERLAY, 0, STATIC
        FUNCALL MT_SysOsalNVItemInit, osal_nv_write
        LOCFRAME ISTACK, 0, STACK
        LOCFRAME PSTACK, 0, STACK
        LOCFRAME XSTACK, 19, STACK
        LOCFRAME IOVERLAY, 0, STATIC
        LOCFRAME DOVERLAY, 0, STATIC
        ARGFRAME ISTACK, 0, STACK
        ARGFRAME PSTACK, 0, STACK
        ARGFRAME XSTACK, 19, STACK
        ARGFRAME IOVERLAY, 0, STATIC
        ARGFRAME DOVERLAY, 0, STATIC
        FUNCALL MT_SysOsalNVItemInit, osal_nv_item_init
        LOCFRAME ISTACK, 0, STACK
        LOCFRAME PSTACK, 0, STACK
        LOCFRAME XSTACK, 17, STACK
        LOCFRAME IOVERLAY, 0, STATIC
        LOCFRAME DOVERLAY, 0, STATIC
        ARGFRAME ISTACK, 0, STACK
        ARGFRAME PSTACK, 0, STACK
        ARGFRAME XSTACK, 17, STACK
        ARGFRAME IOVERLAY, 0, STATIC
        ARGFRAME DOVERLAY, 0, STATIC
        FUNCALL MT_SysOsalNVItemInit, MT_BuildAndSendZToolResponse
        LOCFRAME ISTACK, 0, STACK
        LOCFRAME PSTACK, 0, STACK
        LOCFRAME XSTACK, 15, STACK
        LOCFRAME IOVERLAY, 0, STATIC
        LOCFRAME DOVERLAY, 0, STATIC
        ARGFRAME ISTACK, 0, STACK
        ARGFRAME PSTACK, 0, STACK
        ARGFRAME XSTACK, 15, STACK
        ARGFRAME IOVERLAY, 0, STATIC
        ARGFRAME DOVERLAY, 0, STATIC
        MOV     A,#-0xe
        LCALL   ?BANKED_ENTER_XDATA
        CFI DPH0 load(1, XDATA, add(CFA_XSP16, literal(-1)))
        CFI DPL0 load(1, XDATA, add(CFA_XSP16, literal(-2)))
        CFI ?BRET_EXT load(1, XDATA, add(CFA_XSP16, literal(-3)))
        CFI ?RET_HIGH load(1, XDATA, add(CFA_XSP16, literal(-4)))
        CFI ?RET_LOW load(1, XDATA, add(CFA_XSP16, literal(-5)))
        CFI R7 load(1, XDATA, add(CFA_XSP16, literal(-6)))
        CFI V5 load(1, XDATA, add(CFA_XSP16, literal(-7)))
        CFI V4 load(1, XDATA, add(CFA_XSP16, literal(-8)))
        CFI V3 load(1, XDATA, add(CFA_XSP16, literal(-9)))
        CFI V2 load(1, XDATA, add(CFA_XSP16, literal(-10)))
        CFI V1 load(1, XDATA, add(CFA_XSP16, literal(-11)))
        CFI V0 load(1, XDATA, add(CFA_XSP16, literal(-12)))
        CFI VB load(1, XDATA, add(CFA_XSP16, literal(-13)))
        CFI R6 load(1, XDATA, add(CFA_XSP16, literal(-14)))
        CFI CFA_SP SP+0
        CFI CFA_XSP16 add(XSP16, 14)
        ; Saved register size: 14
        ; Auto size: 1
        MOV     A,#-0x1
        LCALL   ?ALLOC_XSTACK8
        CFI CFA_XSP16 add(XSP16, 15)
//  512   uint8 ret;
//  513   uint8 idLen;
//  514   uint16 nvId;
//  515   uint16 nvLen;
//  516 
//  517   /* Skip over RPC header */
//  518   pBuf += MT_RPC_FRAME_HDR_SZ;
        LCALL   ?Subroutine4 & 0xFFFF
//  519 
//  520   /* NV item ID */
//  521   nvId = BUILD_UINT16(pBuf[0], pBuf[1]);
//  522   /* NV item length */
//  523   nvLen = BUILD_UINT16(pBuf[2], pBuf[3]);
??CrossCallReturnLabel_1:
        MOV     R2,A
        MOV     DPL,?V0 + 0
        MOV     DPH,?V0 + 1
        INC     DPTR
        INC     DPTR
        INC     DPTR
        MOVX    A,@DPTR
        MOV     R1,A
        MOV     A,R2
        MOV     R4,A
        CLR     A
        ADDC    A,R1
        MOV     R5,A
//  524   /* Initialization data length */
//  525   idLen = pBuf[4];
        MOV     DPL,?V0 + 0
        MOV     DPH,?V0 + 1
        INC     DPTR
        INC     DPTR
        INC     DPTR
        INC     DPTR
        MOVX    A,@DPTR
        MOV     ?V0 + 4,A
//  526   pBuf += 5;
        MOV     A,?V0 + 0
        ADD     A,#0x5
        MOV     ?V0 + 0,A
        MOV     A,?V0 + 1
        ADDC    A,#0x0
        MOV     ?V0 + 1,A
//  527 
//  528   if ( idLen < nvLen )
        MOV     ?V0 + 2,?V0 + 4
        CLR     C
        MOV     A,?V0 + 2
        SUBB    A,R4
        CLR     A
        SUBB    A,R5
        JNC     ??MT_SysOsalNVItemInit_0
//  529   {
//  530     /* Attempt to create a new NV item */
//  531     ret = osal_nv_item_init( nvId, nvLen, NULL );
        ; Setup parameters for call to function osal_nv_item_init
        CLR     A
        MOV     ?V0 + 2,A
        MOV     ?V0 + 3,A
        MOV     R0,#?V0 + 2
        LCALL   ?PUSH_XSTACK_I_TWO
        CFI CFA_XSP16 add(XSP16, 17)
        MOV     A,R6
        MOV     R2,A
        MOV     A,R7
        MOV     R3,A
        LCALL   ??osal_nv_item_init?relay
        MOV     A,#0x2
        LCALL   ?DEALLOC_XSTACK8
        CFI CFA_XSP16 add(XSP16, 15)
        MOV     A,R1
        MOV     DPL,?XSP + 0
        MOV     DPH,?XSP + 1
        MOVX    @DPTR,A
//  532     if ( (ret == NV_ITEM_UNINIT) && (idLen > 0) )
        XRL     A,#0x9
        JNZ     ??MT_SysOsalNVItemInit_1
        MOV     A,?V0 + 4
        JZ      ??MT_SysOsalNVItemInit_1
//  533     {
//  534       /* Write initialization data to first part of new item */
//  535       (void) osal_nv_write( nvId, 0, (uint16)idLen, pBuf );
        ; Setup parameters for call to function osal_nv_write
        MOV     R0,#?V0 + 0
        LCALL   ?PUSH_XSTACK_I_TWO
        CFI CFA_XSP16 add(XSP16, 17)
        MOV     ?V0 + 5,#0x0
        MOV     R0,#?V0 + 4
        LCALL   ?PUSH_XSTACK_I_TWO
        CFI CFA_XSP16 add(XSP16, 19)
        MOV     R4,#0x0
        MOV     R5,#0x0
        MOV     A,R6
        MOV     R2,A
        MOV     A,R7
        MOV     R3,A
        LCALL   ??osal_nv_write?relay
        MOV     A,#0x4
        LCALL   ?DEALLOC_XSTACK8
        CFI CFA_XSP16 add(XSP16, 15)
        SJMP    ??MT_SysOsalNVItemInit_1
//  536     }
//  537   }
//  538   else
//  539   {
//  540     /* Attempt to create/initialize a new NV item */
//  541     ret = osal_nv_item_init( nvId, nvLen, pBuf );
??MT_SysOsalNVItemInit_0:
        ; Setup parameters for call to function osal_nv_item_init
        MOV     R0,#?V0 + 0
        LCALL   ?PUSH_XSTACK_I_TWO
        CFI CFA_XSP16 add(XSP16, 17)
        MOV     A,R6
        MOV     R2,A
        MOV     A,R7
        MOV     R3,A
        LCALL   ??osal_nv_item_init?relay
        MOV     A,#0x2
        LCALL   ?DEALLOC_XSTACK8
        CFI CFA_XSP16 add(XSP16, 15)
        MOV     A,R1
        MOV     DPL,?XSP + 0
        MOV     DPH,?XSP + 1
        MOVX    @DPTR,A
//  542   }
//  543 
//  544   /* Build and send back the response */
//  545   MT_BuildAndSendZToolResponse(((uint8)MT_RPC_CMD_SRSP | (uint8)MT_RPC_SYS_SYS),
//  546                                  MT_SYS_OSAL_NV_ITEM_INIT, 1, &ret);
??MT_SysOsalNVItemInit_1:
        ; Setup parameters for call to function MT_BuildAndSendZToolResponse
        MOV     DPL,?XSP + 0
        MOV     DPH,?XSP + 1
        MOV     R4,DPL
        MOV     R5,DPH
        MOV     R3,#0x1
        MOV     R2,#0x7
        LCALL   ?Subroutine15 & 0xFFFF
//  547 }
??CrossCallReturnLabel_45:
        LCALL   ?DEALLOC_XSTACK8
        CFI CFA_XSP16 add(XSP16, 14)
        MOV     R7,#0x6
        LJMP    ?BANKED_LEAVE_XDATA
        CFI EndBlock cfiBlock24

        RSEG BANKED_CODE:CODE:NOROOT(0)
?Subroutine4:
        CFI Block cfiCond25 Using cfiCommon0
        CFI NoFunction
        CFI Conditional ??CrossCallReturnLabel_0
        CFI R6 load(1, XDATA, add(CFA_XSP16, literal(-13)))
        CFI VB load(1, XDATA, add(CFA_XSP16, literal(-12)))
        CFI V0 load(1, XDATA, add(CFA_XSP16, literal(-11)))
        CFI V1 load(1, XDATA, add(CFA_XSP16, literal(-10)))
        CFI V2 load(1, XDATA, add(CFA_XSP16, literal(-9)))
        CFI V3 load(1, XDATA, add(CFA_XSP16, literal(-8)))
        CFI V4 load(1, XDATA, add(CFA_XSP16, literal(-7)))
        CFI R7 load(1, XDATA, add(CFA_XSP16, literal(-6)))
        CFI ?RET_LOW load(1, XDATA, add(CFA_XSP16, literal(-5)))
        CFI ?RET_HIGH load(1, XDATA, add(CFA_XSP16, literal(-4)))
        CFI ?BRET_EXT load(1, XDATA, add(CFA_XSP16, literal(-3)))
        CFI DPL0 load(1, XDATA, add(CFA_XSP16, literal(-2)))
        CFI DPH0 load(1, XDATA, add(CFA_XSP16, literal(-1)))
        CFI CFA_SP SP+0
        CFI CFA_XSP16 add(XSP16, 14)
        CFI Block cfiCond26 Using cfiCommon0
        CFI (cfiCond26) NoFunction
        CFI (cfiCond26) Conditional ??CrossCallReturnLabel_1
        CFI (cfiCond26) R6 load(1, XDATA, add(CFA_XSP16, literal(-14)))
        CFI (cfiCond26) VB load(1, XDATA, add(CFA_XSP16, literal(-13)))
        CFI (cfiCond26) V0 load(1, XDATA, add(CFA_XSP16, literal(-12)))
        CFI (cfiCond26) V1 load(1, XDATA, add(CFA_XSP16, literal(-11)))
        CFI (cfiCond26) V2 load(1, XDATA, add(CFA_XSP16, literal(-10)))
        CFI (cfiCond26) V3 load(1, XDATA, add(CFA_XSP16, literal(-9)))
        CFI (cfiCond26) V4 load(1, XDATA, add(CFA_XSP16, literal(-8)))
        CFI (cfiCond26) V5 load(1, XDATA, add(CFA_XSP16, literal(-7)))
        CFI (cfiCond26) R7 load(1, XDATA, add(CFA_XSP16, literal(-6)))
        CFI (cfiCond26) ?RET_LOW load(1, XDATA, add(CFA_XSP16, literal(-5)))
        CFI (cfiCond26) ?RET_HIGH load(1, XDATA, add(CFA_XSP16, literal(-4)))
        CFI (cfiCond26) ?BRET_EXT load(1, XDATA, add(CFA_XSP16, literal(-3)))
        CFI (cfiCond26) DPL0 load(1, XDATA, add(CFA_XSP16, literal(-2)))
        CFI (cfiCond26) DPH0 load(1, XDATA, add(CFA_XSP16, literal(-1)))
        CFI (cfiCond26) CFA_SP SP+0
        CFI (cfiCond26) CFA_XSP16 add(XSP16, 15)
        CFI Block cfiPicker27 Using cfiCommon1
        CFI (cfiPicker27) NoFunction
        CFI (cfiPicker27) Picker
        LCALL   ?Subroutine23 & 0xFFFF
??CrossCallReturnLabel_36:
        MOV     DPL,?V0 + 0
        MOV     DPH,A
        MOVX    A,@DPTR
        MOV     R2,A
        INC     DPTR
        MOVX    A,@DPTR
        MOV     R1,A
        MOV     A,R2
        ADD     A,#0x0
        MOV     R6,A
        CLR     A
        ADDC    A,R1
        MOV     R7,A
        MOV     DPL,?V0 + 0
        MOV     DPH,?V0 + 1
        INC     DPTR
        INC     DPTR
        MOVX    A,@DPTR
        RET
        CFI EndBlock cfiCond25
        CFI EndBlock cfiCond26
        CFI EndBlock cfiPicker27

        RSEG BANKED_CODE:CODE:NOROOT(0)
?Subroutine23:
        CFI Block cfiCond28 Using cfiCommon0
        CFI NoFunction
        CFI Conditional ??CrossCallReturnLabel_35
        CFI R6 load(1, XDATA, add(CFA_XSP16, literal(-10)))
        CFI VB load(1, XDATA, add(CFA_XSP16, literal(-9)))
        CFI V0 load(1, XDATA, add(CFA_XSP16, literal(-8)))
        CFI V1 load(1, XDATA, add(CFA_XSP16, literal(-7)))
        CFI R7 load(1, XDATA, add(CFA_XSP16, literal(-6)))
        CFI ?RET_LOW load(1, XDATA, add(CFA_XSP16, literal(-5)))
        CFI ?RET_HIGH load(1, XDATA, add(CFA_XSP16, literal(-4)))
        CFI ?BRET_EXT load(1, XDATA, add(CFA_XSP16, literal(-3)))
        CFI DPL0 load(1, XDATA, add(CFA_XSP16, literal(-2)))
        CFI DPH0 load(1, XDATA, add(CFA_XSP16, literal(-1)))
        CFI CFA_SP SP+0
        CFI CFA_XSP16 add(XSP16, 11)
        CFI Block cfiCond29 Using cfiCommon0
        CFI (cfiCond29) NoFunction
        CFI (cfiCond29) Conditional ??CrossCallReturnLabel_36, ??CrossCallReturnLabel_0
        CFI (cfiCond29) R6 load(1, XDATA, add(CFA_XSP16, literal(-13)))
        CFI (cfiCond29) VB load(1, XDATA, add(CFA_XSP16, literal(-12)))
        CFI (cfiCond29) V0 load(1, XDATA, add(CFA_XSP16, literal(-11)))
        CFI (cfiCond29) V1 load(1, XDATA, add(CFA_XSP16, literal(-10)))
        CFI (cfiCond29) V2 load(1, XDATA, add(CFA_XSP16, literal(-9)))
        CFI (cfiCond29) V3 load(1, XDATA, add(CFA_XSP16, literal(-8)))
        CFI (cfiCond29) V4 load(1, XDATA, add(CFA_XSP16, literal(-7)))
        CFI (cfiCond29) R7 load(1, XDATA, add(CFA_XSP16, literal(-6)))
        CFI (cfiCond29) ?RET_LOW load(1, XDATA, add(CFA_XSP16, literal(-5)))
        CFI (cfiCond29) ?RET_HIGH load(1, XDATA, add(CFA_XSP16, literal(-4)))
        CFI (cfiCond29) ?BRET_EXT load(1, XDATA, add(CFA_XSP16, literal(-3)))
        CFI (cfiCond29) DPL0 load(1, XDATA, add(CFA_XSP16, literal(-2)))
        CFI (cfiCond29) DPH0 load(1, XDATA, add(CFA_XSP16, literal(-1)))
        CFI (cfiCond29) CFA_SP SP+0
        CFI (cfiCond29) CFA_XSP16 add(XSP16, 14)
        CFI Block cfiCond30 Using cfiCommon0
        CFI (cfiCond30) NoFunction
        CFI (cfiCond30) Conditional ??CrossCallReturnLabel_36, ??CrossCallReturnLabel_1
        CFI (cfiCond30) R6 load(1, XDATA, add(CFA_XSP16, literal(-14)))
        CFI (cfiCond30) VB load(1, XDATA, add(CFA_XSP16, literal(-13)))
        CFI (cfiCond30) V0 load(1, XDATA, add(CFA_XSP16, literal(-12)))
        CFI (cfiCond30) V1 load(1, XDATA, add(CFA_XSP16, literal(-11)))
        CFI (cfiCond30) V2 load(1, XDATA, add(CFA_XSP16, literal(-10)))
        CFI (cfiCond30) V3 load(1, XDATA, add(CFA_XSP16, literal(-9)))
        CFI (cfiCond30) V4 load(1, XDATA, add(CFA_XSP16, literal(-8)))
        CFI (cfiCond30) V5 load(1, XDATA, add(CFA_XSP16, literal(-7)))
        CFI (cfiCond30) R7 load(1, XDATA, add(CFA_XSP16, literal(-6)))
        CFI (cfiCond30) ?RET_LOW load(1, XDATA, add(CFA_XSP16, literal(-5)))
        CFI (cfiCond30) ?RET_HIGH load(1, XDATA, add(CFA_XSP16, literal(-4)))
        CFI (cfiCond30) ?BRET_EXT load(1, XDATA, add(CFA_XSP16, literal(-3)))
        CFI (cfiCond30) DPL0 load(1, XDATA, add(CFA_XSP16, literal(-2)))
        CFI (cfiCond30) DPH0 load(1, XDATA, add(CFA_XSP16, literal(-1)))
        CFI (cfiCond30) CFA_SP SP+0
        CFI (cfiCond30) CFA_XSP16 add(XSP16, 15)
        CFI Block cfiPicker31 Using cfiCommon1
        CFI (cfiPicker31) NoFunction
        CFI (cfiPicker31) Picker
        MOV     A,R2
        ADD     A,#0x3
        MOV     ?V0 + 0,A
        MOV     A,R3
        ADDC    A,#0x0
        MOV     ?V0 + 1,A
        RET
        CFI EndBlock cfiCond28
        CFI EndBlock cfiCond29
        CFI EndBlock cfiCond30
        CFI EndBlock cfiPicker31
//  548 
//  549 /***************************************************************************************************
//  550  * @fn      MT_SysOsalNVDelete
//  551  *
//  552  * @brief   Attempt to delete an NV item
//  553  *
//  554  * @param   uint8 pData - pointer to the data
//  555  *
//  556  * @return  None
//  557  ***************************************************************************************************/

        RSEG BANKED_CODE:CODE:NOROOT(0)
//  558 void MT_SysOsalNVDelete(uint8 *pBuf)
MT_SysOsalNVDelete:
        CFI Block cfiBlock32 Using cfiCommon0
        CFI Function MT_SysOsalNVDelete
        CODE
//  559 {
        FUNCALL MT_SysOsalNVDelete, osal_nv_delete
        LOCFRAME ISTACK, 0, STACK
        LOCFRAME PSTACK, 0, STACK
        LOCFRAME XSTACK, 10, STACK
        LOCFRAME IOVERLAY, 0, STATIC
        LOCFRAME DOVERLAY, 0, STATIC
        ARGFRAME ISTACK, 0, STACK
        ARGFRAME PSTACK, 0, STACK
        ARGFRAME XSTACK, 10, STACK
        ARGFRAME IOVERLAY, 0, STATIC
        ARGFRAME DOVERLAY, 0, STATIC
        FUNCALL MT_SysOsalNVDelete, MT_BuildAndSendZToolResponse
        LOCFRAME ISTACK, 0, STACK
        LOCFRAME PSTACK, 0, STACK
        LOCFRAME XSTACK, 10, STACK
        LOCFRAME IOVERLAY, 0, STATIC
        LOCFRAME DOVERLAY, 0, STATIC
        ARGFRAME ISTACK, 0, STACK
        ARGFRAME PSTACK, 0, STACK
        ARGFRAME XSTACK, 10, STACK
        ARGFRAME IOVERLAY, 0, STATIC
        ARGFRAME DOVERLAY, 0, STATIC
        MOV     A,#-0x9
        LCALL   ?BANKED_ENTER_XDATA
        CFI DPH0 load(1, XDATA, add(CFA_XSP16, literal(-1)))
        CFI DPL0 load(1, XDATA, add(CFA_XSP16, literal(-2)))
        CFI ?BRET_EXT load(1, XDATA, add(CFA_XSP16, literal(-3)))
        CFI ?RET_HIGH load(1, XDATA, add(CFA_XSP16, literal(-4)))
        CFI ?RET_LOW load(1, XDATA, add(CFA_XSP16, literal(-5)))
        CFI R7 load(1, XDATA, add(CFA_XSP16, literal(-6)))
        CFI V0 load(1, XDATA, add(CFA_XSP16, literal(-7)))
        CFI VB load(1, XDATA, add(CFA_XSP16, literal(-8)))
        CFI R6 load(1, XDATA, add(CFA_XSP16, literal(-9)))
        CFI CFA_SP SP+0
        CFI CFA_XSP16 add(XSP16, 9)
        ; Saved register size: 9
        ; Auto size: 1
        MOV     A,#-0x1
        LCALL   ?ALLOC_XSTACK8
        CFI CFA_XSP16 add(XSP16, 10)
//  560   uint16 nvId;
//  561   uint16 nvLen;
//  562   uint8 ret;
//  563 
//  564   /* Skip over RPC header */
//  565   pBuf += MT_RPC_FRAME_HDR_SZ;
        LCALL   ?Subroutine13 & 0xFFFF
//  566 
//  567   /* Get the ID */
//  568   nvId = BUILD_UINT16(pBuf[0], pBuf[1]);
//  569   /* Get the length */
//  570   nvLen = BUILD_UINT16(pBuf[2], pBuf[3]);
//  571 
//  572   /* Attempt to delete the NV item */
//  573   ret = osal_nv_delete( nvId, nvLen );
??CrossCallReturnLabel_15:
        INC     DPTR
        INC     DPTR
        MOVX    A,@DPTR
        MOV     R4,A
        MOV     DPL,R2
        MOV     DPH,R3
        INC     DPTR
        LCALL   ?Subroutine7 & 0xFFFF
??CrossCallReturnLabel_7:
        MOV     R6,A
        INC     DPTR
        MOVX    A,@DPTR
        MOV     R1,A
        MOV     A,R6
        MOV     R2,A
        CLR     A
        ADDC    A,R1
        MOV     R3,A
        LCALL   ??osal_nv_delete?relay
        LCALL   ?Subroutine12 & 0xFFFF
//  574 
//  575   /* Build and send back the response */
//  576   MT_BuildAndSendZToolResponse(((uint8)MT_RPC_CMD_SRSP | (uint8)MT_RPC_SYS_SYS),
//  577                                  MT_SYS_OSAL_NV_DELETE, 1, &ret);
??CrossCallReturnLabel_39:
        MOV     R2,#0x12
        SJMP    ??Subroutine28_0
        CFI EndBlock cfiBlock32
//  578 }

        RSEG BANKED_CODE:CODE:NOROOT(0)
?Subroutine12:
        CFI Block cfiCond33 Using cfiCommon0
        CFI NoFunction
        CFI Conditional ??CrossCallReturnLabel_39
        CFI R6 load(1, XDATA, add(CFA_XSP16, literal(-9)))
        CFI VB load(1, XDATA, add(CFA_XSP16, literal(-8)))
        CFI V0 load(1, XDATA, add(CFA_XSP16, literal(-7)))
        CFI R7 load(1, XDATA, add(CFA_XSP16, literal(-6)))
        CFI ?RET_LOW load(1, XDATA, add(CFA_XSP16, literal(-5)))
        CFI ?RET_HIGH load(1, XDATA, add(CFA_XSP16, literal(-4)))
        CFI ?BRET_EXT load(1, XDATA, add(CFA_XSP16, literal(-3)))
        CFI DPL0 load(1, XDATA, add(CFA_XSP16, literal(-2)))
        CFI DPH0 load(1, XDATA, add(CFA_XSP16, literal(-1)))
        CFI CFA_SP SP+0
        CFI CFA_XSP16 add(XSP16, 10)
        CFI Block cfiCond34 Using cfiCommon0
        CFI (cfiCond34) NoFunction
        CFI (cfiCond34) Conditional ??CrossCallReturnLabel_40
        CFI (cfiCond34) R6 load(1, XDATA, add(CFA_XSP16, literal(-9)))
        CFI (cfiCond34) VB load(1, XDATA, add(CFA_XSP16, literal(-8)))
        CFI (cfiCond34) V0 load(1, XDATA, add(CFA_XSP16, literal(-7)))
        CFI (cfiCond34) R7 load(1, XDATA, add(CFA_XSP16, literal(-6)))
        CFI (cfiCond34) ?RET_LOW load(1, XDATA, add(CFA_XSP16, literal(-5)))
        CFI (cfiCond34) ?RET_HIGH load(1, XDATA, add(CFA_XSP16, literal(-4)))
        CFI (cfiCond34) ?BRET_EXT load(1, XDATA, add(CFA_XSP16, literal(-3)))
        CFI (cfiCond34) DPL0 load(1, XDATA, add(CFA_XSP16, literal(-2)))
        CFI (cfiCond34) DPH0 load(1, XDATA, add(CFA_XSP16, literal(-1)))
        CFI (cfiCond34) CFA_SP SP+0
        CFI (cfiCond34) CFA_XSP16 add(XSP16, 10)
        CFI Block cfiPicker35 Using cfiCommon1
        CFI (cfiPicker35) NoFunction
        CFI (cfiPicker35) Picker
        MOV     A,R1
        MOV     DPL,?XSP + 0
        MOV     DPH,?XSP + 1
        CFI EndBlock cfiCond33
        CFI EndBlock cfiCond34
        CFI EndBlock cfiPicker35
        REQUIRE ??Subroutine26_0
        ; // Fall through to label ??Subroutine26_0

        RSEG BANKED_CODE:CODE:NOROOT(0)
??Subroutine26_0:
        CFI Block cfiCond36 Using cfiCommon0
        CFI NoFunction
        CFI Conditional ??CrossCallReturnLabel_41
        CFI DPL0 Frame(CFA_SP, 4)
        CFI DPH0 Frame(CFA_SP, 5)
        CFI CFA_SP SP+-5
        CFI CFA_XSP16 add(XSP16, 1)
        CFI Block cfiCond37 Using cfiCommon0
        CFI (cfiCond37) NoFunction
        CFI (cfiCond37) Conditional ??CrossCallReturnLabel_42
        CFI (cfiCond37) R6 load(1, XDATA, add(CFA_XSP16, literal(-16)))
        CFI (cfiCond37) VB load(1, XDATA, add(CFA_XSP16, literal(-15)))
        CFI (cfiCond37) V0 load(1, XDATA, add(CFA_XSP16, literal(-14)))
        CFI (cfiCond37) V1 load(1, XDATA, add(CFA_XSP16, literal(-13)))
        CFI (cfiCond37) V2 load(1, XDATA, add(CFA_XSP16, literal(-12)))
        CFI (cfiCond37) V3 load(1, XDATA, add(CFA_XSP16, literal(-11)))
        CFI (cfiCond37) V4 load(1, XDATA, add(CFA_XSP16, literal(-10)))
        CFI (cfiCond37) V5 load(1, XDATA, add(CFA_XSP16, literal(-9)))
        CFI (cfiCond37) V6 load(1, XDATA, add(CFA_XSP16, literal(-8)))
        CFI (cfiCond37) V7 load(1, XDATA, add(CFA_XSP16, literal(-7)))
        CFI (cfiCond37) R7 load(1, XDATA, add(CFA_XSP16, literal(-6)))
        CFI (cfiCond37) ?RET_LOW load(1, XDATA, add(CFA_XSP16, literal(-5)))
        CFI (cfiCond37) ?RET_HIGH load(1, XDATA, add(CFA_XSP16, literal(-4)))
        CFI (cfiCond37) ?BRET_EXT load(1, XDATA, add(CFA_XSP16, literal(-3)))
        CFI (cfiCond37) DPL0 load(1, XDATA, add(CFA_XSP16, literal(-2)))
        CFI (cfiCond37) DPH0 load(1, XDATA, add(CFA_XSP16, literal(-1)))
        CFI (cfiCond37) CFA_SP SP+0
        CFI (cfiCond37) CFA_XSP16 add(XSP16, 24)
        CFI Block cfiCond38 Using cfiCommon0
        CFI (cfiCond38) NoFunction
        CFI (cfiCond38) Conditional ??CrossCallReturnLabel_39
        CFI (cfiCond38) R6 load(1, XDATA, add(CFA_XSP16, literal(-9)))
        CFI (cfiCond38) VB load(1, XDATA, add(CFA_XSP16, literal(-8)))
        CFI (cfiCond38) V0 load(1, XDATA, add(CFA_XSP16, literal(-7)))
        CFI (cfiCond38) R7 load(1, XDATA, add(CFA_XSP16, literal(-6)))
        CFI (cfiCond38) ?RET_LOW load(1, XDATA, add(CFA_XSP16, literal(-5)))
        CFI (cfiCond38) ?RET_HIGH load(1, XDATA, add(CFA_XSP16, literal(-4)))
        CFI (cfiCond38) ?BRET_EXT load(1, XDATA, add(CFA_XSP16, literal(-3)))
        CFI (cfiCond38) DPL0 load(1, XDATA, add(CFA_XSP16, literal(-2)))
        CFI (cfiCond38) DPH0 load(1, XDATA, add(CFA_XSP16, literal(-1)))
        CFI (cfiCond38) CFA_SP SP+0
        CFI (cfiCond38) CFA_XSP16 add(XSP16, 10)
        CFI Block cfiCond39 Using cfiCommon0
        CFI (cfiCond39) NoFunction
        CFI (cfiCond39) Conditional ??CrossCallReturnLabel_40
        CFI (cfiCond39) R6 load(1, XDATA, add(CFA_XSP16, literal(-9)))
        CFI (cfiCond39) VB load(1, XDATA, add(CFA_XSP16, literal(-8)))
        CFI (cfiCond39) V0 load(1, XDATA, add(CFA_XSP16, literal(-7)))
        CFI (cfiCond39) R7 load(1, XDATA, add(CFA_XSP16, literal(-6)))
        CFI (cfiCond39) ?RET_LOW load(1, XDATA, add(CFA_XSP16, literal(-5)))
        CFI (cfiCond39) ?RET_HIGH load(1, XDATA, add(CFA_XSP16, literal(-4)))
        CFI (cfiCond39) ?BRET_EXT load(1, XDATA, add(CFA_XSP16, literal(-3)))
        CFI (cfiCond39) DPL0 load(1, XDATA, add(CFA_XSP16, literal(-2)))
        CFI (cfiCond39) DPH0 load(1, XDATA, add(CFA_XSP16, literal(-1)))
        CFI (cfiCond39) CFA_SP SP+0
        CFI (cfiCond39) CFA_XSP16 add(XSP16, 10)
        CFI Block cfiPicker40 Using cfiCommon1
        CFI (cfiPicker40) NoFunction
        CFI (cfiPicker40) Picker
        MOVX    @DPTR,A
        ; Setup parameters for call to function MT_BuildAndSendZToolResponse
        ; Setup parameters for call to function MT_BuildAndSendZToolResponse
        ; Setup parameters for call to function MT_BuildAndSendZToolResponse
        ; Setup parameters for call to function MT_BuildAndSendZToolResponse
        MOV     R4,DPL
        MOV     R5,DPH
        MOV     R3,#0x1
        RET
        CFI EndBlock cfiCond36
        CFI EndBlock cfiCond37
        CFI EndBlock cfiCond38
        CFI EndBlock cfiCond39
        CFI EndBlock cfiPicker40

        RSEG BANKED_CODE:CODE:NOROOT(0)
?Subroutine0:
        CFI Block cfiBlock41 Using cfiCommon0
        CFI NoFunction
        CFI CFA_SP SP+0
        CFI CFA_XSP16 add(XSP16, 10)
        CFI VB load(1, XDATA, add(CFA_XSP16, literal(-8)))
        CFI DPL0 load(1, XDATA, add(CFA_XSP16, literal(-2)))
        CFI DPH0 load(1, XDATA, add(CFA_XSP16, literal(-1)))
        CFI R6 load(1, XDATA, add(CFA_XSP16, literal(-9)))
        CFI R7 load(1, XDATA, add(CFA_XSP16, literal(-6)))
        CFI V0 load(1, XDATA, add(CFA_XSP16, literal(-7)))
        CFI ?BRET_EXT load(1, XDATA, add(CFA_XSP16, literal(-3)))
        CFI ?RET_HIGH load(1, XDATA, add(CFA_XSP16, literal(-4)))
        CFI ?RET_LOW load(1, XDATA, add(CFA_XSP16, literal(-5)))
        MOVX    @DPTR,A
        CFI EndBlock cfiBlock41
        ; Setup parameters for call to function MT_BuildAndSendZToolResponse
        ; Setup parameters for call to function MT_BuildAndSendZToolResponse
        REQUIRE ??Subroutine27_0
        ; // Fall through to label ??Subroutine27_0

        RSEG BANKED_CODE:CODE:NOROOT(0)
??Subroutine27_0:
        CFI Block cfiBlock42 Using cfiCommon0
        CFI NoFunction
        CFI CFA_SP SP+0
        CFI CFA_XSP16 add(XSP16, 10)
        CFI VB load(1, XDATA, add(CFA_XSP16, literal(-8)))
        CFI DPL0 load(1, XDATA, add(CFA_XSP16, literal(-2)))
        CFI DPH0 load(1, XDATA, add(CFA_XSP16, literal(-1)))
        CFI R6 load(1, XDATA, add(CFA_XSP16, literal(-9)))
        CFI R7 load(1, XDATA, add(CFA_XSP16, literal(-6)))
        CFI V0 load(1, XDATA, add(CFA_XSP16, literal(-7)))
        CFI ?BRET_EXT load(1, XDATA, add(CFA_XSP16, literal(-3)))
        CFI ?RET_HIGH load(1, XDATA, add(CFA_XSP16, literal(-4)))
        CFI ?RET_LOW load(1, XDATA, add(CFA_XSP16, literal(-5)))
        MOV     R4,DPL
        MOV     R5,DPH
        MOV     R3,#0x1
        MOV     A,R6
        MOV     R2,A
        CFI EndBlock cfiBlock42
        REQUIRE ??Subroutine28_0
        ; // Fall through to label ??Subroutine28_0

        RSEG BANKED_CODE:CODE:NOROOT(0)
??Subroutine28_0:
        CFI Block cfiBlock43 Using cfiCommon0
        CFI NoFunction
        CFI CFA_SP SP+0
        CFI CFA_XSP16 add(XSP16, 10)
        CFI VB load(1, XDATA, add(CFA_XSP16, literal(-8)))
        CFI DPL0 load(1, XDATA, add(CFA_XSP16, literal(-2)))
        CFI DPH0 load(1, XDATA, add(CFA_XSP16, literal(-1)))
        CFI R6 load(1, XDATA, add(CFA_XSP16, literal(-9)))
        CFI R7 load(1, XDATA, add(CFA_XSP16, literal(-6)))
        CFI V0 load(1, XDATA, add(CFA_XSP16, literal(-7)))
        CFI ?BRET_EXT load(1, XDATA, add(CFA_XSP16, literal(-3)))
        CFI ?RET_HIGH load(1, XDATA, add(CFA_XSP16, literal(-4)))
        CFI ?RET_LOW load(1, XDATA, add(CFA_XSP16, literal(-5)))
        MOV     R1,#0x61
        CFI EndBlock cfiBlock43
        REQUIRE ??Subroutine29_0
        ; // Fall through to label ??Subroutine29_0

        RSEG BANKED_CODE:CODE:NOROOT(0)
??Subroutine29_0:
        CFI Block cfiBlock44 Using cfiCommon0
        CFI NoFunction
        CFI CFA_SP SP+0
        CFI CFA_XSP16 add(XSP16, 10)
        CFI VB load(1, XDATA, add(CFA_XSP16, literal(-8)))
        CFI DPL0 load(1, XDATA, add(CFA_XSP16, literal(-2)))
        CFI DPH0 load(1, XDATA, add(CFA_XSP16, literal(-1)))
        CFI R6 load(1, XDATA, add(CFA_XSP16, literal(-9)))
        CFI R7 load(1, XDATA, add(CFA_XSP16, literal(-6)))
        CFI V0 load(1, XDATA, add(CFA_XSP16, literal(-7)))
        CFI ?BRET_EXT load(1, XDATA, add(CFA_XSP16, literal(-3)))
        CFI ?RET_HIGH load(1, XDATA, add(CFA_XSP16, literal(-4)))
        CFI ?RET_LOW load(1, XDATA, add(CFA_XSP16, literal(-5)))
        LCALL   ??Subroutine25_0 & 0xFFFF
??CrossCallReturnLabel_47:
        LCALL   ?DEALLOC_XSTACK8
        CFI EndBlock cfiBlock44
        REQUIRE ??Subroutine30_0
        ; // Fall through to label ??Subroutine30_0

        RSEG BANKED_CODE:CODE:NOROOT(0)
??Subroutine30_0:
        CFI Block cfiBlock45 Using cfiCommon0
        CFI NoFunction
        CFI CFA_SP SP+0
        CFI CFA_XSP16 add(XSP16, 9)
        CFI VB load(1, XDATA, add(CFA_XSP16, literal(-8)))
        CFI DPL0 load(1, XDATA, add(CFA_XSP16, literal(-2)))
        CFI DPH0 load(1, XDATA, add(CFA_XSP16, literal(-1)))
        CFI R6 load(1, XDATA, add(CFA_XSP16, literal(-9)))
        CFI R7 load(1, XDATA, add(CFA_XSP16, literal(-6)))
        CFI V0 load(1, XDATA, add(CFA_XSP16, literal(-7)))
        CFI ?BRET_EXT load(1, XDATA, add(CFA_XSP16, literal(-3)))
        CFI ?RET_HIGH load(1, XDATA, add(CFA_XSP16, literal(-4)))
        CFI ?RET_LOW load(1, XDATA, add(CFA_XSP16, literal(-5)))
        MOV     R7,#0x1
        LJMP    ?BANKED_LEAVE_XDATA
        CFI EndBlock cfiBlock45
//  579 
//  580 /***************************************************************************************************
//  581  * @fn      MT_SysOsalNVLength
//  582  *
//  583  * @brief   Attempt to get the length to an NV item
//  584  *
//  585  * @param   uint8 pData - pointer to the data
//  586  *
//  587  * @return  None
//  588  ***************************************************************************************************/

        RSEG BANKED_CODE:CODE:NOROOT(0)
//  589 void MT_SysOsalNVLength(uint8 *pBuf)
MT_SysOsalNVLength:
        CFI Block cfiBlock46 Using cfiCommon0
        CFI Function MT_SysOsalNVLength
        CODE
//  590 {
        FUNCALL MT_SysOsalNVLength, osal_nv_item_len
        LOCFRAME ISTACK, 0, STACK
        LOCFRAME PSTACK, 0, STACK
        LOCFRAME XSTACK, 12, STACK
        LOCFRAME IOVERLAY, 0, STATIC
        LOCFRAME DOVERLAY, 0, STATIC
        ARGFRAME ISTACK, 0, STACK
        ARGFRAME PSTACK, 0, STACK
        ARGFRAME XSTACK, 12, STACK
        ARGFRAME IOVERLAY, 0, STATIC
        ARGFRAME DOVERLAY, 0, STATIC
        FUNCALL MT_SysOsalNVLength, MT_BuildAndSendZToolResponse
        LOCFRAME ISTACK, 0, STACK
        LOCFRAME PSTACK, 0, STACK
        LOCFRAME XSTACK, 12, STACK
        LOCFRAME IOVERLAY, 0, STATIC
        LOCFRAME DOVERLAY, 0, STATIC
        ARGFRAME ISTACK, 0, STACK
        ARGFRAME PSTACK, 0, STACK
        ARGFRAME XSTACK, 12, STACK
        ARGFRAME IOVERLAY, 0, STATIC
        ARGFRAME DOVERLAY, 0, STATIC
        MOV     A,#-0xa
        LCALL   ?BANKED_ENTER_XDATA
        CFI DPH0 load(1, XDATA, add(CFA_XSP16, literal(-1)))
        CFI DPL0 load(1, XDATA, add(CFA_XSP16, literal(-2)))
        CFI ?BRET_EXT load(1, XDATA, add(CFA_XSP16, literal(-3)))
        CFI ?RET_HIGH load(1, XDATA, add(CFA_XSP16, literal(-4)))
        CFI ?RET_LOW load(1, XDATA, add(CFA_XSP16, literal(-5)))
        CFI R7 load(1, XDATA, add(CFA_XSP16, literal(-6)))
        CFI V1 load(1, XDATA, add(CFA_XSP16, literal(-7)))
        CFI V0 load(1, XDATA, add(CFA_XSP16, literal(-8)))
        CFI VB load(1, XDATA, add(CFA_XSP16, literal(-9)))
        CFI R6 load(1, XDATA, add(CFA_XSP16, literal(-10)))
        CFI CFA_SP SP+0
        CFI CFA_XSP16 add(XSP16, 10)
        ; Saved register size: 10
        ; Auto size: 2
        MOV     A,#-0x2
        LCALL   ?ALLOC_XSTACK8
        CFI CFA_XSP16 add(XSP16, 12)
//  591   uint16 nvId;
//  592   uint16 nvLen;
//  593   uint8 rsp[2];
//  594 
//  595   /* Skip over RPC header */
//  596   pBuf += MT_RPC_FRAME_HDR_SZ;
        LCALL   ?Subroutine10 & 0xFFFF
//  597 
//  598   /* Get the ID */
//  599   nvId = BUILD_UINT16(pBuf[0], pBuf[1]);
//  600 
//  601   /* Attempt to get NV item length */
//  602   nvLen = osal_nv_item_len( nvId );
??CrossCallReturnLabel_14:
        MOV     R2,A
        CLR     A
        ADDC    A,R1
        MOV     R3,A
        LCALL   ??osal_nv_item_len?relay
//  603   rsp[0] = LO_UINT16( nvLen );
        MOV     A,R2
        MOV     DPL,?XSP + 0
        MOV     DPH,?XSP + 1
        MOVX    @DPTR,A
//  604   rsp[1] = HI_UINT16( nvLen );
        MOV     A,#0x1
        LCALL   ?XSTACK_DISP0_8
        LCALL   ?Subroutine11 & 0xFFFF
//  605 
//  606   /* Build and send back the response */
//  607   MT_BuildAndSendZToolResponse(((uint8)MT_RPC_CMD_SRSP | (uint8)MT_RPC_SYS_SYS),
//  608                                  MT_SYS_OSAL_NV_LENGTH, 2, rsp);
??CrossCallReturnLabel_48:
        MOV     R2,#0x13
        LJMP    ?Subroutine2 & 0xFFFF
        CFI EndBlock cfiBlock46
//  609 }

        RSEG BANKED_CODE:CODE:NOROOT(0)
?Subroutine11:
        CFI Block cfiCond47 Using cfiCommon0
        CFI NoFunction
        CFI Conditional ??CrossCallReturnLabel_48
        CFI R6 load(1, XDATA, add(CFA_XSP16, literal(-10)))
        CFI VB load(1, XDATA, add(CFA_XSP16, literal(-9)))
        CFI V0 load(1, XDATA, add(CFA_XSP16, literal(-8)))
        CFI V1 load(1, XDATA, add(CFA_XSP16, literal(-7)))
        CFI R7 load(1, XDATA, add(CFA_XSP16, literal(-6)))
        CFI ?RET_LOW load(1, XDATA, add(CFA_XSP16, literal(-5)))
        CFI ?RET_HIGH load(1, XDATA, add(CFA_XSP16, literal(-4)))
        CFI ?BRET_EXT load(1, XDATA, add(CFA_XSP16, literal(-3)))
        CFI DPL0 load(1, XDATA, add(CFA_XSP16, literal(-2)))
        CFI DPH0 load(1, XDATA, add(CFA_XSP16, literal(-1)))
        CFI CFA_SP SP+0
        CFI CFA_XSP16 add(XSP16, 12)
        CFI Block cfiCond48 Using cfiCommon0
        CFI (cfiCond48) NoFunction
        CFI (cfiCond48) Conditional ??CrossCallReturnLabel_49
        CFI (cfiCond48) R6 load(1, XDATA, add(CFA_XSP16, literal(-10)))
        CFI (cfiCond48) VB load(1, XDATA, add(CFA_XSP16, literal(-9)))
        CFI (cfiCond48) V0 load(1, XDATA, add(CFA_XSP16, literal(-8)))
        CFI (cfiCond48) V1 load(1, XDATA, add(CFA_XSP16, literal(-7)))
        CFI (cfiCond48) R7 load(1, XDATA, add(CFA_XSP16, literal(-6)))
        CFI (cfiCond48) ?RET_LOW load(1, XDATA, add(CFA_XSP16, literal(-5)))
        CFI (cfiCond48) ?RET_HIGH load(1, XDATA, add(CFA_XSP16, literal(-4)))
        CFI (cfiCond48) ?BRET_EXT load(1, XDATA, add(CFA_XSP16, literal(-3)))
        CFI (cfiCond48) DPL0 load(1, XDATA, add(CFA_XSP16, literal(-2)))
        CFI (cfiCond48) DPH0 load(1, XDATA, add(CFA_XSP16, literal(-1)))
        CFI (cfiCond48) CFA_SP SP+0
        CFI (cfiCond48) CFA_XSP16 add(XSP16, 12)
        CFI Block cfiPicker49 Using cfiCommon1
        CFI (cfiPicker49) NoFunction
        CFI (cfiPicker49) Picker
        MOV     A,R3
        CFI EndBlock cfiCond47
        CFI EndBlock cfiCond48
        CFI EndBlock cfiPicker49
        REQUIRE ??Subroutine31_0
        ; // Fall through to label ??Subroutine31_0

        RSEG BANKED_CODE:CODE:NOROOT(0)
??Subroutine31_0:
        CFI Block cfiCond50 Using cfiCommon0
        CFI NoFunction
        CFI Conditional ??CrossCallReturnLabel_50
        CFI DPL0 Frame(CFA_SP, 4)
        CFI DPH0 Frame(CFA_SP, 5)
        CFI CFA_SP SP+-5
        CFI CFA_XSP16 add(XSP16, 2)
        CFI Block cfiCond51 Using cfiCommon0
        CFI (cfiCond51) NoFunction
        CFI (cfiCond51) Conditional ??CrossCallReturnLabel_51
        CFI (cfiCond51) R6 load(1, XDATA, add(CFA_XSP16, literal(-10)))
        CFI (cfiCond51) VB load(1, XDATA, add(CFA_XSP16, literal(-9)))
        CFI (cfiCond51) V0 load(1, XDATA, add(CFA_XSP16, literal(-8)))
        CFI (cfiCond51) V1 load(1, XDATA, add(CFA_XSP16, literal(-7)))
        CFI (cfiCond51) R7 load(1, XDATA, add(CFA_XSP16, literal(-6)))
        CFI (cfiCond51) ?RET_LOW load(1, XDATA, add(CFA_XSP16, literal(-5)))
        CFI (cfiCond51) ?RET_HIGH load(1, XDATA, add(CFA_XSP16, literal(-4)))
        CFI (cfiCond51) ?BRET_EXT load(1, XDATA, add(CFA_XSP16, literal(-3)))
        CFI (cfiCond51) DPL0 load(1, XDATA, add(CFA_XSP16, literal(-2)))
        CFI (cfiCond51) DPH0 load(1, XDATA, add(CFA_XSP16, literal(-1)))
        CFI (cfiCond51) CFA_SP SP+0
        CFI (cfiCond51) CFA_XSP16 add(XSP16, 12)
        CFI Block cfiCond52 Using cfiCommon0
        CFI (cfiCond52) NoFunction
        CFI (cfiCond52) Conditional ??CrossCallReturnLabel_48
        CFI (cfiCond52) R6 load(1, XDATA, add(CFA_XSP16, literal(-10)))
        CFI (cfiCond52) VB load(1, XDATA, add(CFA_XSP16, literal(-9)))
        CFI (cfiCond52) V0 load(1, XDATA, add(CFA_XSP16, literal(-8)))
        CFI (cfiCond52) V1 load(1, XDATA, add(CFA_XSP16, literal(-7)))
        CFI (cfiCond52) R7 load(1, XDATA, add(CFA_XSP16, literal(-6)))
        CFI (cfiCond52) ?RET_LOW load(1, XDATA, add(CFA_XSP16, literal(-5)))
        CFI (cfiCond52) ?RET_HIGH load(1, XDATA, add(CFA_XSP16, literal(-4)))
        CFI (cfiCond52) ?BRET_EXT load(1, XDATA, add(CFA_XSP16, literal(-3)))
        CFI (cfiCond52) DPL0 load(1, XDATA, add(CFA_XSP16, literal(-2)))
        CFI (cfiCond52) DPH0 load(1, XDATA, add(CFA_XSP16, literal(-1)))
        CFI (cfiCond52) CFA_SP SP+0
        CFI (cfiCond52) CFA_XSP16 add(XSP16, 12)
        CFI Block cfiCond53 Using cfiCommon0
        CFI (cfiCond53) NoFunction
        CFI (cfiCond53) Conditional ??CrossCallReturnLabel_49
        CFI (cfiCond53) R6 load(1, XDATA, add(CFA_XSP16, literal(-10)))
        CFI (cfiCond53) VB load(1, XDATA, add(CFA_XSP16, literal(-9)))
        CFI (cfiCond53) V0 load(1, XDATA, add(CFA_XSP16, literal(-8)))
        CFI (cfiCond53) V1 load(1, XDATA, add(CFA_XSP16, literal(-7)))
        CFI (cfiCond53) R7 load(1, XDATA, add(CFA_XSP16, literal(-6)))
        CFI (cfiCond53) ?RET_LOW load(1, XDATA, add(CFA_XSP16, literal(-5)))
        CFI (cfiCond53) ?RET_HIGH load(1, XDATA, add(CFA_XSP16, literal(-4)))
        CFI (cfiCond53) ?BRET_EXT load(1, XDATA, add(CFA_XSP16, literal(-3)))
        CFI (cfiCond53) DPL0 load(1, XDATA, add(CFA_XSP16, literal(-2)))
        CFI (cfiCond53) DPH0 load(1, XDATA, add(CFA_XSP16, literal(-1)))
        CFI (cfiCond53) CFA_SP SP+0
        CFI (cfiCond53) CFA_XSP16 add(XSP16, 12)
        CFI Block cfiPicker54 Using cfiCommon1
        CFI (cfiPicker54) NoFunction
        CFI (cfiPicker54) Picker
        MOVX    @DPTR,A
        ; Setup parameters for call to function MT_BuildAndSendZToolResponse
        ; Setup parameters for call to function MT_BuildAndSendZToolResponse
        ; Setup parameters for call to function MT_BuildAndSendZToolResponse
        ; Setup parameters for call to function MT_BuildAndSendZToolResponse
        MOV     DPL,?XSP + 0
        MOV     DPH,?XSP + 1
        MOV     R4,DPL
        MOV     R5,DPH
        MOV     R3,#0x2
        RET
        CFI EndBlock cfiCond50
        CFI EndBlock cfiCond51
        CFI EndBlock cfiCond52
        CFI EndBlock cfiCond53
        CFI EndBlock cfiPicker54

        RSEG BANKED_CODE:CODE:NOROOT(0)
?Subroutine10:
        CFI Block cfiCond55 Using cfiCommon0
        CFI NoFunction
        CFI Conditional ??CrossCallReturnLabel_13
        CFI R6 load(1, XDATA, add(CFA_XSP16, literal(-16)))
        CFI VB load(1, XDATA, add(CFA_XSP16, literal(-15)))
        CFI V0 load(1, XDATA, add(CFA_XSP16, literal(-14)))
        CFI V1 load(1, XDATA, add(CFA_XSP16, literal(-13)))
        CFI V2 load(1, XDATA, add(CFA_XSP16, literal(-12)))
        CFI V3 load(1, XDATA, add(CFA_XSP16, literal(-11)))
        CFI V4 load(1, XDATA, add(CFA_XSP16, literal(-10)))
        CFI V5 load(1, XDATA, add(CFA_XSP16, literal(-9)))
        CFI V6 load(1, XDATA, add(CFA_XSP16, literal(-8)))
        CFI V7 load(1, XDATA, add(CFA_XSP16, literal(-7)))
        CFI R7 load(1, XDATA, add(CFA_XSP16, literal(-6)))
        CFI ?RET_LOW load(1, XDATA, add(CFA_XSP16, literal(-5)))
        CFI ?RET_HIGH load(1, XDATA, add(CFA_XSP16, literal(-4)))
        CFI ?BRET_EXT load(1, XDATA, add(CFA_XSP16, literal(-3)))
        CFI DPL0 load(1, XDATA, add(CFA_XSP16, literal(-2)))
        CFI DPH0 load(1, XDATA, add(CFA_XSP16, literal(-1)))
        CFI CFA_SP SP+0
        CFI CFA_XSP16 add(XSP16, 18)
        CFI Block cfiCond56 Using cfiCommon0
        CFI (cfiCond56) NoFunction
        CFI (cfiCond56) Conditional ??CrossCallReturnLabel_14
        CFI (cfiCond56) R6 load(1, XDATA, add(CFA_XSP16, literal(-10)))
        CFI (cfiCond56) VB load(1, XDATA, add(CFA_XSP16, literal(-9)))
        CFI (cfiCond56) V0 load(1, XDATA, add(CFA_XSP16, literal(-8)))
        CFI (cfiCond56) V1 load(1, XDATA, add(CFA_XSP16, literal(-7)))
        CFI (cfiCond56) R7 load(1, XDATA, add(CFA_XSP16, literal(-6)))
        CFI (cfiCond56) ?RET_LOW load(1, XDATA, add(CFA_XSP16, literal(-5)))
        CFI (cfiCond56) ?RET_HIGH load(1, XDATA, add(CFA_XSP16, literal(-4)))
        CFI (cfiCond56) ?BRET_EXT load(1, XDATA, add(CFA_XSP16, literal(-3)))
        CFI (cfiCond56) DPL0 load(1, XDATA, add(CFA_XSP16, literal(-2)))
        CFI (cfiCond56) DPH0 load(1, XDATA, add(CFA_XSP16, literal(-1)))
        CFI (cfiCond56) CFA_SP SP+0
        CFI (cfiCond56) CFA_XSP16 add(XSP16, 12)
        CFI Block cfiPicker57 Using cfiCommon1
        CFI (cfiPicker57) NoFunction
        CFI (cfiPicker57) Picker
        LCALL   ?Subroutine20 & 0xFFFF
??CrossCallReturnLabel_28:
        MOV     R4,A
        INC     DPTR
        MOVX    A,@DPTR
        MOV     R1,A
        MOV     A,R4
        ADD     A,#0x0
        RET
        CFI EndBlock cfiCond55
        CFI EndBlock cfiCond56
        CFI EndBlock cfiPicker57
//  610 
//  611 /***************************************************************************************************
//  612  * @fn      MT_SysOsalStartTimer
//  613  *
//  614  * @brief
//  615  *
//  616  * @param   uint8 pData - pointer to the data
//  617  *
//  618  * @return  None
//  619  ***************************************************************************************************/

        RSEG BANKED_CODE:CODE:NOROOT(0)
//  620 void MT_SysOsalStartTimer(uint8 *pBuf)
MT_SysOsalStartTimer:
        CFI Block cfiBlock58 Using cfiCommon0
        CFI Function MT_SysOsalStartTimer
        CODE
//  621 {
        FUNCALL MT_SysOsalStartTimer, osal_start_timerEx
        LOCFRAME ISTACK, 0, STACK
        LOCFRAME PSTACK, 0, STACK
        LOCFRAME XSTACK, 10, STACK
        LOCFRAME IOVERLAY, 0, STATIC
        LOCFRAME DOVERLAY, 0, STATIC
        ARGFRAME ISTACK, 0, STACK
        ARGFRAME PSTACK, 0, STACK
        ARGFRAME XSTACK, 10, STACK
        ARGFRAME IOVERLAY, 0, STATIC
        ARGFRAME DOVERLAY, 0, STATIC
        FUNCALL MT_SysOsalStartTimer, MT_BuildAndSendZToolResponse
        LOCFRAME ISTACK, 0, STACK
        LOCFRAME PSTACK, 0, STACK
        LOCFRAME XSTACK, 10, STACK
        LOCFRAME IOVERLAY, 0, STATIC
        LOCFRAME DOVERLAY, 0, STATIC
        ARGFRAME ISTACK, 0, STACK
        ARGFRAME PSTACK, 0, STACK
        ARGFRAME XSTACK, 10, STACK
        ARGFRAME IOVERLAY, 0, STATIC
        ARGFRAME DOVERLAY, 0, STATIC
        MOV     A,#-0x9
        LCALL   ?BANKED_ENTER_XDATA
        CFI DPH0 load(1, XDATA, add(CFA_XSP16, literal(-1)))
        CFI DPL0 load(1, XDATA, add(CFA_XSP16, literal(-2)))
        CFI ?BRET_EXT load(1, XDATA, add(CFA_XSP16, literal(-3)))
        CFI ?RET_HIGH load(1, XDATA, add(CFA_XSP16, literal(-4)))
        CFI ?RET_LOW load(1, XDATA, add(CFA_XSP16, literal(-5)))
        CFI R7 load(1, XDATA, add(CFA_XSP16, literal(-6)))
        CFI V0 load(1, XDATA, add(CFA_XSP16, literal(-7)))
        CFI VB load(1, XDATA, add(CFA_XSP16, literal(-8)))
        CFI R6 load(1, XDATA, add(CFA_XSP16, literal(-9)))
        CFI CFA_SP SP+0
        CFI CFA_XSP16 add(XSP16, 9)
        ; Saved register size: 9
        ; Auto size: 1
        MOV     A,#-0x1
        LCALL   ?ALLOC_XSTACK8
        CFI CFA_XSP16 add(XSP16, 10)
//  622   uint16 eventId;
//  623   uint8 retValue = ZFailure;
        LCALL   ?Subroutine5 & 0xFFFF
//  624   uint8 cmdId;
//  625 
//  626   /* parse header */
//  627   cmdId = pBuf[MT_RPC_POS_CMD1];
//  628   pBuf += MT_RPC_FRAME_HDR_SZ;
//  629 
//  630   if (*pBuf <= 3)
??CrossCallReturnLabel_2:
        JNC     ??MT_SysOsalStartTimer_0
//  631   {
//  632     eventId = (uint16) MT_SysOsalEventId[*pBuf];
//  633     retValue = osal_start_timerEx(MT_TaskID, eventId, BUILD_UINT16(pBuf[1], pBuf[2]));
        ; Setup parameters for call to function osal_start_timerEx
        INC     DPTR
        MOVX    A,@DPTR
        MOV     R4,A
        MOV     DPL,R2
        MOV     DPH,R3
        LCALL   ?Subroutine7 & 0xFFFF
//  634   }
??CrossCallReturnLabel_8:
        LCALL   ?Subroutine9 & 0xFFFF
??CrossCallReturnLabel_11:
        LCALL   ??osal_start_timerEx?relay
        MOV     A,R1
        MOV     DPL,?XSP + 0
        MOV     DPH,?XSP + 1
        SJMP    ??MT_SysOsalStartTimer_1
//  635   else
//  636   {
//  637     retValue = ZInvalidParameter;
??MT_SysOsalStartTimer_0:
        MOV     DPL,?XSP + 0
        MOV     DPH,?XSP + 1
        MOV     A,#0x2
//  638   }
??MT_SysOsalStartTimer_1:
        LJMP    ?Subroutine0 & 0xFFFF
        CFI EndBlock cfiBlock58
//  639 
//  640   /* Build and send back the response */
//  641   MT_BuildAndSendZToolResponse(((uint8)MT_RPC_CMD_SRSP | (uint8)MT_RPC_SYS_SYS), cmdId, 1, &retValue);
//  642 }

        RSEG BANKED_CODE:CODE:NOROOT(0)
?Subroutine7:
        CFI Block cfiCond59 Using cfiCommon0
        CFI NoFunction
        CFI Conditional ??CrossCallReturnLabel_7
        CFI R6 load(1, XDATA, add(CFA_XSP16, literal(-9)))
        CFI VB load(1, XDATA, add(CFA_XSP16, literal(-8)))
        CFI V0 load(1, XDATA, add(CFA_XSP16, literal(-7)))
        CFI R7 load(1, XDATA, add(CFA_XSP16, literal(-6)))
        CFI ?RET_LOW load(1, XDATA, add(CFA_XSP16, literal(-5)))
        CFI ?RET_HIGH load(1, XDATA, add(CFA_XSP16, literal(-4)))
        CFI ?BRET_EXT load(1, XDATA, add(CFA_XSP16, literal(-3)))
        CFI DPL0 load(1, XDATA, add(CFA_XSP16, literal(-2)))
        CFI DPH0 load(1, XDATA, add(CFA_XSP16, literal(-1)))
        CFI CFA_SP SP+0
        CFI CFA_XSP16 add(XSP16, 10)
        CFI Block cfiCond60 Using cfiCommon0
        CFI (cfiCond60) NoFunction
        CFI (cfiCond60) Conditional ??CrossCallReturnLabel_8
        CFI (cfiCond60) R6 load(1, XDATA, add(CFA_XSP16, literal(-9)))
        CFI (cfiCond60) VB load(1, XDATA, add(CFA_XSP16, literal(-8)))
        CFI (cfiCond60) V0 load(1, XDATA, add(CFA_XSP16, literal(-7)))
        CFI (cfiCond60) R7 load(1, XDATA, add(CFA_XSP16, literal(-6)))
        CFI (cfiCond60) ?RET_LOW load(1, XDATA, add(CFA_XSP16, literal(-5)))
        CFI (cfiCond60) ?RET_HIGH load(1, XDATA, add(CFA_XSP16, literal(-4)))
        CFI (cfiCond60) ?BRET_EXT load(1, XDATA, add(CFA_XSP16, literal(-3)))
        CFI (cfiCond60) DPL0 load(1, XDATA, add(CFA_XSP16, literal(-2)))
        CFI (cfiCond60) DPH0 load(1, XDATA, add(CFA_XSP16, literal(-1)))
        CFI (cfiCond60) CFA_SP SP+0
        CFI (cfiCond60) CFA_XSP16 add(XSP16, 10)
        CFI Block cfiPicker61 Using cfiCommon1
        CFI (cfiPicker61) NoFunction
        CFI (cfiPicker61) Picker
        INC     DPTR
        INC     DPTR
        MOVX    A,@DPTR
        MOV     R1,A
        MOV     A,R4
        ADD     A,#0x0
        CLR     A
        ADDC    A,R1
        MOV     R5,A
        MOV     DPL,R2
        MOV     DPH,R3
        MOVX    A,@DPTR
        RET
        CFI EndBlock cfiCond59
        CFI EndBlock cfiCond60
        CFI EndBlock cfiPicker61
//  643 
//  644 /***************************************************************************************************
//  645  * @fn      MT_SysOsalStopTimer
//  646  *
//  647  * @brief
//  648  *
//  649  * @param   uint8 pData - pointer to the data
//  650  *
//  651  * @return  None
//  652  ***************************************************************************************************/

        RSEG BANKED_CODE:CODE:NOROOT(0)
//  653 void MT_SysOsalStopTimer(uint8 *pBuf)
MT_SysOsalStopTimer:
        CFI Block cfiBlock62 Using cfiCommon0
        CFI Function MT_SysOsalStopTimer
        CODE
//  654 {
        FUNCALL MT_SysOsalStopTimer, osal_stop_timerEx
        LOCFRAME ISTACK, 0, STACK
        LOCFRAME PSTACK, 0, STACK
        LOCFRAME XSTACK, 10, STACK
        LOCFRAME IOVERLAY, 0, STATIC
        LOCFRAME DOVERLAY, 0, STATIC
        ARGFRAME ISTACK, 0, STACK
        ARGFRAME PSTACK, 0, STACK
        ARGFRAME XSTACK, 10, STACK
        ARGFRAME IOVERLAY, 0, STATIC
        ARGFRAME DOVERLAY, 0, STATIC
        FUNCALL MT_SysOsalStopTimer, MT_BuildAndSendZToolResponse
        LOCFRAME ISTACK, 0, STACK
        LOCFRAME PSTACK, 0, STACK
        LOCFRAME XSTACK, 10, STACK
        LOCFRAME IOVERLAY, 0, STATIC
        LOCFRAME DOVERLAY, 0, STATIC
        ARGFRAME ISTACK, 0, STACK
        ARGFRAME PSTACK, 0, STACK
        ARGFRAME XSTACK, 10, STACK
        ARGFRAME IOVERLAY, 0, STATIC
        ARGFRAME DOVERLAY, 0, STATIC
        MOV     A,#-0x9
        LCALL   ?BANKED_ENTER_XDATA
        CFI DPH0 load(1, XDATA, add(CFA_XSP16, literal(-1)))
        CFI DPL0 load(1, XDATA, add(CFA_XSP16, literal(-2)))
        CFI ?BRET_EXT load(1, XDATA, add(CFA_XSP16, literal(-3)))
        CFI ?RET_HIGH load(1, XDATA, add(CFA_XSP16, literal(-4)))
        CFI ?RET_LOW load(1, XDATA, add(CFA_XSP16, literal(-5)))
        CFI R7 load(1, XDATA, add(CFA_XSP16, literal(-6)))
        CFI V0 load(1, XDATA, add(CFA_XSP16, literal(-7)))
        CFI VB load(1, XDATA, add(CFA_XSP16, literal(-8)))
        CFI R6 load(1, XDATA, add(CFA_XSP16, literal(-9)))
        CFI CFA_SP SP+0
        CFI CFA_XSP16 add(XSP16, 9)
        ; Saved register size: 9
        ; Auto size: 1
        MOV     A,#-0x1
        LCALL   ?ALLOC_XSTACK8
        CFI CFA_XSP16 add(XSP16, 10)
//  655   uint16 eventId;
//  656   uint8 retValue = ZFailure;
        LCALL   ?Subroutine5 & 0xFFFF
//  657   uint8 cmdId;
//  658 
//  659   /* parse header */
//  660   cmdId = pBuf[MT_RPC_POS_CMD1];
//  661   pBuf += MT_RPC_FRAME_HDR_SZ;
//  662 
//  663   if (*pBuf <= 3)
??CrossCallReturnLabel_3:
        JNC     ??MT_SysOsalStopTimer_0
//  664   {
//  665     eventId = (uint16) MT_SysOsalEventId[*pBuf];
//  666     retValue = osal_stop_timerEx(MT_TaskID, eventId);
        ; Setup parameters for call to function osal_stop_timerEx
        MOVX    A,@DPTR
        CLR     C
        LCALL   ?Subroutine9 & 0xFFFF
//  667   }
??CrossCallReturnLabel_12:
        LCALL   ??osal_stop_timerEx?relay
        MOV     A,R1
        MOV     DPL,?XSP + 0
        MOV     DPH,?XSP + 1
        SJMP    ??MT_SysOsalStopTimer_1
//  668   else
//  669   {
//  670     retValue = ZInvalidParameter;
??MT_SysOsalStopTimer_0:
        MOV     DPL,?XSP + 0
        MOV     DPH,?XSP + 1
        MOV     A,#0x2
//  671   }
??MT_SysOsalStopTimer_1:
        LJMP    ?Subroutine0 & 0xFFFF
        CFI EndBlock cfiBlock62
//  672 
//  673   /* Build and send back the response */
//  674   MT_BuildAndSendZToolResponse(((uint8)MT_RPC_CMD_SRSP | (uint8)MT_RPC_SYS_SYS), cmdId, 1, &retValue );
//  675 }

        RSEG BANKED_CODE:CODE:NOROOT(0)
?Subroutine9:
        CFI Block cfiCond63 Using cfiCommon0
        CFI NoFunction
        CFI Conditional ??CrossCallReturnLabel_11
        CFI R6 load(1, XDATA, add(CFA_XSP16, literal(-9)))
        CFI VB load(1, XDATA, add(CFA_XSP16, literal(-8)))
        CFI V0 load(1, XDATA, add(CFA_XSP16, literal(-7)))
        CFI R7 load(1, XDATA, add(CFA_XSP16, literal(-6)))
        CFI ?RET_LOW load(1, XDATA, add(CFA_XSP16, literal(-5)))
        CFI ?RET_HIGH load(1, XDATA, add(CFA_XSP16, literal(-4)))
        CFI ?BRET_EXT load(1, XDATA, add(CFA_XSP16, literal(-3)))
        CFI DPL0 load(1, XDATA, add(CFA_XSP16, literal(-2)))
        CFI DPH0 load(1, XDATA, add(CFA_XSP16, literal(-1)))
        CFI CFA_SP SP+0
        CFI CFA_XSP16 add(XSP16, 10)
        CFI Block cfiCond64 Using cfiCommon0
        CFI (cfiCond64) NoFunction
        CFI (cfiCond64) Conditional ??CrossCallReturnLabel_12
        CFI (cfiCond64) R6 load(1, XDATA, add(CFA_XSP16, literal(-9)))
        CFI (cfiCond64) VB load(1, XDATA, add(CFA_XSP16, literal(-8)))
        CFI (cfiCond64) V0 load(1, XDATA, add(CFA_XSP16, literal(-7)))
        CFI (cfiCond64) R7 load(1, XDATA, add(CFA_XSP16, literal(-6)))
        CFI (cfiCond64) ?RET_LOW load(1, XDATA, add(CFA_XSP16, literal(-5)))
        CFI (cfiCond64) ?RET_HIGH load(1, XDATA, add(CFA_XSP16, literal(-4)))
        CFI (cfiCond64) ?BRET_EXT load(1, XDATA, add(CFA_XSP16, literal(-3)))
        CFI (cfiCond64) DPL0 load(1, XDATA, add(CFA_XSP16, literal(-2)))
        CFI (cfiCond64) DPH0 load(1, XDATA, add(CFA_XSP16, literal(-1)))
        CFI (cfiCond64) CFA_SP SP+0
        CFI (cfiCond64) CFA_XSP16 add(XSP16, 10)
        CFI Block cfiPicker65 Using cfiCommon1
        CFI (cfiPicker65) NoFunction
        CFI (cfiPicker65) Picker
        RLC     A
        MOV     R0,A
        CLR     A
        RLC     A
        MOV     R1,A
        MOV     A,#MT_SysOsalEventId & 0xff
        ADD     A,R0
        MOV     DPL,A
        MOV     A,#(MT_SysOsalEventId >> 8) & 0xff
        ADDC    A,R1
        MOV     DPH,A
        MOVX    A,@DPTR
        MOV     R2,A
        INC     DPTR
        MOVX    A,@DPTR
        MOV     R3,A
        MOV     DPTR,#MT_TaskID
        MOVX    A,@DPTR
        MOV     R1,A
        RET
        CFI EndBlock cfiCond63
        CFI EndBlock cfiCond64
        CFI EndBlock cfiPicker65

        RSEG BANKED_CODE:CODE:NOROOT(0)
?Subroutine5:
        CFI Block cfiCond66 Using cfiCommon0
        CFI NoFunction
        CFI Conditional ??CrossCallReturnLabel_2
        CFI R6 load(1, XDATA, add(CFA_XSP16, literal(-9)))
        CFI VB load(1, XDATA, add(CFA_XSP16, literal(-8)))
        CFI V0 load(1, XDATA, add(CFA_XSP16, literal(-7)))
        CFI R7 load(1, XDATA, add(CFA_XSP16, literal(-6)))
        CFI ?RET_LOW load(1, XDATA, add(CFA_XSP16, literal(-5)))
        CFI ?RET_HIGH load(1, XDATA, add(CFA_XSP16, literal(-4)))
        CFI ?BRET_EXT load(1, XDATA, add(CFA_XSP16, literal(-3)))
        CFI DPL0 load(1, XDATA, add(CFA_XSP16, literal(-2)))
        CFI DPH0 load(1, XDATA, add(CFA_XSP16, literal(-1)))
        CFI CFA_SP SP+0
        CFI CFA_XSP16 add(XSP16, 10)
        CFI Block cfiCond67 Using cfiCommon0
        CFI (cfiCond67) NoFunction
        CFI (cfiCond67) Conditional ??CrossCallReturnLabel_3
        CFI (cfiCond67) R6 load(1, XDATA, add(CFA_XSP16, literal(-9)))
        CFI (cfiCond67) VB load(1, XDATA, add(CFA_XSP16, literal(-8)))
        CFI (cfiCond67) V0 load(1, XDATA, add(CFA_XSP16, literal(-7)))
        CFI (cfiCond67) R7 load(1, XDATA, add(CFA_XSP16, literal(-6)))
        CFI (cfiCond67) ?RET_LOW load(1, XDATA, add(CFA_XSP16, literal(-5)))
        CFI (cfiCond67) ?RET_HIGH load(1, XDATA, add(CFA_XSP16, literal(-4)))
        CFI (cfiCond67) ?BRET_EXT load(1, XDATA, add(CFA_XSP16, literal(-3)))
        CFI (cfiCond67) DPL0 load(1, XDATA, add(CFA_XSP16, literal(-2)))
        CFI (cfiCond67) DPH0 load(1, XDATA, add(CFA_XSP16, literal(-1)))
        CFI (cfiCond67) CFA_SP SP+0
        CFI (cfiCond67) CFA_XSP16 add(XSP16, 10)
        CFI Block cfiPicker68 Using cfiCommon1
        CFI (cfiPicker68) NoFunction
        CFI (cfiPicker68) Picker
        LCALL   ?Subroutine22 & 0xFFFF
??CrossCallReturnLabel_34:
        LCALL   ?Subroutine20 & 0xFFFF
??CrossCallReturnLabel_29:
        CLR     C
        SUBB    A,#0x4
        RET
        CFI EndBlock cfiCond66
        CFI EndBlock cfiCond67
        CFI EndBlock cfiPicker68

        RSEG BANKED_CODE:CODE:NOROOT(0)
?Subroutine22:
        CFI Block cfiCond69 Using cfiCommon0
        CFI NoFunction
        CFI Conditional ??CrossCallReturnLabel_33
        CFI R6 load(1, XDATA, add(CFA_XSP16, literal(-10)))
        CFI VB load(1, XDATA, add(CFA_XSP16, literal(-9)))
        CFI V0 load(1, XDATA, add(CFA_XSP16, literal(-8)))
        CFI V1 load(1, XDATA, add(CFA_XSP16, literal(-7)))
        CFI R7 load(1, XDATA, add(CFA_XSP16, literal(-6)))
        CFI ?RET_LOW load(1, XDATA, add(CFA_XSP16, literal(-5)))
        CFI ?RET_HIGH load(1, XDATA, add(CFA_XSP16, literal(-4)))
        CFI ?BRET_EXT load(1, XDATA, add(CFA_XSP16, literal(-3)))
        CFI DPL0 load(1, XDATA, add(CFA_XSP16, literal(-2)))
        CFI DPH0 load(1, XDATA, add(CFA_XSP16, literal(-1)))
        CFI CFA_SP SP+0
        CFI CFA_XSP16 add(XSP16, 11)
        CFI Block cfiCond70 Using cfiCommon0
        CFI (cfiCond70) NoFunction
        CFI (cfiCond70) Conditional ??CrossCallReturnLabel_34, ??CrossCallReturnLabel_2
        CFI (cfiCond70) R6 load(1, XDATA, add(CFA_XSP16, literal(-9)))
        CFI (cfiCond70) VB load(1, XDATA, add(CFA_XSP16, literal(-8)))
        CFI (cfiCond70) V0 load(1, XDATA, add(CFA_XSP16, literal(-7)))
        CFI (cfiCond70) R7 load(1, XDATA, add(CFA_XSP16, literal(-6)))
        CFI (cfiCond70) ?RET_LOW load(1, XDATA, add(CFA_XSP16, literal(-5)))
        CFI (cfiCond70) ?RET_HIGH load(1, XDATA, add(CFA_XSP16, literal(-4)))
        CFI (cfiCond70) ?BRET_EXT load(1, XDATA, add(CFA_XSP16, literal(-3)))
        CFI (cfiCond70) DPL0 load(1, XDATA, add(CFA_XSP16, literal(-2)))
        CFI (cfiCond70) DPH0 load(1, XDATA, add(CFA_XSP16, literal(-1)))
        CFI (cfiCond70) CFA_SP SP+0
        CFI (cfiCond70) CFA_XSP16 add(XSP16, 10)
        CFI Block cfiCond71 Using cfiCommon0
        CFI (cfiCond71) NoFunction
        CFI (cfiCond71) Conditional ??CrossCallReturnLabel_34, ??CrossCallReturnLabel_3
        CFI (cfiCond71) R6 load(1, XDATA, add(CFA_XSP16, literal(-9)))
        CFI (cfiCond71) VB load(1, XDATA, add(CFA_XSP16, literal(-8)))
        CFI (cfiCond71) V0 load(1, XDATA, add(CFA_XSP16, literal(-7)))
        CFI (cfiCond71) R7 load(1, XDATA, add(CFA_XSP16, literal(-6)))
        CFI (cfiCond71) ?RET_LOW load(1, XDATA, add(CFA_XSP16, literal(-5)))
        CFI (cfiCond71) ?RET_HIGH load(1, XDATA, add(CFA_XSP16, literal(-4)))
        CFI (cfiCond71) ?BRET_EXT load(1, XDATA, add(CFA_XSP16, literal(-3)))
        CFI (cfiCond71) DPL0 load(1, XDATA, add(CFA_XSP16, literal(-2)))
        CFI (cfiCond71) DPH0 load(1, XDATA, add(CFA_XSP16, literal(-1)))
        CFI (cfiCond71) CFA_SP SP+0
        CFI (cfiCond71) CFA_XSP16 add(XSP16, 10)
        CFI Block cfiPicker72 Using cfiCommon1
        CFI (cfiPicker72) NoFunction
        CFI (cfiPicker72) Picker
        MOV     DPL,?XSP + 0
        MOV     DPH,?XSP + 1
        MOV     A,#0x1
        MOVX    @DPTR,A
        MOV     DPL,R2
        MOV     DPH,R3
        INC     DPTR
        INC     DPTR
        MOVX    A,@DPTR
        MOV     R6,A
        RET
        CFI EndBlock cfiCond69
        CFI EndBlock cfiCond70
        CFI EndBlock cfiCond71
        CFI EndBlock cfiPicker72

        RSEG BANKED_CODE:CODE:NOROOT(0)
?Subroutine20:
        CFI Block cfiCond73 Using cfiCommon0
        CFI NoFunction
        CFI Conditional ??CrossCallReturnLabel_28, ??CrossCallReturnLabel_13
        CFI R6 load(1, XDATA, add(CFA_XSP16, literal(-16)))
        CFI VB load(1, XDATA, add(CFA_XSP16, literal(-15)))
        CFI V0 load(1, XDATA, add(CFA_XSP16, literal(-14)))
        CFI V1 load(1, XDATA, add(CFA_XSP16, literal(-13)))
        CFI V2 load(1, XDATA, add(CFA_XSP16, literal(-12)))
        CFI V3 load(1, XDATA, add(CFA_XSP16, literal(-11)))
        CFI V4 load(1, XDATA, add(CFA_XSP16, literal(-10)))
        CFI V5 load(1, XDATA, add(CFA_XSP16, literal(-9)))
        CFI V6 load(1, XDATA, add(CFA_XSP16, literal(-8)))
        CFI V7 load(1, XDATA, add(CFA_XSP16, literal(-7)))
        CFI R7 load(1, XDATA, add(CFA_XSP16, literal(-6)))
        CFI ?RET_LOW load(1, XDATA, add(CFA_XSP16, literal(-5)))
        CFI ?RET_HIGH load(1, XDATA, add(CFA_XSP16, literal(-4)))
        CFI ?BRET_EXT load(1, XDATA, add(CFA_XSP16, literal(-3)))
        CFI DPL0 load(1, XDATA, add(CFA_XSP16, literal(-2)))
        CFI DPH0 load(1, XDATA, add(CFA_XSP16, literal(-1)))
        CFI CFA_SP SP+0
        CFI CFA_XSP16 add(XSP16, 18)
        CFI Block cfiCond74 Using cfiCommon0
        CFI (cfiCond74) NoFunction
        CFI (cfiCond74) Conditional ??CrossCallReturnLabel_28, ??CrossCallReturnLabel_14
        CFI (cfiCond74) R6 load(1, XDATA, add(CFA_XSP16, literal(-10)))
        CFI (cfiCond74) VB load(1, XDATA, add(CFA_XSP16, literal(-9)))
        CFI (cfiCond74) V0 load(1, XDATA, add(CFA_XSP16, literal(-8)))
        CFI (cfiCond74) V1 load(1, XDATA, add(CFA_XSP16, literal(-7)))
        CFI (cfiCond74) R7 load(1, XDATA, add(CFA_XSP16, literal(-6)))
        CFI (cfiCond74) ?RET_LOW load(1, XDATA, add(CFA_XSP16, literal(-5)))
        CFI (cfiCond74) ?RET_HIGH load(1, XDATA, add(CFA_XSP16, literal(-4)))
        CFI (cfiCond74) ?BRET_EXT load(1, XDATA, add(CFA_XSP16, literal(-3)))
        CFI (cfiCond74) DPL0 load(1, XDATA, add(CFA_XSP16, literal(-2)))
        CFI (cfiCond74) DPH0 load(1, XDATA, add(CFA_XSP16, literal(-1)))
        CFI (cfiCond74) CFA_SP SP+0
        CFI (cfiCond74) CFA_XSP16 add(XSP16, 12)
        CFI Block cfiCond75 Using cfiCommon0
        CFI (cfiCond75) NoFunction
        CFI (cfiCond75) Conditional ??CrossCallReturnLabel_29, ??CrossCallReturnLabel_2
        CFI (cfiCond75) R6 load(1, XDATA, add(CFA_XSP16, literal(-9)))
        CFI (cfiCond75) VB load(1, XDATA, add(CFA_XSP16, literal(-8)))
        CFI (cfiCond75) V0 load(1, XDATA, add(CFA_XSP16, literal(-7)))
        CFI (cfiCond75) R7 load(1, XDATA, add(CFA_XSP16, literal(-6)))
        CFI (cfiCond75) ?RET_LOW load(1, XDATA, add(CFA_XSP16, literal(-5)))
        CFI (cfiCond75) ?RET_HIGH load(1, XDATA, add(CFA_XSP16, literal(-4)))
        CFI (cfiCond75) ?BRET_EXT load(1, XDATA, add(CFA_XSP16, literal(-3)))
        CFI (cfiCond75) DPL0 load(1, XDATA, add(CFA_XSP16, literal(-2)))
        CFI (cfiCond75) DPH0 load(1, XDATA, add(CFA_XSP16, literal(-1)))
        CFI (cfiCond75) CFA_SP SP+0
        CFI (cfiCond75) CFA_XSP16 add(XSP16, 10)
        CFI Block cfiCond76 Using cfiCommon0
        CFI (cfiCond76) NoFunction
        CFI (cfiCond76) Conditional ??CrossCallReturnLabel_29, ??CrossCallReturnLabel_3
        CFI (cfiCond76) R6 load(1, XDATA, add(CFA_XSP16, literal(-9)))
        CFI (cfiCond76) VB load(1, XDATA, add(CFA_XSP16, literal(-8)))
        CFI (cfiCond76) V0 load(1, XDATA, add(CFA_XSP16, literal(-7)))
        CFI (cfiCond76) R7 load(1, XDATA, add(CFA_XSP16, literal(-6)))
        CFI (cfiCond76) ?RET_LOW load(1, XDATA, add(CFA_XSP16, literal(-5)))
        CFI (cfiCond76) ?RET_HIGH load(1, XDATA, add(CFA_XSP16, literal(-4)))
        CFI (cfiCond76) ?BRET_EXT load(1, XDATA, add(CFA_XSP16, literal(-3)))
        CFI (cfiCond76) DPL0 load(1, XDATA, add(CFA_XSP16, literal(-2)))
        CFI (cfiCond76) DPH0 load(1, XDATA, add(CFA_XSP16, literal(-1)))
        CFI (cfiCond76) CFA_SP SP+0
        CFI (cfiCond76) CFA_XSP16 add(XSP16, 10)
        CFI Block cfiPicker77 Using cfiCommon1
        CFI (cfiPicker77) NoFunction
        CFI (cfiPicker77) Picker
        LCALL   ?Subroutine24 & 0xFFFF
??CrossCallReturnLabel_37:
        MOVX    A,@DPTR
        RET
        CFI EndBlock cfiCond73
        CFI EndBlock cfiCond74
        CFI EndBlock cfiCond75
        CFI EndBlock cfiCond76
        CFI EndBlock cfiPicker77
//  676 
//  677 /***************************************************************************************************
//  678  * @fn      MT_SysRandom
//  679  *
//  680  * @brief
//  681  *
//  682  * @param   uint8 pData - pointer to the data
//  683  *
//  684  * @return  None
//  685  ***************************************************************************************************/

        RSEG BANKED_CODE:CODE:NOROOT(0)
//  686 void MT_SysRandom()
MT_SysRandom:
        CFI Block cfiBlock78 Using cfiCommon0
        CFI Function MT_SysRandom
        CODE
//  687 {
        FUNCALL MT_SysRandom, Onboard_rand
        LOCFRAME ISTACK, 0, STACK
        LOCFRAME PSTACK, 0, STACK
        LOCFRAME XSTACK, 12, STACK
        LOCFRAME IOVERLAY, 0, STATIC
        LOCFRAME DOVERLAY, 0, STATIC
        ARGFRAME ISTACK, 0, STACK
        ARGFRAME PSTACK, 0, STACK
        ARGFRAME XSTACK, 12, STACK
        ARGFRAME IOVERLAY, 0, STATIC
        ARGFRAME DOVERLAY, 0, STATIC
        FUNCALL MT_SysRandom, MT_BuildAndSendZToolResponse
        LOCFRAME ISTACK, 0, STACK
        LOCFRAME PSTACK, 0, STACK
        LOCFRAME XSTACK, 12, STACK
        LOCFRAME IOVERLAY, 0, STATIC
        LOCFRAME DOVERLAY, 0, STATIC
        ARGFRAME ISTACK, 0, STACK
        ARGFRAME PSTACK, 0, STACK
        ARGFRAME XSTACK, 12, STACK
        ARGFRAME IOVERLAY, 0, STATIC
        ARGFRAME DOVERLAY, 0, STATIC
        MOV     A,#-0xa
        LCALL   ?BANKED_ENTER_XDATA
        CFI DPH0 load(1, XDATA, add(CFA_XSP16, literal(-1)))
        CFI DPL0 load(1, XDATA, add(CFA_XSP16, literal(-2)))
        CFI ?BRET_EXT load(1, XDATA, add(CFA_XSP16, literal(-3)))
        CFI ?RET_HIGH load(1, XDATA, add(CFA_XSP16, literal(-4)))
        CFI ?RET_LOW load(1, XDATA, add(CFA_XSP16, literal(-5)))
        CFI R7 load(1, XDATA, add(CFA_XSP16, literal(-6)))
        CFI V1 load(1, XDATA, add(CFA_XSP16, literal(-7)))
        CFI V0 load(1, XDATA, add(CFA_XSP16, literal(-8)))
        CFI VB load(1, XDATA, add(CFA_XSP16, literal(-9)))
        CFI R6 load(1, XDATA, add(CFA_XSP16, literal(-10)))
        CFI CFA_SP SP+0
        CFI CFA_XSP16 add(XSP16, 10)
        ; Saved register size: 10
        ; Auto size: 2
        MOV     A,#-0x2
        LCALL   ?ALLOC_XSTACK8
        CFI CFA_XSP16 add(XSP16, 12)
//  688   uint16 randValue = Onboard_rand();
        ; Setup parameters for call to function Onboard_rand
        LCALL   ??Onboard_rand?relay
//  689   uint8 retArray[2];
//  690 
//  691   retArray[0] = LO_UINT16(randValue);
        MOV     A,R2
        MOV     DPL,?XSP + 0
        MOV     DPH,?XSP + 1
        MOVX    @DPTR,A
//  692   retArray[1] = HI_UINT16(randValue);
        MOV     A,#0x1
        LCALL   ?XSTACK_DISP0_8
        LCALL   ?Subroutine11 & 0xFFFF
//  693 
//  694   /* Build and send back the response */
//  695   MT_BuildAndSendZToolResponse(((uint8)MT_RPC_CMD_SRSP | (uint8)MT_RPC_SYS_SYS), MT_SYS_RANDOM, 2, retArray );
??CrossCallReturnLabel_49:
        MOV     R2,#0xc
        SJMP    ?Subroutine2
        CFI EndBlock cfiBlock78
//  696 }
//  697 
//  698 /***************************************************************************************************
//  699  * @fn      MT_SysAdcRead
//  700  *
//  701  * @brief   Reading ADC value, temperature sensor and voltage
//  702  *
//  703  * @param   uint8 pData - pointer to the data
//  704  *
//  705  * @return  None
//  706  ***************************************************************************************************/

        RSEG BANKED_CODE:CODE:NOROOT(0)
//  707 void MT_SysAdcRead(uint8 *pBuf)
MT_SysAdcRead:
        CFI Block cfiBlock79 Using cfiCommon0
        CFI Function MT_SysAdcRead
        CODE
//  708 {
        FUNCALL MT_SysAdcRead, HalAdcRead
        LOCFRAME ISTACK, 0, STACK
        LOCFRAME PSTACK, 0, STACK
        LOCFRAME XSTACK, 12, STACK
        LOCFRAME IOVERLAY, 0, STATIC
        LOCFRAME DOVERLAY, 0, STATIC
        ARGFRAME ISTACK, 0, STACK
        ARGFRAME PSTACK, 0, STACK
        ARGFRAME XSTACK, 12, STACK
        ARGFRAME IOVERLAY, 0, STATIC
        ARGFRAME DOVERLAY, 0, STATIC
        FUNCALL MT_SysAdcRead, HalAdcRead
        LOCFRAME ISTACK, 0, STACK
        LOCFRAME PSTACK, 0, STACK
        LOCFRAME XSTACK, 12, STACK
        LOCFRAME IOVERLAY, 0, STATIC
        LOCFRAME DOVERLAY, 0, STATIC
        ARGFRAME ISTACK, 0, STACK
        ARGFRAME PSTACK, 0, STACK
        ARGFRAME XSTACK, 12, STACK
        ARGFRAME IOVERLAY, 0, STATIC
        ARGFRAME DOVERLAY, 0, STATIC
        FUNCALL MT_SysAdcRead, HalAdcRead
        LOCFRAME ISTACK, 0, STACK
        LOCFRAME PSTACK, 0, STACK
        LOCFRAME XSTACK, 12, STACK
        LOCFRAME IOVERLAY, 0, STATIC
        LOCFRAME DOVERLAY, 0, STATIC
        ARGFRAME ISTACK, 0, STACK
        ARGFRAME PSTACK, 0, STACK
        ARGFRAME XSTACK, 12, STACK
        ARGFRAME IOVERLAY, 0, STATIC
        ARGFRAME DOVERLAY, 0, STATIC
        FUNCALL MT_SysAdcRead, MT_BuildAndSendZToolResponse
        LOCFRAME ISTACK, 0, STACK
        LOCFRAME PSTACK, 0, STACK
        LOCFRAME XSTACK, 12, STACK
        LOCFRAME IOVERLAY, 0, STATIC
        LOCFRAME DOVERLAY, 0, STATIC
        ARGFRAME ISTACK, 0, STACK
        ARGFRAME PSTACK, 0, STACK
        ARGFRAME XSTACK, 12, STACK
        ARGFRAME IOVERLAY, 0, STATIC
        ARGFRAME DOVERLAY, 0, STATIC
        MOV     A,#-0xa
        LCALL   ?BANKED_ENTER_XDATA
        CFI DPH0 load(1, XDATA, add(CFA_XSP16, literal(-1)))
        CFI DPL0 load(1, XDATA, add(CFA_XSP16, literal(-2)))
        CFI ?BRET_EXT load(1, XDATA, add(CFA_XSP16, literal(-3)))
        CFI ?RET_HIGH load(1, XDATA, add(CFA_XSP16, literal(-4)))
        CFI ?RET_LOW load(1, XDATA, add(CFA_XSP16, literal(-5)))
        CFI R7 load(1, XDATA, add(CFA_XSP16, literal(-6)))
        CFI V1 load(1, XDATA, add(CFA_XSP16, literal(-7)))
        CFI V0 load(1, XDATA, add(CFA_XSP16, literal(-8)))
        CFI VB load(1, XDATA, add(CFA_XSP16, literal(-9)))
        CFI R6 load(1, XDATA, add(CFA_XSP16, literal(-10)))
        CFI CFA_SP SP+0
        CFI CFA_XSP16 add(XSP16, 10)
        ; Saved register size: 10
        ; Auto size: 2
        MOV     A,#-0x2
        LCALL   ?ALLOC_XSTACK8
        CFI CFA_XSP16 add(XSP16, 12)
//  709 #ifndef HAL_BOARD_LM3S
//  710   uint8 channel, resolution;
//  711   uint16 tempValue;
//  712   uint8 retArray[2];
//  713   uint8 cmdId;
//  714 
//  715   /* parse header */
//  716   cmdId = pBuf[MT_RPC_POS_CMD1];
        MOV     DPL,R2
        MOV     DPH,R3
        INC     DPTR
        INC     DPTR
        MOVX    A,@DPTR
        MOV     R6,A
//  717   pBuf += MT_RPC_FRAME_HDR_SZ;
        LCALL   ?Subroutine13 & 0xFFFF
//  718 
//  719   /* Channel */
//  720   channel = *pBuf++;
??CrossCallReturnLabel_16:
        MOVX    A,@DPTR
        MOV     R1,A
        INC     DPTR
        MOV     R2,DPL
        MOV     R3,DPH
//  721 
//  722   /* Resolution */
//  723   resolution = *pBuf++;
//  724 
//  725   /* Voltage reading */
//  726   switch (channel)
        LCALL   ?UC_SWITCH_SPARSE
`?<Jumptable for MT_SysAdcRead>_0`:
        DATA
        DATA8
        DATA
        DATA8
        DATA
        DATA8
        DB        1
        DATA
        DATA8
        DATA
        DATA8
        DATA
        DATA8
        DB        0
        DATA
        DATA8
        DATA
        DATA8
        DB        7
        DATA
        DATA16
        DATA
        DATA16
        DATA
        DATA16
        DW        ??MT_SysAdcRead_0
        DATA
        DATA8
        DATA
        DATA8
        DATA
        DATA8
        DB        2
        DATA
        DATA8
        DATA
        DATA8
        DATA
        DATA8
        DB        14
        DATA
        DATA16
        DATA
        DATA16
        DATA
        DATA16
        DW        ??MT_SysAdcRead_1
        DATA
        DATA8
        DATA
        DATA8
        DATA
        DATA8
        DB        15
        DATA
        DATA16
        DATA
        DATA16
        DATA
        DATA16
        DW        ??MT_SysAdcRead_2
        DATA
        DATA16
        DATA
        DATA16
        DW        ??MT_SysAdcRead_3
        CODE
//  727   {
//  728     /* Analog input channel */
//  729     case HAL_ADC_CHANNEL_0:
//  730     case HAL_ADC_CHANNEL_1:
//  731     case HAL_ADC_CHANNEL_2:
//  732     case HAL_ADC_CHANNEL_3:
//  733     case HAL_ADC_CHANNEL_4:
//  734     case HAL_ADC_CHANNEL_5:
//  735     case HAL_ADC_CHANNEL_6:
//  736     case HAL_ADC_CHANNEL_7:
//  737       tempValue = HalAdcRead(channel, resolution);
??MT_SysAdcRead_0:
        ; Setup parameters for call to function HalAdcRead
        MOV     DPL,R2
        MOV     DPH,R3
        MOVX    A,@DPTR
        MOV     R2,A
??MT_SysAdcRead_4:
        LCALL   ?Subroutine19 & 0xFFFF
//  738       break;
??CrossCallReturnLabel_26:
        SJMP    ??MT_SysAdcRead_5
//  739 
//  740     /* Temperature sensor */
//  741     case(HAL_ADC_CHANNEL_TEMP):
//  742       tempValue = HalAdcRead(HAL_ADC_CHANNEL_TEMP, HAL_ADC_RESOLUTION_14);
??MT_SysAdcRead_1:
        ; Setup parameters for call to function HalAdcRead
        MOV     R2,#0x4
        MOV     R1,#0xe
        SJMP    ??MT_SysAdcRead_4
//  743       break;
//  744 
//  745     /* Voltage reading */
//  746     case(HAL_ADC_CHANNEL_VDD):
//  747       tempValue = HalAdcRead(HAL_ADC_CHANNEL_VDD, HAL_ADC_RESOLUTION_14);
??MT_SysAdcRead_2:
        ; Setup parameters for call to function HalAdcRead
        MOV     R2,#0x4
        MOV     R1,#0xf
        LCALL   ?Subroutine19 & 0xFFFF
//  748       break;
??CrossCallReturnLabel_27:
        SJMP    ??MT_SysAdcRead_5
//  749 
//  750     /* Undefined channels */
//  751     default:
//  752       tempValue = 0x00;
??MT_SysAdcRead_3:
        MOV     R0,#0x0
        MOV     R1,#0x0
//  753       break;
//  754   }
//  755 
//  756   retArray[0] = LO_UINT16(tempValue);
??MT_SysAdcRead_5:
        MOV     A,R0
        MOV     DPL,?XSP + 0
        MOV     DPH,?XSP + 1
        MOVX    @DPTR,A
//  757   retArray[1] = HI_UINT16(tempValue);
        MOV     A,#0x1
        LCALL   ?XSTACK_DISP0_8
        MOV     A,R1
        LCALL   ??Subroutine31_0 & 0xFFFF
//  758 
//  759   /* Build and send back the response */
//  760   MT_BuildAndSendZToolResponse(((uint8)MT_RPC_CMD_SRSP | (uint8)MT_RPC_SYS_SYS), cmdId, 2, retArray);
??CrossCallReturnLabel_51:
        MOV     A,R6
        MOV     R2,A
        CFI EndBlock cfiBlock79
        REQUIRE ?Subroutine2
        ; // Fall through to label ?Subroutine2
//  761 #endif /* #ifndef HAL_BOARD_LM3S */
//  762 }

        RSEG BANKED_CODE:CODE:NOROOT(0)
?Subroutine2:
        CFI Block cfiBlock80 Using cfiCommon0
        CFI NoFunction
        CFI CFA_SP SP+0
        CFI CFA_XSP16 add(XSP16, 12)
        CFI VB load(1, XDATA, add(CFA_XSP16, literal(-9)))
        CFI DPL0 load(1, XDATA, add(CFA_XSP16, literal(-2)))
        CFI DPH0 load(1, XDATA, add(CFA_XSP16, literal(-1)))
        CFI R6 load(1, XDATA, add(CFA_XSP16, literal(-10)))
        CFI R7 load(1, XDATA, add(CFA_XSP16, literal(-6)))
        CFI V0 load(1, XDATA, add(CFA_XSP16, literal(-8)))
        CFI V1 load(1, XDATA, add(CFA_XSP16, literal(-7)))
        CFI ?BRET_EXT load(1, XDATA, add(CFA_XSP16, literal(-3)))
        CFI ?RET_HIGH load(1, XDATA, add(CFA_XSP16, literal(-4)))
        CFI ?RET_LOW load(1, XDATA, add(CFA_XSP16, literal(-5)))
        MOV     R1,#0x61
        LCALL   ??MT_BuildAndSendZToolResponse?relay
        MOV     A,#0x2
        CFI EndBlock cfiBlock80
        REQUIRE ??Subroutine32_0
        ; // Fall through to label ??Subroutine32_0

        RSEG BANKED_CODE:CODE:NOROOT(0)
??Subroutine32_0:
        CFI Block cfiBlock81 Using cfiCommon0
        CFI NoFunction
        CFI CFA_SP SP+0
        CFI CFA_XSP16 add(XSP16, 11)
        CFI VB load(1, XDATA, add(CFA_XSP16, literal(-9)))
        CFI DPL0 load(1, XDATA, add(CFA_XSP16, literal(-2)))
        CFI DPH0 load(1, XDATA, add(CFA_XSP16, literal(-1)))
        CFI R6 load(1, XDATA, add(CFA_XSP16, literal(-10)))
        CFI R7 load(1, XDATA, add(CFA_XSP16, literal(-6)))
        CFI V0 load(1, XDATA, add(CFA_XSP16, literal(-8)))
        CFI V1 load(1, XDATA, add(CFA_XSP16, literal(-7)))
        CFI ?BRET_EXT load(1, XDATA, add(CFA_XSP16, literal(-3)))
        CFI ?RET_HIGH load(1, XDATA, add(CFA_XSP16, literal(-4)))
        CFI ?RET_LOW load(1, XDATA, add(CFA_XSP16, literal(-5)))
        CFI Invalid
        LCALL   ?DEALLOC_XSTACK8
        CFI CFA_XSP16 add(XSP16, 10)
        CFI Valid
        MOV     R7,#0x2
        LJMP    ?BANKED_LEAVE_XDATA
        CFI EndBlock cfiBlock81

        RSEG BANKED_CODE:CODE:NOROOT(0)
?Subroutine19:
        CFI Block cfiCond82 Using cfiCommon0
        CFI NoFunction
        CFI Conditional ??CrossCallReturnLabel_26
        CFI R6 load(1, XDATA, add(CFA_XSP16, literal(-10)))
        CFI VB load(1, XDATA, add(CFA_XSP16, literal(-9)))
        CFI V0 load(1, XDATA, add(CFA_XSP16, literal(-8)))
        CFI V1 load(1, XDATA, add(CFA_XSP16, literal(-7)))
        CFI R7 load(1, XDATA, add(CFA_XSP16, literal(-6)))
        CFI ?RET_LOW load(1, XDATA, add(CFA_XSP16, literal(-5)))
        CFI ?RET_HIGH load(1, XDATA, add(CFA_XSP16, literal(-4)))
        CFI ?BRET_EXT load(1, XDATA, add(CFA_XSP16, literal(-3)))
        CFI DPL0 load(1, XDATA, add(CFA_XSP16, literal(-2)))
        CFI DPH0 load(1, XDATA, add(CFA_XSP16, literal(-1)))
        CFI CFA_SP SP+0
        CFI CFA_XSP16 add(XSP16, 12)
        CFI Block cfiCond83 Using cfiCommon0
        CFI (cfiCond83) NoFunction
        CFI (cfiCond83) Conditional ??CrossCallReturnLabel_27
        CFI (cfiCond83) R6 load(1, XDATA, add(CFA_XSP16, literal(-10)))
        CFI (cfiCond83) VB load(1, XDATA, add(CFA_XSP16, literal(-9)))
        CFI (cfiCond83) V0 load(1, XDATA, add(CFA_XSP16, literal(-8)))
        CFI (cfiCond83) V1 load(1, XDATA, add(CFA_XSP16, literal(-7)))
        CFI (cfiCond83) R7 load(1, XDATA, add(CFA_XSP16, literal(-6)))
        CFI (cfiCond83) ?RET_LOW load(1, XDATA, add(CFA_XSP16, literal(-5)))
        CFI (cfiCond83) ?RET_HIGH load(1, XDATA, add(CFA_XSP16, literal(-4)))
        CFI (cfiCond83) ?BRET_EXT load(1, XDATA, add(CFA_XSP16, literal(-3)))
        CFI (cfiCond83) DPL0 load(1, XDATA, add(CFA_XSP16, literal(-2)))
        CFI (cfiCond83) DPH0 load(1, XDATA, add(CFA_XSP16, literal(-1)))
        CFI (cfiCond83) CFA_SP SP+0
        CFI (cfiCond83) CFA_XSP16 add(XSP16, 12)
        CFI Block cfiPicker84 Using cfiCommon1
        CFI (cfiPicker84) NoFunction
        CFI (cfiPicker84) Picker
        LCALL   ??HalAdcRead?relay
        MOV     ?V0 + 0,R2
        MOV     ?V0 + 1,R3
        MOV     R0,?V0 + 0
        MOV     R1,?V0 + 1
        RET
        CFI EndBlock cfiCond82
        CFI EndBlock cfiCond83
        CFI EndBlock cfiPicker84

        RSEG BANKED_CODE:CODE:NOROOT(0)
?Subroutine13:
        CFI Block cfiCond85 Using cfiCommon0
        CFI NoFunction
        CFI Conditional ??CrossCallReturnLabel_15
        CFI R6 load(1, XDATA, add(CFA_XSP16, literal(-9)))
        CFI VB load(1, XDATA, add(CFA_XSP16, literal(-8)))
        CFI V0 load(1, XDATA, add(CFA_XSP16, literal(-7)))
        CFI R7 load(1, XDATA, add(CFA_XSP16, literal(-6)))
        CFI ?RET_LOW load(1, XDATA, add(CFA_XSP16, literal(-5)))
        CFI ?RET_HIGH load(1, XDATA, add(CFA_XSP16, literal(-4)))
        CFI ?BRET_EXT load(1, XDATA, add(CFA_XSP16, literal(-3)))
        CFI DPL0 load(1, XDATA, add(CFA_XSP16, literal(-2)))
        CFI DPH0 load(1, XDATA, add(CFA_XSP16, literal(-1)))
        CFI CFA_SP SP+0
        CFI CFA_XSP16 add(XSP16, 10)
        CFI Block cfiCond86 Using cfiCommon0
        CFI (cfiCond86) NoFunction
        CFI (cfiCond86) Conditional ??CrossCallReturnLabel_16
        CFI (cfiCond86) R6 load(1, XDATA, add(CFA_XSP16, literal(-10)))
        CFI (cfiCond86) VB load(1, XDATA, add(CFA_XSP16, literal(-9)))
        CFI (cfiCond86) V0 load(1, XDATA, add(CFA_XSP16, literal(-8)))
        CFI (cfiCond86) V1 load(1, XDATA, add(CFA_XSP16, literal(-7)))
        CFI (cfiCond86) R7 load(1, XDATA, add(CFA_XSP16, literal(-6)))
        CFI (cfiCond86) ?RET_LOW load(1, XDATA, add(CFA_XSP16, literal(-5)))
        CFI (cfiCond86) ?RET_HIGH load(1, XDATA, add(CFA_XSP16, literal(-4)))
        CFI (cfiCond86) ?BRET_EXT load(1, XDATA, add(CFA_XSP16, literal(-3)))
        CFI (cfiCond86) DPL0 load(1, XDATA, add(CFA_XSP16, literal(-2)))
        CFI (cfiCond86) DPH0 load(1, XDATA, add(CFA_XSP16, literal(-1)))
        CFI (cfiCond86) CFA_SP SP+0
        CFI (cfiCond86) CFA_XSP16 add(XSP16, 12)
        CFI Block cfiPicker87 Using cfiCommon1
        CFI (cfiPicker87) NoFunction
        CFI (cfiPicker87) Picker
        LCALL   ?Subroutine24 & 0xFFFF
??CrossCallReturnLabel_38:
        RET
        CFI EndBlock cfiCond85
        CFI EndBlock cfiCond86
        CFI EndBlock cfiPicker87

        RSEG BANKED_CODE:CODE:NOROOT(0)
?Subroutine24:
        CFI Block cfiCond88 Using cfiCommon0
        CFI NoFunction
        CFI Conditional ??CrossCallReturnLabel_37, ??CrossCallReturnLabel_28, ??CrossCallReturnLabel_13
        CFI R6 load(1, XDATA, add(CFA_XSP16, literal(-16)))
        CFI VB load(1, XDATA, add(CFA_XSP16, literal(-15)))
        CFI V0 load(1, XDATA, add(CFA_XSP16, literal(-14)))
        CFI V1 load(1, XDATA, add(CFA_XSP16, literal(-13)))
        CFI V2 load(1, XDATA, add(CFA_XSP16, literal(-12)))
        CFI V3 load(1, XDATA, add(CFA_XSP16, literal(-11)))
        CFI V4 load(1, XDATA, add(CFA_XSP16, literal(-10)))
        CFI V5 load(1, XDATA, add(CFA_XSP16, literal(-9)))
        CFI V6 load(1, XDATA, add(CFA_XSP16, literal(-8)))
        CFI V7 load(1, XDATA, add(CFA_XSP16, literal(-7)))
        CFI R7 load(1, XDATA, add(CFA_XSP16, literal(-6)))
        CFI ?RET_LOW load(1, XDATA, add(CFA_XSP16, literal(-5)))
        CFI ?RET_HIGH load(1, XDATA, add(CFA_XSP16, literal(-4)))
        CFI ?BRET_EXT load(1, XDATA, add(CFA_XSP16, literal(-3)))
        CFI DPL0 load(1, XDATA, add(CFA_XSP16, literal(-2)))
        CFI DPH0 load(1, XDATA, add(CFA_XSP16, literal(-1)))
        CFI CFA_SP SP+0
        CFI CFA_XSP16 add(XSP16, 18)
        CFI Block cfiCond89 Using cfiCommon0
        CFI (cfiCond89) NoFunction
        CFI (cfiCond89) Conditional ??CrossCallReturnLabel_37, ??CrossCallReturnLabel_28, ??CrossCallReturnLabel_14
        CFI (cfiCond89) R6 load(1, XDATA, add(CFA_XSP16, literal(-10)))
        CFI (cfiCond89) VB load(1, XDATA, add(CFA_XSP16, literal(-9)))
        CFI (cfiCond89) V0 load(1, XDATA, add(CFA_XSP16, literal(-8)))
        CFI (cfiCond89) V1 load(1, XDATA, add(CFA_XSP16, literal(-7)))
        CFI (cfiCond89) R7 load(1, XDATA, add(CFA_XSP16, literal(-6)))
        CFI (cfiCond89) ?RET_LOW load(1, XDATA, add(CFA_XSP16, literal(-5)))
        CFI (cfiCond89) ?RET_HIGH load(1, XDATA, add(CFA_XSP16, literal(-4)))
        CFI (cfiCond89) ?BRET_EXT load(1, XDATA, add(CFA_XSP16, literal(-3)))
        CFI (cfiCond89) DPL0 load(1, XDATA, add(CFA_XSP16, literal(-2)))
        CFI (cfiCond89) DPH0 load(1, XDATA, add(CFA_XSP16, literal(-1)))
        CFI (cfiCond89) CFA_SP SP+0
        CFI (cfiCond89) CFA_XSP16 add(XSP16, 12)
        CFI Block cfiCond90 Using cfiCommon0
        CFI (cfiCond90) NoFunction
        CFI (cfiCond90) Conditional ??CrossCallReturnLabel_37, ??CrossCallReturnLabel_29, ??CrossCallReturnLabel_2
        CFI (cfiCond90) R6 load(1, XDATA, add(CFA_XSP16, literal(-9)))
        CFI (cfiCond90) VB load(1, XDATA, add(CFA_XSP16, literal(-8)))
        CFI (cfiCond90) V0 load(1, XDATA, add(CFA_XSP16, literal(-7)))
        CFI (cfiCond90) R7 load(1, XDATA, add(CFA_XSP16, literal(-6)))
        CFI (cfiCond90) ?RET_LOW load(1, XDATA, add(CFA_XSP16, literal(-5)))
        CFI (cfiCond90) ?RET_HIGH load(1, XDATA, add(CFA_XSP16, literal(-4)))
        CFI (cfiCond90) ?BRET_EXT load(1, XDATA, add(CFA_XSP16, literal(-3)))
        CFI (cfiCond90) DPL0 load(1, XDATA, add(CFA_XSP16, literal(-2)))
        CFI (cfiCond90) DPH0 load(1, XDATA, add(CFA_XSP16, literal(-1)))
        CFI (cfiCond90) CFA_SP SP+0
        CFI (cfiCond90) CFA_XSP16 add(XSP16, 10)
        CFI Block cfiCond91 Using cfiCommon0
        CFI (cfiCond91) NoFunction
        CFI (cfiCond91) Conditional ??CrossCallReturnLabel_37, ??CrossCallReturnLabel_29, ??CrossCallReturnLabel_3
        CFI (cfiCond91) R6 load(1, XDATA, add(CFA_XSP16, literal(-9)))
        CFI (cfiCond91) VB load(1, XDATA, add(CFA_XSP16, literal(-8)))
        CFI (cfiCond91) V0 load(1, XDATA, add(CFA_XSP16, literal(-7)))
        CFI (cfiCond91) R7 load(1, XDATA, add(CFA_XSP16, literal(-6)))
        CFI (cfiCond91) ?RET_LOW load(1, XDATA, add(CFA_XSP16, literal(-5)))
        CFI (cfiCond91) ?RET_HIGH load(1, XDATA, add(CFA_XSP16, literal(-4)))
        CFI (cfiCond91) ?BRET_EXT load(1, XDATA, add(CFA_XSP16, literal(-3)))
        CFI (cfiCond91) DPL0 load(1, XDATA, add(CFA_XSP16, literal(-2)))
        CFI (cfiCond91) DPH0 load(1, XDATA, add(CFA_XSP16, literal(-1)))
        CFI (cfiCond91) CFA_SP SP+0
        CFI (cfiCond91) CFA_XSP16 add(XSP16, 10)
        CFI Block cfiCond92 Using cfiCommon0
        CFI (cfiCond92) NoFunction
        CFI (cfiCond92) Conditional ??CrossCallReturnLabel_38, ??CrossCallReturnLabel_15
        CFI (cfiCond92) R6 load(1, XDATA, add(CFA_XSP16, literal(-9)))
        CFI (cfiCond92) VB load(1, XDATA, add(CFA_XSP16, literal(-8)))
        CFI (cfiCond92) V0 load(1, XDATA, add(CFA_XSP16, literal(-7)))
        CFI (cfiCond92) R7 load(1, XDATA, add(CFA_XSP16, literal(-6)))
        CFI (cfiCond92) ?RET_LOW load(1, XDATA, add(CFA_XSP16, literal(-5)))
        CFI (cfiCond92) ?RET_HIGH load(1, XDATA, add(CFA_XSP16, literal(-4)))
        CFI (cfiCond92) ?BRET_EXT load(1, XDATA, add(CFA_XSP16, literal(-3)))
        CFI (cfiCond92) DPL0 load(1, XDATA, add(CFA_XSP16, literal(-2)))
        CFI (cfiCond92) DPH0 load(1, XDATA, add(CFA_XSP16, literal(-1)))
        CFI (cfiCond92) CFA_SP SP+0
        CFI (cfiCond92) CFA_XSP16 add(XSP16, 10)
        CFI Block cfiCond93 Using cfiCommon0
        CFI (cfiCond93) NoFunction
        CFI (cfiCond93) Conditional ??CrossCallReturnLabel_38, ??CrossCallReturnLabel_16
        CFI (cfiCond93) R6 load(1, XDATA, add(CFA_XSP16, literal(-10)))
        CFI (cfiCond93) VB load(1, XDATA, add(CFA_XSP16, literal(-9)))
        CFI (cfiCond93) V0 load(1, XDATA, add(CFA_XSP16, literal(-8)))
        CFI (cfiCond93) V1 load(1, XDATA, add(CFA_XSP16, literal(-7)))
        CFI (cfiCond93) R7 load(1, XDATA, add(CFA_XSP16, literal(-6)))
        CFI (cfiCond93) ?RET_LOW load(1, XDATA, add(CFA_XSP16, literal(-5)))
        CFI (cfiCond93) ?RET_HIGH load(1, XDATA, add(CFA_XSP16, literal(-4)))
        CFI (cfiCond93) ?BRET_EXT load(1, XDATA, add(CFA_XSP16, literal(-3)))
        CFI (cfiCond93) DPL0 load(1, XDATA, add(CFA_XSP16, literal(-2)))
        CFI (cfiCond93) DPH0 load(1, XDATA, add(CFA_XSP16, literal(-1)))
        CFI (cfiCond93) CFA_SP SP+0
        CFI (cfiCond93) CFA_XSP16 add(XSP16, 12)
        CFI Block cfiPicker94 Using cfiCommon1
        CFI (cfiPicker94) NoFunction
        CFI (cfiPicker94) Picker
        MOV     A,R2
        ADD     A,#0x3
        INC     R2
        INC     R2
        INC     R2
        MOV     A,R3
        ADDC    A,#0x0
        MOV     R3,A
        ; Setup parameters for call to function osal_nv_item_len
        ; Setup parameters for call to function osal_nv_delete
        MOV     DPL,R2
        MOV     DPH,R3
        RET
        CFI EndBlock cfiCond88
        CFI EndBlock cfiCond89
        CFI EndBlock cfiCond90
        CFI EndBlock cfiCond91
        CFI EndBlock cfiCond92
        CFI EndBlock cfiCond93
        CFI EndBlock cfiPicker94
//  763 
//  764 /**************************************************************************************************
//  765  * @fn      MT_SysGpio
//  766  *
//  767  * @brief   ZAccel RPC interface for controlling the available GPIO pins.
//  768  *
//  769  * @param   uint8 pData - Pointer to the data.
//  770  *
//  771  * @return  None
//  772  *************************************************************************************************/

        RSEG BANKED_CODE:CODE:NOROOT(0)
//  773 void MT_SysGpio(uint8 *pBuf)
MT_SysGpio:
        CFI Block cfiBlock95 Using cfiCommon0
        CFI Function MT_SysGpio
        CODE
//  774 {
        FUNCALL MT_SysGpio, MT_BuildAndSendZToolResponse
        LOCFRAME ISTACK, 2, STACK
        LOCFRAME PSTACK, 0, STACK
        LOCFRAME XSTACK, 1, STACK
        LOCFRAME IOVERLAY, 0, STATIC
        LOCFRAME DOVERLAY, 0, STATIC
        ARGFRAME ISTACK, 2, STACK
        ARGFRAME PSTACK, 0, STACK
        ARGFRAME XSTACK, 1, STACK
        ARGFRAME IOVERLAY, 0, STATIC
        ARGFRAME DOVERLAY, 0, STATIC
        PUSH    DPL
        CFI DPL0 Frame(CFA_SP, 4)
        CFI CFA_SP SP+-4
        PUSH    DPH
        CFI DPH0 Frame(CFA_SP, 5)
        CFI CFA_SP SP+-5
        ; Saved register size: 2
        ; Auto size: 1
        MOV     A,#-0x1
        LCALL   ?ALLOC_XSTACK8
        CFI CFA_XSP16 add(XSP16, 1)
//  775   uint8 cmd, val;
//  776   GPIO_Op_t op;
//  777 
//  778   cmd = pBuf[MT_RPC_POS_CMD1];
        MOV     DPL,R2
        MOV     DPH,R3
        INC     DPTR
        INC     DPTR
        MOVX    A,@DPTR
        MOV     R2,A
//  779   pBuf += MT_RPC_FRAME_HDR_SZ;
//  780 
//  781   op = (GPIO_Op_t)(*pBuf++);
//  782   val = *pBuf;
//  783 
//  784   switch (op)
//  785   {
//  786     case GPIO_DIR:
//  787       if (val & BV(0)) {GPIO_DIR_OUT(0);} else {GPIO_DIR_IN(0);}
//  788       if (val & BV(1)) {GPIO_DIR_OUT(1);} else {GPIO_DIR_IN(1);}
//  789       if (val & BV(2)) {GPIO_DIR_OUT(2);} else {GPIO_DIR_IN(2);}
//  790       if (val & BV(3)) {GPIO_DIR_OUT(3);} else {GPIO_DIR_IN(3);}
//  791       break;
//  792 
//  793     case GPIO_TRI:
//  794       if(val & BV(0)) {GPIO_TRI(0);} else if(val & BV(4)) {GPIO_PULL_DN(0);} else {GPIO_PULL_UP(0);}
//  795       if(val & BV(1)) {GPIO_TRI(1);} else if(val & BV(5)) {GPIO_PULL_DN(1);} else {GPIO_PULL_UP(1);}
//  796       if(val & BV(2)) {GPIO_TRI(2);} else if(val & BV(6)) {GPIO_PULL_DN(2);} else {GPIO_PULL_UP(2);}
//  797       if(val & BV(3)) {GPIO_TRI(3);} else if(val & BV(7)) {GPIO_PULL_DN(3);} else {GPIO_PULL_UP(3);}
//  798       break;
//  799 
//  800     case GPIO_SET:
//  801       if (val & BV(0)) {GPIO_SET(0);}
//  802       if (val & BV(1)) {GPIO_SET(1);}
//  803       if (val & BV(2)) {GPIO_SET(2);}
//  804       if (val & BV(3)) {GPIO_SET(3);}
//  805       break;
//  806 
//  807     case GPIO_CLR:
//  808       if (val & BV(0)) {GPIO_CLR(0);}
//  809       if (val & BV(1)) {GPIO_CLR(1);}
//  810       if (val & BV(2)) {GPIO_CLR(2);}
//  811       if (val & BV(3)) {GPIO_CLR(3);}
//  812       break;
//  813 
//  814     case GPIO_TOG:
//  815       if (val & BV(0)) {GPIO_TOG(0);}
//  816       if (val & BV(1)) {GPIO_TOG(1);}
//  817       if (val & BV(2)) {GPIO_TOG(2);}
//  818       if (val & BV(3)) {GPIO_TOG(3);}
//  819       break;
//  820 
//  821     case GPIO_GET:
//  822       break;
//  823 
//  824     case GPIO_HiD:
//  825       (val) ? GPIO_HiD_SET() :  GPIO_HiD_CLR();
//  826       break;
//  827 
//  828     default:
//  829       break;
//  830   }
//  831 
//  832   val  = (GPIO_GET(0)) ? BV(0) : 0;
//  833   val |= (GPIO_GET(1)) ? BV(1) : 0;
//  834   val |= (GPIO_GET(2)) ? BV(2) : 0;
//  835   val |= (GPIO_GET(3)) ? BV(3) : 0;
        MOV     DPL,?XSP + 0
        MOV     DPH,?XSP + 1
        CLR     A
        LCALL   ??Subroutine26_0 & 0xFFFF
//  836 
//  837   /* Build and send back the response */
//  838   MT_BuildAndSendZToolResponse(((uint8)MT_RPC_CMD_SRSP | (uint8)MT_RPC_SYS_SYS), cmd, 1, &val);
??CrossCallReturnLabel_41:
        LCALL   ?Subroutine15 & 0xFFFF
//  839 }
??CrossCallReturnLabel_46:
        SJMP    ??Subroutine33_0
        CFI EndBlock cfiBlock95

        RSEG BANKED_CODE:CODE:NOROOT(0)
?Subroutine1:
        CFI Block cfiBlock96 Using cfiCommon0
        CFI NoFunction
        CFI CFA_SP SP+-5
        CFI CFA_XSP16 add(XSP16, 2)
        CFI DPL0 Frame(CFA_SP, 4)
        CFI DPH0 Frame(CFA_SP, 5)
        MOV     R1,#0x61
        LCALL   ??MT_BuildAndSendZToolResponse?relay
        MOV     A,#0x2
        CFI EndBlock cfiBlock96
        REQUIRE ??Subroutine33_0
        ; // Fall through to label ??Subroutine33_0

        RSEG BANKED_CODE:CODE:NOROOT(0)
??Subroutine33_0:
        CFI Block cfiBlock97 Using cfiCommon0
        CFI NoFunction
        CFI CFA_SP SP+-5
        CFI CFA_XSP16 add(XSP16, 8)
        CFI DPL0 Frame(CFA_SP, 4)
        CFI DPH0 Frame(CFA_SP, 5)
        CFI Invalid
        LCALL   ?DEALLOC_XSTACK8
        CFI EndBlock cfiBlock97
        REQUIRE ??Subroutine34_0
        ; // Fall through to label ??Subroutine34_0

        RSEG BANKED_CODE:CODE:NOROOT(0)
??Subroutine34_0:
        CFI Block cfiBlock98 Using cfiCommon0
        CFI NoFunction
        CFI CFA_SP SP+-5
        CFI DPL0 Frame(CFA_SP, 4)
        CFI DPH0 Frame(CFA_SP, 5)
        POP     DPH
        CFI CFA_SP SP+-4
        CFI DPH0 SameValue
        POP     DPL
        CFI CFA_SP SP+-3
        CFI DPL0 SameValue
        LJMP    ?BRET
        CFI EndBlock cfiBlock98
//  840 
//  841 /**************************************************************************************************
//  842  * @fn      MT_SysStackTune
//  843  *
//  844  * @brief   ZAccel RPC interface for tuning the stack parameters to adjust performance
//  845  *
//  846  * @param   uint8 pData - Pointer to the data.
//  847  *
//  848  * @return  None
//  849  *************************************************************************************************/

        RSEG BANKED_CODE:CODE:NOROOT(0)
//  850 void MT_SysStackTune(uint8 *pBuf)
MT_SysStackTune:
        CFI Block cfiBlock99 Using cfiCommon0
        CFI Function MT_SysStackTune
        CODE
//  851 {
        FUNCALL MT_SysStackTune, ZMacSetReq
        LOCFRAME ISTACK, 0, STACK
        LOCFRAME PSTACK, 0, STACK
        LOCFRAME XSTACK, 10, STACK
        LOCFRAME IOVERLAY, 0, STATIC
        LOCFRAME DOVERLAY, 0, STATIC
        ARGFRAME ISTACK, 0, STACK
        ARGFRAME PSTACK, 0, STACK
        ARGFRAME XSTACK, 10, STACK
        ARGFRAME IOVERLAY, 0, STATIC
        ARGFRAME DOVERLAY, 0, STATIC
        FUNCALL MT_SysStackTune, ZMacGetReq
        LOCFRAME ISTACK, 0, STACK
        LOCFRAME PSTACK, 0, STACK
        LOCFRAME XSTACK, 10, STACK
        LOCFRAME IOVERLAY, 0, STATIC
        LOCFRAME DOVERLAY, 0, STATIC
        ARGFRAME ISTACK, 0, STACK
        ARGFRAME PSTACK, 0, STACK
        ARGFRAME XSTACK, 10, STACK
        ARGFRAME IOVERLAY, 0, STATIC
        ARGFRAME DOVERLAY, 0, STATIC
        FUNCALL MT_SysStackTune, ZMacSetReq
        LOCFRAME ISTACK, 0, STACK
        LOCFRAME PSTACK, 0, STACK
        LOCFRAME XSTACK, 10, STACK
        LOCFRAME IOVERLAY, 0, STATIC
        LOCFRAME DOVERLAY, 0, STATIC
        ARGFRAME ISTACK, 0, STACK
        ARGFRAME PSTACK, 0, STACK
        ARGFRAME XSTACK, 10, STACK
        ARGFRAME IOVERLAY, 0, STATIC
        ARGFRAME DOVERLAY, 0, STATIC
        FUNCALL MT_SysStackTune, MT_BuildAndSendZToolResponse
        LOCFRAME ISTACK, 0, STACK
        LOCFRAME PSTACK, 0, STACK
        LOCFRAME XSTACK, 10, STACK
        LOCFRAME IOVERLAY, 0, STATIC
        LOCFRAME DOVERLAY, 0, STATIC
        ARGFRAME ISTACK, 0, STACK
        ARGFRAME PSTACK, 0, STACK
        ARGFRAME XSTACK, 10, STACK
        ARGFRAME IOVERLAY, 0, STATIC
        ARGFRAME DOVERLAY, 0, STATIC
        MOV     A,#-0x9
        LCALL   ?BANKED_ENTER_XDATA
        CFI DPH0 load(1, XDATA, add(CFA_XSP16, literal(-1)))
        CFI DPL0 load(1, XDATA, add(CFA_XSP16, literal(-2)))
        CFI ?BRET_EXT load(1, XDATA, add(CFA_XSP16, literal(-3)))
        CFI ?RET_HIGH load(1, XDATA, add(CFA_XSP16, literal(-4)))
        CFI ?RET_LOW load(1, XDATA, add(CFA_XSP16, literal(-5)))
        CFI R7 load(1, XDATA, add(CFA_XSP16, literal(-6)))
        CFI V0 load(1, XDATA, add(CFA_XSP16, literal(-7)))
        CFI VB load(1, XDATA, add(CFA_XSP16, literal(-8)))
        CFI R6 load(1, XDATA, add(CFA_XSP16, literal(-9)))
        CFI CFA_SP SP+0
        CFI CFA_XSP16 add(XSP16, 9)
        ; Saved register size: 9
        ; Auto size: 1
        MOV     A,#-0x1
        LCALL   ?ALLOC_XSTACK8
        CFI CFA_XSP16 add(XSP16, 10)
//  852   uint8 cmd, rtrn;
//  853 
//  854   cmd = pBuf[MT_RPC_POS_CMD1];
        MOV     DPL,R2
        MOV     DPH,R3
        INC     DPTR
        INC     DPTR
        MOVX    A,@DPTR
        MOV     R6,A
//  855   pBuf += MT_RPC_FRAME_HDR_SZ;
//  856 
//  857   switch (*pBuf++)
        MOV     A,R2
        ADD     A,#0x3
        MOV     R0,A
        MOV     A,R3
        ADDC    A,#0x0
        MOV     R1,A
        MOV     DPL,R0
        MOV     DPH,R1
        INC     DPTR
        MOV     R2,DPL
        MOV     R3,DPH
        MOV     DPL,R0
        MOV     DPH,R1
        MOVX    A,@DPTR
        JZ      ??MT_SysStackTune_0
        DEC     A
        JZ      ??MT_SysStackTune_1
        SJMP    ??MT_SysStackTune_2
//  858   {
//  859   case STK_TX_PWR:
//  860     rtrn = ZMacSetReq(ZMacPhyTransmitPowerSigned, pBuf);
??MT_SysStackTune_0:
        ; Setup parameters for call to function ZMacSetReq
        MOV     R1,#-0x1b
??MT_SysStackTune_3:
        LCALL   ?Subroutine17 & 0xFFFF
??CrossCallReturnLabel_22:
        SJMP    ??MT_SysStackTune_4
//  861     break;
//  862 
//  863   case STK_RX_ON_IDLE:
//  864     if ((*pBuf != TRUE) && (*pBuf != FALSE))
??MT_SysStackTune_1:
        MOV     DPL,R2
        MOV     DPH,R3
        MOVX    A,@DPTR
        XRL     A,#0x1
        JZ      ??MT_SysStackTune_5
        MOVX    A,@DPTR
        JZ      ??MT_SysStackTune_5
//  865     {
//  866       (void)ZMacGetReq(ZMacRxOnIdle, &rtrn);
        ; Setup parameters for call to function ZMacGetReq
        MOV     DPL,?XSP + 0
        MOV     DPH,?XSP + 1
        MOV     R2,DPL
        MOV     R3,DPH
        MOV     R1,#0x52
        LCALL   ??ZMacGetReq?relay
        SJMP    ??MT_SysStackTune_6
//  867     }
//  868     else
//  869     {
//  870       rtrn = ZMacSetReq(ZMacRxOnIdle, pBuf);
??MT_SysStackTune_5:
        ; Setup parameters for call to function ZMacSetReq
        MOV     R1,#0x52
        SJMP    ??MT_SysStackTune_3
//  871     }
//  872     break;
//  873 
//  874   default:
//  875     rtrn = ZInvalidParameter;
??MT_SysStackTune_2:
        MOV     DPL,?XSP + 0
        MOV     DPH,?XSP + 1
        MOV     A,#0x2
??MT_SysStackTune_4:
        MOVX    @DPTR,A
//  876     break;
//  877   }
//  878 
//  879   MT_BuildAndSendZToolResponse(((uint8)MT_RPC_CMD_SRSP | (uint8)MT_RPC_SYS_SYS), cmd, 1, &rtrn);
??MT_SysStackTune_6:
        ; Setup parameters for call to function MT_BuildAndSendZToolResponse
        MOV     DPL,?XSP + 0
        MOV     DPH,?XSP + 1
        LJMP    ??Subroutine27_0 & 0xFFFF
        CFI EndBlock cfiBlock99
//  880 }

        RSEG BANKED_CODE:CODE:NOROOT(0)
?Subroutine17:
        CFI Block cfiCond100 Using cfiCommon0
        CFI NoFunction
        CFI Conditional ??CrossCallReturnLabel_21
        CFI R6 load(1, XDATA, add(CFA_XSP16, literal(-13)))
        CFI VB load(1, XDATA, add(CFA_XSP16, literal(-12)))
        CFI V0 load(1, XDATA, add(CFA_XSP16, literal(-11)))
        CFI V1 load(1, XDATA, add(CFA_XSP16, literal(-10)))
        CFI V2 load(1, XDATA, add(CFA_XSP16, literal(-9)))
        CFI V3 load(1, XDATA, add(CFA_XSP16, literal(-8)))
        CFI V4 load(1, XDATA, add(CFA_XSP16, literal(-7)))
        CFI R7 load(1, XDATA, add(CFA_XSP16, literal(-6)))
        CFI ?RET_LOW load(1, XDATA, add(CFA_XSP16, literal(-5)))
        CFI ?RET_HIGH load(1, XDATA, add(CFA_XSP16, literal(-4)))
        CFI ?BRET_EXT load(1, XDATA, add(CFA_XSP16, literal(-3)))
        CFI DPL0 load(1, XDATA, add(CFA_XSP16, literal(-2)))
        CFI DPH0 load(1, XDATA, add(CFA_XSP16, literal(-1)))
        CFI CFA_SP SP+0
        CFI CFA_XSP16 add(XSP16, 14)
        CFI Block cfiCond101 Using cfiCommon0
        CFI (cfiCond101) NoFunction
        CFI (cfiCond101) Conditional ??CrossCallReturnLabel_22
        CFI (cfiCond101) R6 load(1, XDATA, add(CFA_XSP16, literal(-9)))
        CFI (cfiCond101) VB load(1, XDATA, add(CFA_XSP16, literal(-8)))
        CFI (cfiCond101) V0 load(1, XDATA, add(CFA_XSP16, literal(-7)))
        CFI (cfiCond101) R7 load(1, XDATA, add(CFA_XSP16, literal(-6)))
        CFI (cfiCond101) ?RET_LOW load(1, XDATA, add(CFA_XSP16, literal(-5)))
        CFI (cfiCond101) ?RET_HIGH load(1, XDATA, add(CFA_XSP16, literal(-4)))
        CFI (cfiCond101) ?BRET_EXT load(1, XDATA, add(CFA_XSP16, literal(-3)))
        CFI (cfiCond101) DPL0 load(1, XDATA, add(CFA_XSP16, literal(-2)))
        CFI (cfiCond101) DPH0 load(1, XDATA, add(CFA_XSP16, literal(-1)))
        CFI (cfiCond101) CFA_SP SP+0
        CFI (cfiCond101) CFA_XSP16 add(XSP16, 10)
        CFI Block cfiPicker102 Using cfiCommon1
        CFI (cfiPicker102) NoFunction
        CFI (cfiPicker102) Picker
        LCALL   ??ZMacSetReq?relay
        MOV     A,R1
        MOV     DPL,?XSP + 0
        MOV     DPH,?XSP + 1
        RET
        CFI EndBlock cfiCond100
        CFI EndBlock cfiCond101
        CFI EndBlock cfiPicker102
//  881 
//  882 /***************************************************************************************************
//  883  * @fn      MT_SysSetUtcTime
//  884  *
//  885  * @brief   Set the OSAL UTC Time. UTC rollover is: 06:28:16 02/07/2136
//  886  *
//  887  * @param   pBuf - pointer to time parameters
//  888  *
//  889  * @return  None
//  890  ***************************************************************************************************/

        RSEG BANKED_CODE:CODE:NOROOT(0)
//  891 void MT_SysSetUtcTime(uint8 *pBuf)
MT_SysSetUtcTime:
        CFI Block cfiBlock103 Using cfiCommon0
        CFI Function MT_SysSetUtcTime
        CODE
//  892 {
        FUNCALL MT_SysSetUtcTime, osal_build_uint32
        LOCFRAME ISTACK, 0, STACK
        LOCFRAME PSTACK, 0, STACK
        LOCFRAME XSTACK, 24, STACK
        LOCFRAME IOVERLAY, 0, STATIC
        LOCFRAME DOVERLAY, 0, STATIC
        ARGFRAME ISTACK, 0, STACK
        ARGFRAME PSTACK, 0, STACK
        ARGFRAME XSTACK, 24, STACK
        ARGFRAME IOVERLAY, 0, STATIC
        ARGFRAME DOVERLAY, 0, STATIC
        FUNCALL MT_SysSetUtcTime, osal_build_uint16
        LOCFRAME ISTACK, 0, STACK
        LOCFRAME PSTACK, 0, STACK
        LOCFRAME XSTACK, 24, STACK
        LOCFRAME IOVERLAY, 0, STATIC
        LOCFRAME DOVERLAY, 0, STATIC
        ARGFRAME ISTACK, 0, STACK
        ARGFRAME PSTACK, 0, STACK
        ARGFRAME XSTACK, 24, STACK
        ARGFRAME IOVERLAY, 0, STATIC
        ARGFRAME DOVERLAY, 0, STATIC
        FUNCALL MT_SysSetUtcTime, osal_ConvertUTCSecs
        LOCFRAME ISTACK, 0, STACK
        LOCFRAME PSTACK, 0, STACK
        LOCFRAME XSTACK, 24, STACK
        LOCFRAME IOVERLAY, 0, STATIC
        LOCFRAME DOVERLAY, 0, STATIC
        ARGFRAME ISTACK, 0, STACK
        ARGFRAME PSTACK, 0, STACK
        ARGFRAME XSTACK, 24, STACK
        ARGFRAME IOVERLAY, 0, STATIC
        ARGFRAME DOVERLAY, 0, STATIC
        FUNCALL MT_SysSetUtcTime, osal_setClock
        LOCFRAME ISTACK, 0, STACK
        LOCFRAME PSTACK, 0, STACK
        LOCFRAME XSTACK, 24, STACK
        LOCFRAME IOVERLAY, 0, STATIC
        LOCFRAME DOVERLAY, 0, STATIC
        ARGFRAME ISTACK, 0, STACK
        ARGFRAME PSTACK, 0, STACK
        ARGFRAME XSTACK, 24, STACK
        ARGFRAME IOVERLAY, 0, STATIC
        ARGFRAME DOVERLAY, 0, STATIC
        FUNCALL MT_SysSetUtcTime, MT_BuildAndSendZToolResponse
        LOCFRAME ISTACK, 0, STACK
        LOCFRAME PSTACK, 0, STACK
        LOCFRAME XSTACK, 24, STACK
        LOCFRAME IOVERLAY, 0, STATIC
        LOCFRAME DOVERLAY, 0, STATIC
        ARGFRAME ISTACK, 0, STACK
        ARGFRAME PSTACK, 0, STACK
        ARGFRAME XSTACK, 24, STACK
        ARGFRAME IOVERLAY, 0, STATIC
        ARGFRAME DOVERLAY, 0, STATIC
        MOV     A,#-0x10
        LCALL   ?BANKED_ENTER_XDATA
        CFI DPH0 load(1, XDATA, add(CFA_XSP16, literal(-1)))
        CFI DPL0 load(1, XDATA, add(CFA_XSP16, literal(-2)))
        CFI ?BRET_EXT load(1, XDATA, add(CFA_XSP16, literal(-3)))
        CFI ?RET_HIGH load(1, XDATA, add(CFA_XSP16, literal(-4)))
        CFI ?RET_LOW load(1, XDATA, add(CFA_XSP16, literal(-5)))
        CFI R7 load(1, XDATA, add(CFA_XSP16, literal(-6)))
        CFI V7 load(1, XDATA, add(CFA_XSP16, literal(-7)))
        CFI V6 load(1, XDATA, add(CFA_XSP16, literal(-8)))
        CFI V5 load(1, XDATA, add(CFA_XSP16, literal(-9)))
        CFI V4 load(1, XDATA, add(CFA_XSP16, literal(-10)))
        CFI V3 load(1, XDATA, add(CFA_XSP16, literal(-11)))
        CFI V2 load(1, XDATA, add(CFA_XSP16, literal(-12)))
        CFI V1 load(1, XDATA, add(CFA_XSP16, literal(-13)))
        CFI V0 load(1, XDATA, add(CFA_XSP16, literal(-14)))
        CFI VB load(1, XDATA, add(CFA_XSP16, literal(-15)))
        CFI R6 load(1, XDATA, add(CFA_XSP16, literal(-16)))
        CFI CFA_SP SP+0
        CFI CFA_XSP16 add(XSP16, 16)
        ; Saved register size: 16
        ; Auto size: 8
        MOV     A,#-0x8
        LCALL   ?ALLOC_XSTACK8
        CFI CFA_XSP16 add(XSP16, 24)
        MOV     A,R2
        MOV     R6,A
        MOV     A,R3
        MOV     R7,A
//  893   uint8 cmdId;
//  894   uint8 retStat;
//  895   UTCTime utcSecs;
//  896 
//  897   /* Parse header */
//  898   cmdId = pBuf[MT_RPC_POS_CMD1];
        MOV     DPL,R6
        MOV     DPH,R7
        INC     DPTR
        INC     DPTR
        MOVX    A,@DPTR
        MOV     ?V0 + 0,A
//  899   pBuf += MT_RPC_FRAME_HDR_SZ;
        MOV     A,R6
        ADD     A,#0x3
        INC     R6
        INC     R6
        INC     R6
        MOV     A,R7
        ADDC    A,#0x0
        MOV     R7,A
//  900 
//  901   utcSecs = osal_build_uint32( pBuf, 4 );
        ; Setup parameters for call to function osal_build_uint32
        MOV     R1,#0x4
        INC     R2
        INC     R2
        INC     R2
        MOV     R3,A
        LCALL   ??osal_build_uint32?relay
        MOV     ?V0 + 4,R2
        MOV     ?V0 + 5,R3
        MOV     ?V0 + 6,R4
        MOV     ?V0 + 7,R5
//  902   if ( utcSecs == 0 )
        MOV     A,R2
        ORL     A,?V0 + 5
        ORL     A,?V0 + 6
        ORL     A,?V0 + 7
        JZ      $+5
        LJMP    ??MT_SysSetUtcTime_0 & 0xFFFF
//  903   {
//  904     UTCTimeStruct utc;
//  905 
//  906     /* Skip past UTC time */
//  907     pBuf += 4;
        MOV     A,R6
        ADD     A,#0x4
        MOV     R6,A
        MOV     A,R7
        ADDC    A,#0x0
        MOV     R7,A
//  908 
//  909     /* Get time and date parameters */
//  910     utc.hour = *pBuf++;
        MOV     DPL,R6
        MOV     DPH,R7
        MOVX    A,@DPTR
        PUSH    A
        CFI CFA_SP SP+-1
        MOV     A,#0x3
        LCALL   ?XSTACK_DISP0_8
        POP     A
        CFI CFA_SP SP+0
        LCALL   ?Subroutine18 & 0xFFFF
??CrossCallReturnLabel_23:
        MOV     R6,DPL
        MOV     R7,DPH
//  911     utc.minutes = *pBuf++;
        MOVX    A,@DPTR
        PUSH    A
        CFI CFA_SP SP+-1
        MOV     A,#0x2
        LCALL   ?XSTACK_DISP0_8
        POP     A
        CFI CFA_SP SP+0
        LCALL   ?Subroutine18 & 0xFFFF
??CrossCallReturnLabel_24:
        INC     R6
        MOV     R7,DPH
//  912     utc.seconds = *pBuf++;
        MOVX    A,@DPTR
        PUSH    A
        CFI CFA_SP SP+-1
        MOV     A,#0x1
        LCALL   ?XSTACK_DISP0_8
        POP     A
        CFI CFA_SP SP+0
        LCALL   ?Subroutine14 & 0xFFFF
//  913     utc.month = (*pBuf++) - 1;
??CrossCallReturnLabel_17:
        PUSH    A
        CFI CFA_SP SP+-1
        MOV     A,#0x5
        LCALL   ?XSTACK_DISP0_8
        POP     A
        CFI CFA_SP SP+0
        LCALL   ?Subroutine14 & 0xFFFF
//  914     utc.day = (*pBuf++) - 1;
??CrossCallReturnLabel_18:
        PUSH    A
        CFI CFA_SP SP+-1
        MOV     A,#0x4
        LCALL   ?XSTACK_DISP0_8
        POP     A
        CFI CFA_SP SP+0
        LCALL   ?Subroutine18 & 0xFFFF
//  915     utc.year = osal_build_uint16 ( pBuf );
??CrossCallReturnLabel_25:
        ; Setup parameters for call to function osal_build_uint16
        MOV     R2,DPL
        MOV     R3,DPH
        LCALL   ??osal_build_uint16?relay
        MOV     A,#0x6
        LCALL   ?XSTACK_DISP0_8
        MOV     A,R2
        MOVX    @DPTR,A
        INC     DPTR
        MOV     A,R3
        MOVX    @DPTR,A
//  916 
//  917     if ((utc.hour < 24) && (utc.minutes < 60) && (utc.seconds < 60) &&
//  918         (utc.month < 12) && (utc.day < 31) && (utc.year > 1999) && (utc.year < 2136))
        MOV     A,#0x3
        LCALL   ?XSTACK_DISP0_8
        MOVX    A,@DPTR
        CLR     C
        SUBB    A,#0x18
        JC      $+5
        LJMP    ??MT_SysSetUtcTime_1 & 0xFFFF
        MOV     A,#0x2
        LCALL   ?XSTACK_DISP0_8
        MOVX    A,@DPTR
        CLR     C
        SUBB    A,#0x3c
        JC      $+5
        LJMP    ??MT_SysSetUtcTime_1 & 0xFFFF
        MOV     A,#0x1
        LCALL   ?XSTACK_DISP0_8
        MOVX    A,@DPTR
        CLR     C
        SUBB    A,#0x3c
        JC      $+5
        LJMP    ??MT_SysSetUtcTime_1 & 0xFFFF
        MOV     A,#0x5
        LCALL   ?XSTACK_DISP0_8
        MOVX    A,@DPTR
        CLR     C
        SUBB    A,#0xc
        JC      $+5
        LJMP    ??MT_SysSetUtcTime_1 & 0xFFFF
        MOV     A,#0x4
        LCALL   ?XSTACK_DISP0_8
        MOVX    A,@DPTR
        CLR     C
        SUBB    A,#0x1f
        JC      $+5
        LJMP    ??MT_SysSetUtcTime_1 & 0xFFFF
        MOV     A,#0x6
        LCALL   ?XSTACK_DISP0_8
        MOVX    A,@DPTR
        ADD     A,#0x30
        MOV     R0,A
        INC     DPTR
        MOVX    A,@DPTR
        ADDC    A,#-0x8
        MOV     R1,A
        CLR     C
        MOV     A,R0
        SUBB    A,#-0x78
        MOV     A,R1
        SUBB    A,#0x0
        JNC     ??MT_SysSetUtcTime_1
//  919     {
//  920       /* Got past the course filter, now check for leap year */
//  921       if ((utc.month != 1) || (utc.day < (IsLeapYear( utc.year ) ? 29 : 28)))
        MOV     A,#0x5
        LCALL   ?XSTACK_DISP0_8
        MOVX    A,@DPTR
        XRL     A,#0x1
        JNZ     ??MT_SysSetUtcTime_2
        MOV     A,#0x6
        LCALL   ?XSTACK_DISP0_8
        MOVX    A,@DPTR
        MOV     R0,A
        INC     DPTR
        MOVX    A,@DPTR
        MOV     R1,A
        MOV     R2,#-0x70
        MOV     R3,#0x1
        LCALL   ?US_DIV_MOD
        MOV     ?V0 + 3,R3
        MOV     A,R2
        ORL     A,?V0 + 3
        JZ      ??MT_SysSetUtcTime_3
        MOV     A,#0x6
        LCALL   ?XSTACK_DISP0_8
        MOVX    A,@DPTR
        MOV     R0,A
        INC     DPTR
        MOVX    A,@DPTR
        MOV     R1,A
        MOV     R2,#0x64
        MOV     R3,#0x0
        LCALL   ?US_DIV_MOD
        MOV     ?V0 + 3,R3
        MOV     A,R2
        ORL     A,?V0 + 3
        JZ      ??MT_SysSetUtcTime_4
        MOV     A,#0x6
        LCALL   ?XSTACK_DISP0_8
        MOVX    A,@DPTR
        ANL     A,#0x3
        JNZ     ??MT_SysSetUtcTime_4
??MT_SysSetUtcTime_3:
        MOV     R0,#0x1d
        SJMP    ??MT_SysSetUtcTime_5
??MT_SysSetUtcTime_4:
        MOV     R0,#0x1c
??MT_SysSetUtcTime_5:
        MOV     A,#0x4
        LCALL   ?XSTACK_DISP0_8
        MOVX    A,@DPTR
        CLR     C
        SUBB    A,R0
        JNC     ??MT_SysSetUtcTime_1
//  922       {
//  923         /* Numbers look reasonable, convert to UTC */
//  924         utcSecs = osal_ConvertUTCSecs( &utc );
??MT_SysSetUtcTime_2:
        ; Setup parameters for call to function osal_ConvertUTCSecs
        MOV     A,#0x1
        LCALL   ?XSTACK_DISP0_8
        MOV     R2,DPL
        MOV     R3,DPH
        LCALL   ??osal_ConvertUTCSecs?relay
        MOV     ?V0 + 4,R2
        MOV     ?V0 + 5,R3
        MOV     ?V0 + 6,R4
        MOV     ?V0 + 7,R5
//  925       }
//  926     }
//  927   }
//  928 
//  929   if ( utcSecs == 0 )
??MT_SysSetUtcTime_0:
        MOV     A,?V0 + 4
        ORL     A,?V0 + 5
        ORL     A,?V0 + 6
        ORL     A,?V0 + 7
        JNZ     ??MT_SysSetUtcTime_6
//  930   {
//  931     /* Bad parameter(s) */
//  932     retStat = ZInvalidParameter;
??MT_SysSetUtcTime_1:
        MOV     DPL,?XSP + 0
        MOV     DPH,?XSP + 1
        MOV     A,#0x2
        SJMP    ??MT_SysSetUtcTime_7
//  933   }
//  934   else
//  935   {
//  936     /* Parameters accepted, set the time */
//  937     osal_setClock( utcSecs );
??MT_SysSetUtcTime_6:
        ; Setup parameters for call to function osal_setClock
        MOV     R2,?V0 + 4
        MOV     R3,?V0 + 5
        MOV     R4,?V0 + 6
        MOV     R5,?V0 + 7
        LCALL   ??osal_setClock?relay
//  938     retStat = ZSuccess;
        MOV     DPL,?XSP + 0
        MOV     DPH,?XSP + 1
        CLR     A
//  939   }
??MT_SysSetUtcTime_7:
        LCALL   ??Subroutine26_0 & 0xFFFF
//  940 
//  941   /* Build and send back the response */
//  942   MT_BuildAndSendZToolResponse(((uint8)MT_RPC_CMD_SRSP | (uint8)MT_RPC_SYS_SYS),
//  943                                  cmdId, 1, &retStat);
??CrossCallReturnLabel_42:
        MOV     R2,?V0 + 0
        MOV     R1,#0x61
        LCALL   ??MT_BuildAndSendZToolResponse?relay
//  944 }
        MOV     A,#0x8
        LJMP    ?Subroutine3 & 0xFFFF
        CFI EndBlock cfiBlock103

        RSEG BANKED_CODE:CODE:NOROOT(0)
?Subroutine18:
        CFI Block cfiCond104 Using cfiCommon0
        CFI NoFunction
        CFI Conditional ??CrossCallReturnLabel_23
        CFI R6 load(1, XDATA, add(CFA_XSP16, literal(-16)))
        CFI VB load(1, XDATA, add(CFA_XSP16, literal(-15)))
        CFI V0 load(1, XDATA, add(CFA_XSP16, literal(-14)))
        CFI V1 load(1, XDATA, add(CFA_XSP16, literal(-13)))
        CFI V2 load(1, XDATA, add(CFA_XSP16, literal(-12)))
        CFI V3 load(1, XDATA, add(CFA_XSP16, literal(-11)))
        CFI V4 load(1, XDATA, add(CFA_XSP16, literal(-10)))
        CFI V5 load(1, XDATA, add(CFA_XSP16, literal(-9)))
        CFI V6 load(1, XDATA, add(CFA_XSP16, literal(-8)))
        CFI V7 load(1, XDATA, add(CFA_XSP16, literal(-7)))
        CFI R7 load(1, XDATA, add(CFA_XSP16, literal(-6)))
        CFI ?RET_LOW load(1, XDATA, add(CFA_XSP16, literal(-5)))
        CFI ?RET_HIGH load(1, XDATA, add(CFA_XSP16, literal(-4)))
        CFI ?BRET_EXT load(1, XDATA, add(CFA_XSP16, literal(-3)))
        CFI DPL0 load(1, XDATA, add(CFA_XSP16, literal(-2)))
        CFI DPH0 load(1, XDATA, add(CFA_XSP16, literal(-1)))
        CFI CFA_SP SP+0
        CFI CFA_XSP16 add(XSP16, 24)
        CFI Block cfiCond105 Using cfiCommon0
        CFI (cfiCond105) NoFunction
        CFI (cfiCond105) Conditional ??CrossCallReturnLabel_24
        CFI (cfiCond105) R6 load(1, XDATA, add(CFA_XSP16, literal(-16)))
        CFI (cfiCond105) VB load(1, XDATA, add(CFA_XSP16, literal(-15)))
        CFI (cfiCond105) V0 load(1, XDATA, add(CFA_XSP16, literal(-14)))
        CFI (cfiCond105) V1 load(1, XDATA, add(CFA_XSP16, literal(-13)))
        CFI (cfiCond105) V2 load(1, XDATA, add(CFA_XSP16, literal(-12)))
        CFI (cfiCond105) V3 load(1, XDATA, add(CFA_XSP16, literal(-11)))
        CFI (cfiCond105) V4 load(1, XDATA, add(CFA_XSP16, literal(-10)))
        CFI (cfiCond105) V5 load(1, XDATA, add(CFA_XSP16, literal(-9)))
        CFI (cfiCond105) V6 load(1, XDATA, add(CFA_XSP16, literal(-8)))
        CFI (cfiCond105) V7 load(1, XDATA, add(CFA_XSP16, literal(-7)))
        CFI (cfiCond105) R7 load(1, XDATA, add(CFA_XSP16, literal(-6)))
        CFI (cfiCond105) ?RET_LOW load(1, XDATA, add(CFA_XSP16, literal(-5)))
        CFI (cfiCond105) ?RET_HIGH load(1, XDATA, add(CFA_XSP16, literal(-4)))
        CFI (cfiCond105) ?BRET_EXT load(1, XDATA, add(CFA_XSP16, literal(-3)))
        CFI (cfiCond105) DPL0 load(1, XDATA, add(CFA_XSP16, literal(-2)))
        CFI (cfiCond105) DPH0 load(1, XDATA, add(CFA_XSP16, literal(-1)))
        CFI (cfiCond105) CFA_SP SP+0
        CFI (cfiCond105) CFA_XSP16 add(XSP16, 24)
        CFI Block cfiCond106 Using cfiCommon0
        CFI (cfiCond106) NoFunction
        CFI (cfiCond106) Conditional ??CrossCallReturnLabel_25
        CFI (cfiCond106) R6 load(1, XDATA, add(CFA_XSP16, literal(-16)))
        CFI (cfiCond106) VB load(1, XDATA, add(CFA_XSP16, literal(-15)))
        CFI (cfiCond106) V0 load(1, XDATA, add(CFA_XSP16, literal(-14)))
        CFI (cfiCond106) V1 load(1, XDATA, add(CFA_XSP16, literal(-13)))
        CFI (cfiCond106) V2 load(1, XDATA, add(CFA_XSP16, literal(-12)))
        CFI (cfiCond106) V3 load(1, XDATA, add(CFA_XSP16, literal(-11)))
        CFI (cfiCond106) V4 load(1, XDATA, add(CFA_XSP16, literal(-10)))
        CFI (cfiCond106) V5 load(1, XDATA, add(CFA_XSP16, literal(-9)))
        CFI (cfiCond106) V6 load(1, XDATA, add(CFA_XSP16, literal(-8)))
        CFI (cfiCond106) V7 load(1, XDATA, add(CFA_XSP16, literal(-7)))
        CFI (cfiCond106) R7 load(1, XDATA, add(CFA_XSP16, literal(-6)))
        CFI (cfiCond106) ?RET_LOW load(1, XDATA, add(CFA_XSP16, literal(-5)))
        CFI (cfiCond106) ?RET_HIGH load(1, XDATA, add(CFA_XSP16, literal(-4)))
        CFI (cfiCond106) ?BRET_EXT load(1, XDATA, add(CFA_XSP16, literal(-3)))
        CFI (cfiCond106) DPL0 load(1, XDATA, add(CFA_XSP16, literal(-2)))
        CFI (cfiCond106) DPH0 load(1, XDATA, add(CFA_XSP16, literal(-1)))
        CFI (cfiCond106) CFA_SP SP+0
        CFI (cfiCond106) CFA_XSP16 add(XSP16, 24)
        CFI Block cfiPicker107 Using cfiCommon1
        CFI (cfiPicker107) NoFunction
        CFI (cfiPicker107) Picker
        MOVX    @DPTR,A
        MOV     DPL,R6
        MOV     DPH,R7
        INC     DPTR
        RET
        CFI EndBlock cfiCond104
        CFI EndBlock cfiCond105
        CFI EndBlock cfiCond106
        CFI EndBlock cfiPicker107

        RSEG BANKED_CODE:CODE:NOROOT(0)
?Subroutine14:
        CFI Block cfiCond108 Using cfiCommon0
        CFI NoFunction
        CFI Conditional ??CrossCallReturnLabel_17
        CFI R6 load(1, XDATA, add(CFA_XSP16, literal(-16)))
        CFI VB load(1, XDATA, add(CFA_XSP16, literal(-15)))
        CFI V0 load(1, XDATA, add(CFA_XSP16, literal(-14)))
        CFI V1 load(1, XDATA, add(CFA_XSP16, literal(-13)))
        CFI V2 load(1, XDATA, add(CFA_XSP16, literal(-12)))
        CFI V3 load(1, XDATA, add(CFA_XSP16, literal(-11)))
        CFI V4 load(1, XDATA, add(CFA_XSP16, literal(-10)))
        CFI V5 load(1, XDATA, add(CFA_XSP16, literal(-9)))
        CFI V6 load(1, XDATA, add(CFA_XSP16, literal(-8)))
        CFI V7 load(1, XDATA, add(CFA_XSP16, literal(-7)))
        CFI R7 load(1, XDATA, add(CFA_XSP16, literal(-6)))
        CFI ?RET_LOW load(1, XDATA, add(CFA_XSP16, literal(-5)))
        CFI ?RET_HIGH load(1, XDATA, add(CFA_XSP16, literal(-4)))
        CFI ?BRET_EXT load(1, XDATA, add(CFA_XSP16, literal(-3)))
        CFI DPL0 load(1, XDATA, add(CFA_XSP16, literal(-2)))
        CFI DPH0 load(1, XDATA, add(CFA_XSP16, literal(-1)))
        CFI CFA_SP SP+0
        CFI CFA_XSP16 add(XSP16, 24)
        CFI Block cfiCond109 Using cfiCommon0
        CFI (cfiCond109) NoFunction
        CFI (cfiCond109) Conditional ??CrossCallReturnLabel_18
        CFI (cfiCond109) R6 load(1, XDATA, add(CFA_XSP16, literal(-16)))
        CFI (cfiCond109) VB load(1, XDATA, add(CFA_XSP16, literal(-15)))
        CFI (cfiCond109) V0 load(1, XDATA, add(CFA_XSP16, literal(-14)))
        CFI (cfiCond109) V1 load(1, XDATA, add(CFA_XSP16, literal(-13)))
        CFI (cfiCond109) V2 load(1, XDATA, add(CFA_XSP16, literal(-12)))
        CFI (cfiCond109) V3 load(1, XDATA, add(CFA_XSP16, literal(-11)))
        CFI (cfiCond109) V4 load(1, XDATA, add(CFA_XSP16, literal(-10)))
        CFI (cfiCond109) V5 load(1, XDATA, add(CFA_XSP16, literal(-9)))
        CFI (cfiCond109) V6 load(1, XDATA, add(CFA_XSP16, literal(-8)))
        CFI (cfiCond109) V7 load(1, XDATA, add(CFA_XSP16, literal(-7)))
        CFI (cfiCond109) R7 load(1, XDATA, add(CFA_XSP16, literal(-6)))
        CFI (cfiCond109) ?RET_LOW load(1, XDATA, add(CFA_XSP16, literal(-5)))
        CFI (cfiCond109) ?RET_HIGH load(1, XDATA, add(CFA_XSP16, literal(-4)))
        CFI (cfiCond109) ?BRET_EXT load(1, XDATA, add(CFA_XSP16, literal(-3)))
        CFI (cfiCond109) DPL0 load(1, XDATA, add(CFA_XSP16, literal(-2)))
        CFI (cfiCond109) DPH0 load(1, XDATA, add(CFA_XSP16, literal(-1)))
        CFI (cfiCond109) CFA_SP SP+0
        CFI (cfiCond109) CFA_XSP16 add(XSP16, 24)
        CFI Block cfiPicker110 Using cfiCommon1
        CFI (cfiPicker110) NoFunction
        CFI (cfiPicker110) Picker
        MOVX    @DPTR,A
        MOV     DPL,R6
        MOV     DPH,R7
        INC     DPTR
        INC     R6
        MOV     R7,DPH
        MOVX    A,@DPTR
        DEC     A
        RET
        CFI EndBlock cfiCond108
        CFI EndBlock cfiCond109
        CFI EndBlock cfiPicker110
//  945 
//  946 /***************************************************************************************************
//  947  * @fn      MT_SysGetUtcTime
//  948  *
//  949  * @brief   Get the OSAL UTC time
//  950  *
//  951  * @param   None
//  952  *
//  953  * @return  32-bit and Parsed UTC time
//  954  ***************************************************************************************************/

        RSEG BANKED_CODE:CODE:NOROOT(0)
//  955 void MT_SysGetUtcTime(void)
MT_SysGetUtcTime:
        CFI Block cfiBlock111 Using cfiCommon0
        CFI Function MT_SysGetUtcTime
        CODE
//  956 {
        FUNCALL MT_SysGetUtcTime, osal_mem_alloc
        LOCFRAME ISTACK, 0, STACK
        LOCFRAME PSTACK, 0, STACK
        LOCFRAME XSTACK, 19, STACK
        LOCFRAME IOVERLAY, 0, STATIC
        LOCFRAME DOVERLAY, 0, STATIC
        ARGFRAME ISTACK, 0, STACK
        ARGFRAME PSTACK, 0, STACK
        ARGFRAME XSTACK, 19, STACK
        ARGFRAME IOVERLAY, 0, STATIC
        ARGFRAME DOVERLAY, 0, STATIC
        FUNCALL MT_SysGetUtcTime, osal_getClock
        LOCFRAME ISTACK, 0, STACK
        LOCFRAME PSTACK, 0, STACK
        LOCFRAME XSTACK, 19, STACK
        LOCFRAME IOVERLAY, 0, STATIC
        LOCFRAME DOVERLAY, 0, STATIC
        ARGFRAME ISTACK, 0, STACK
        ARGFRAME PSTACK, 0, STACK
        ARGFRAME XSTACK, 19, STACK
        ARGFRAME IOVERLAY, 0, STATIC
        ARGFRAME DOVERLAY, 0, STATIC
        FUNCALL MT_SysGetUtcTime, osal_ConvertUTCTime
        LOCFRAME ISTACK, 0, STACK
        LOCFRAME PSTACK, 0, STACK
        LOCFRAME XSTACK, 23, STACK
        LOCFRAME IOVERLAY, 0, STATIC
        LOCFRAME DOVERLAY, 0, STATIC
        ARGFRAME ISTACK, 0, STACK
        ARGFRAME PSTACK, 0, STACK
        ARGFRAME XSTACK, 23, STACK
        ARGFRAME IOVERLAY, 0, STATIC
        ARGFRAME DOVERLAY, 0, STATIC
        FUNCALL MT_SysGetUtcTime, osal_buffer_uint32
        LOCFRAME ISTACK, 0, STACK
        LOCFRAME PSTACK, 0, STACK
        LOCFRAME XSTACK, 23, STACK
        LOCFRAME IOVERLAY, 0, STATIC
        LOCFRAME DOVERLAY, 0, STATIC
        ARGFRAME ISTACK, 0, STACK
        ARGFRAME PSTACK, 0, STACK
        ARGFRAME XSTACK, 23, STACK
        ARGFRAME IOVERLAY, 0, STATIC
        ARGFRAME DOVERLAY, 0, STATIC
        FUNCALL MT_SysGetUtcTime, MT_BuildAndSendZToolResponse
        LOCFRAME ISTACK, 0, STACK
        LOCFRAME PSTACK, 0, STACK
        LOCFRAME XSTACK, 19, STACK
        LOCFRAME IOVERLAY, 0, STATIC
        LOCFRAME DOVERLAY, 0, STATIC
        ARGFRAME ISTACK, 0, STACK
        ARGFRAME PSTACK, 0, STACK
        ARGFRAME XSTACK, 19, STACK
        ARGFRAME IOVERLAY, 0, STATIC
        ARGFRAME DOVERLAY, 0, STATIC
        FUNCALL MT_SysGetUtcTime, osal_mem_free
        LOCFRAME ISTACK, 0, STACK
        LOCFRAME PSTACK, 0, STACK
        LOCFRAME XSTACK, 19, STACK
        LOCFRAME IOVERLAY, 0, STATIC
        LOCFRAME DOVERLAY, 0, STATIC
        ARGFRAME ISTACK, 0, STACK
        ARGFRAME PSTACK, 0, STACK
        ARGFRAME XSTACK, 19, STACK
        ARGFRAME IOVERLAY, 0, STATIC
        ARGFRAME DOVERLAY, 0, STATIC
        MOV     A,#-0xc
        LCALL   ?BANKED_ENTER_XDATA
        CFI DPH0 load(1, XDATA, add(CFA_XSP16, literal(-1)))
        CFI DPL0 load(1, XDATA, add(CFA_XSP16, literal(-2)))
        CFI ?BRET_EXT load(1, XDATA, add(CFA_XSP16, literal(-3)))
        CFI ?RET_HIGH load(1, XDATA, add(CFA_XSP16, literal(-4)))
        CFI ?RET_LOW load(1, XDATA, add(CFA_XSP16, literal(-5)))
        CFI R7 load(1, XDATA, add(CFA_XSP16, literal(-6)))
        CFI V3 load(1, XDATA, add(CFA_XSP16, literal(-7)))
        CFI V2 load(1, XDATA, add(CFA_XSP16, literal(-8)))
        CFI V1 load(1, XDATA, add(CFA_XSP16, literal(-9)))
        CFI V0 load(1, XDATA, add(CFA_XSP16, literal(-10)))
        CFI VB load(1, XDATA, add(CFA_XSP16, literal(-11)))
        CFI R6 load(1, XDATA, add(CFA_XSP16, literal(-12)))
        CFI CFA_SP SP+0
        CFI CFA_XSP16 add(XSP16, 12)
        ; Saved register size: 12
        ; Auto size: 7
        MOV     A,#-0x7
        LCALL   ?ALLOC_XSTACK8
        CFI CFA_XSP16 add(XSP16, 19)
//  957   uint8 len;
//  958   uint8 *buf;
//  959 
//  960   len = sizeof( UTCTime ) + sizeof( UTCTimeStruct );
//  961 
//  962   buf = osal_mem_alloc( len );
        ; Setup parameters for call to function osal_mem_alloc
        MOV     R2,#0xb
        MOV     R3,#0x0
        LCALL   ??osal_mem_alloc?relay
        MOV     ?V0 + 0,R2
        MOV     ?V0 + 1,R3
        MOV     R6,?V0 + 0
        MOV     R7,?V0 + 1
//  963   if ( buf )
        MOV     A,R6
        ORL     A,R7
        JNZ     $+5
        LJMP    ??CrossCallReturnLabel_20 & 0xFFFF
//  964   {
//  965     uint8 *pBuf;
//  966     UTCTime utcSecs;
//  967     UTCTimeStruct utcTime;
//  968 
//  969     // Get current 32-bit UTC time and parse it
//  970     utcSecs = osal_getClock();
        ; Setup parameters for call to function osal_getClock
        LCALL   ??osal_getClock?relay
        MOV     ?V0 + 0,R2
        MOV     ?V0 + 1,R3
        MOV     ?V0 + 2,R4
        MOV     ?V0 + 3,R5
//  971     osal_ConvertUTCTime( &utcTime, utcSecs );
        ; Setup parameters for call to function osal_ConvertUTCTime
        MOV     R0,#?V0 + 0
        LCALL   ?PUSH_XSTACK_I_FOUR
        CFI CFA_XSP16 add(XSP16, 23)
        MOV     A,#0x4
        LCALL   ?XSTACK_DISP0_8
        MOV     R2,DPL
        MOV     R3,DPH
        LCALL   ??osal_ConvertUTCTime?relay
        MOV     A,#0x4
        LCALL   ?DEALLOC_XSTACK8
        CFI CFA_XSP16 add(XSP16, 19)
//  972 
//  973     // Start with 32-bit UTC time
//  974     pBuf = osal_buffer_uint32( buf, utcSecs );
        ; Setup parameters for call to function osal_buffer_uint32
        MOV     R0,#?V0 + 0
        LCALL   ?PUSH_XSTACK_I_FOUR
        CFI CFA_XSP16 add(XSP16, 23)
        MOV     A,R6
        MOV     R2,A
        MOV     A,R7
        MOV     R3,A
        LCALL   ??osal_buffer_uint32?relay
        MOV     A,#0x4
        LCALL   ?DEALLOC_XSTACK8
        CFI CFA_XSP16 add(XSP16, 19)
        MOV     ?V0 + 0,R2
        MOV     ?V0 + 1,R3
        MOV     R0,?V0 + 0
        MOV     R1,?V0 + 1
//  975 
//  976     // Concatenate parsed UTC time fields
//  977     *pBuf++ = utcTime.hour;
        MOV     A,#0x2
        LCALL   ?XSTACK_DISP0_8
        LCALL   ?Subroutine21 & 0xFFFF
??CrossCallReturnLabel_30:
        MOV     R0,DPL
        MOV     R1,DPH
//  978     *pBuf++ = utcTime.minutes;
        MOV     A,#0x1
        LCALL   ?XSTACK_DISP0_8
        LCALL   ?Subroutine6 & 0xFFFF
//  979     *pBuf++ = utcTime.seconds;
??CrossCallReturnLabel_4:
        MOV     DPL,?XSP + 0
        MOV     DPH,?XSP + 1
        LCALL   ?Subroutine6 & 0xFFFF
//  980     *pBuf++ = utcTime.month + 1;  // Convert to human numbers
??CrossCallReturnLabel_5:
        MOV     A,#0x4
        LCALL   ?XSTACK_DISP0_8
        LCALL   ?Subroutine8 & 0xFFFF
//  981     *pBuf++ = utcTime.day + 1;
??CrossCallReturnLabel_9:
        MOV     A,#0x3
        LCALL   ?XSTACK_DISP0_8
        LCALL   ?Subroutine8 & 0xFFFF
//  982     *pBuf++ = LO_UINT16( utcTime.year );
??CrossCallReturnLabel_10:
        MOV     A,#0x5
        LCALL   ?XSTACK_DISP0_8
        LCALL   ?Subroutine6 & 0xFFFF
//  983     *pBuf++ = HI_UINT16( utcTime.year );
??CrossCallReturnLabel_6:
        MOV     A,#0x5
        LCALL   ?XSTACK_DISP0_8
        INC     DPTR
        LCALL   ?Subroutine21 & 0xFFFF
//  984 
//  985     /* Build and send back the response */
//  986     MT_BuildAndSendZToolResponse(((uint8)MT_RPC_CMD_SRSP | (uint8)MT_RPC_SYS_SYS),
//  987                                    MT_SYS_GET_TIME, (uint8)(pBuf-buf), buf);
??CrossCallReturnLabel_31:
        ; Setup parameters for call to function MT_BuildAndSendZToolResponse
        MOV     A,R6
        MOV     R4,A
        MOV     A,R7
        MOV     R5,A
        MOV     A,R6
        MOV     R2,A
        MOV     A,DPL
        CLR     C
        SUBB    A,R2
        MOV     R3,A
        MOV     R2,#0x11
        LCALL   ?Subroutine16 & 0xFFFF
//  988 
//  989     osal_mem_free( buf );
//  990   }
//  991 }
??CrossCallReturnLabel_20:
        MOV     A,#0x7
        LCALL   ?DEALLOC_XSTACK8
        CFI CFA_XSP16 add(XSP16, 12)
        MOV     R7,#0x4
        LJMP    ?BANKED_LEAVE_XDATA
        CFI EndBlock cfiBlock111

        RSEG BANKED_CODE:CODE:NOROOT(0)
?Subroutine16:
        CFI Block cfiCond112 Using cfiCommon0
        CFI NoFunction
        CFI Conditional ??CrossCallReturnLabel_19
        CFI R6 load(1, XDATA, add(CFA_XSP16, literal(-16)))
        CFI VB load(1, XDATA, add(CFA_XSP16, literal(-15)))
        CFI V0 load(1, XDATA, add(CFA_XSP16, literal(-14)))
        CFI V1 load(1, XDATA, add(CFA_XSP16, literal(-13)))
        CFI V2 load(1, XDATA, add(CFA_XSP16, literal(-12)))
        CFI V3 load(1, XDATA, add(CFA_XSP16, literal(-11)))
        CFI V4 load(1, XDATA, add(CFA_XSP16, literal(-10)))
        CFI V5 load(1, XDATA, add(CFA_XSP16, literal(-9)))
        CFI V6 load(1, XDATA, add(CFA_XSP16, literal(-8)))
        CFI V7 load(1, XDATA, add(CFA_XSP16, literal(-7)))
        CFI R7 load(1, XDATA, add(CFA_XSP16, literal(-6)))
        CFI ?RET_LOW load(1, XDATA, add(CFA_XSP16, literal(-5)))
        CFI ?RET_HIGH load(1, XDATA, add(CFA_XSP16, literal(-4)))
        CFI ?BRET_EXT load(1, XDATA, add(CFA_XSP16, literal(-3)))
        CFI DPL0 load(1, XDATA, add(CFA_XSP16, literal(-2)))
        CFI DPH0 load(1, XDATA, add(CFA_XSP16, literal(-1)))
        CFI CFA_SP SP+0
        CFI CFA_XSP16 add(XSP16, 18)
        CFI Block cfiCond113 Using cfiCommon0
        CFI (cfiCond113) NoFunction
        CFI (cfiCond113) Conditional ??CrossCallReturnLabel_20
        CFI (cfiCond113) R6 load(1, XDATA, add(CFA_XSP16, literal(-12)))
        CFI (cfiCond113) VB load(1, XDATA, add(CFA_XSP16, literal(-11)))
        CFI (cfiCond113) V0 load(1, XDATA, add(CFA_XSP16, literal(-10)))
        CFI (cfiCond113) V1 load(1, XDATA, add(CFA_XSP16, literal(-9)))
        CFI (cfiCond113) V2 load(1, XDATA, add(CFA_XSP16, literal(-8)))
        CFI (cfiCond113) V3 load(1, XDATA, add(CFA_XSP16, literal(-7)))
        CFI (cfiCond113) R7 load(1, XDATA, add(CFA_XSP16, literal(-6)))
        CFI (cfiCond113) ?RET_LOW load(1, XDATA, add(CFA_XSP16, literal(-5)))
        CFI (cfiCond113) ?RET_HIGH load(1, XDATA, add(CFA_XSP16, literal(-4)))
        CFI (cfiCond113) ?BRET_EXT load(1, XDATA, add(CFA_XSP16, literal(-3)))
        CFI (cfiCond113) DPL0 load(1, XDATA, add(CFA_XSP16, literal(-2)))
        CFI (cfiCond113) DPH0 load(1, XDATA, add(CFA_XSP16, literal(-1)))
        CFI (cfiCond113) CFA_SP SP+0
        CFI (cfiCond113) CFA_XSP16 add(XSP16, 19)
        CFI Block cfiPicker114 Using cfiCommon1
        CFI (cfiPicker114) NoFunction
        CFI (cfiPicker114) Picker
        MOV     R1,#0x61
        LCALL   ??MT_BuildAndSendZToolResponse?relay
        ; Setup parameters for call to function osal_mem_free
        ; Setup parameters for call to function osal_mem_free
        MOV     A,R6
        MOV     R2,A
        MOV     A,R7
        MOV     R3,A
        LCALL   ??osal_mem_free?relay
        RET
        CFI EndBlock cfiCond112
        CFI EndBlock cfiCond113
        CFI EndBlock cfiPicker114

        RSEG BANKED_CODE:CODE:NOROOT(0)
?Subroutine8:
        CFI Block cfiCond115 Using cfiCommon0
        CFI NoFunction
        CFI Conditional ??CrossCallReturnLabel_9
        CFI R6 load(1, XDATA, add(CFA_XSP16, literal(-12)))
        CFI VB load(1, XDATA, add(CFA_XSP16, literal(-11)))
        CFI V0 load(1, XDATA, add(CFA_XSP16, literal(-10)))
        CFI V1 load(1, XDATA, add(CFA_XSP16, literal(-9)))
        CFI V2 load(1, XDATA, add(CFA_XSP16, literal(-8)))
        CFI V3 load(1, XDATA, add(CFA_XSP16, literal(-7)))
        CFI R7 load(1, XDATA, add(CFA_XSP16, literal(-6)))
        CFI ?RET_LOW load(1, XDATA, add(CFA_XSP16, literal(-5)))
        CFI ?RET_HIGH load(1, XDATA, add(CFA_XSP16, literal(-4)))
        CFI ?BRET_EXT load(1, XDATA, add(CFA_XSP16, literal(-3)))
        CFI DPL0 load(1, XDATA, add(CFA_XSP16, literal(-2)))
        CFI DPH0 load(1, XDATA, add(CFA_XSP16, literal(-1)))
        CFI CFA_SP SP+0
        CFI CFA_XSP16 add(XSP16, 19)
        CFI Block cfiCond116 Using cfiCommon0
        CFI (cfiCond116) NoFunction
        CFI (cfiCond116) Conditional ??CrossCallReturnLabel_10
        CFI (cfiCond116) R6 load(1, XDATA, add(CFA_XSP16, literal(-12)))
        CFI (cfiCond116) VB load(1, XDATA, add(CFA_XSP16, literal(-11)))
        CFI (cfiCond116) V0 load(1, XDATA, add(CFA_XSP16, literal(-10)))
        CFI (cfiCond116) V1 load(1, XDATA, add(CFA_XSP16, literal(-9)))
        CFI (cfiCond116) V2 load(1, XDATA, add(CFA_XSP16, literal(-8)))
        CFI (cfiCond116) V3 load(1, XDATA, add(CFA_XSP16, literal(-7)))
        CFI (cfiCond116) R7 load(1, XDATA, add(CFA_XSP16, literal(-6)))
        CFI (cfiCond116) ?RET_LOW load(1, XDATA, add(CFA_XSP16, literal(-5)))
        CFI (cfiCond116) ?RET_HIGH load(1, XDATA, add(CFA_XSP16, literal(-4)))
        CFI (cfiCond116) ?BRET_EXT load(1, XDATA, add(CFA_XSP16, literal(-3)))
        CFI (cfiCond116) DPL0 load(1, XDATA, add(CFA_XSP16, literal(-2)))
        CFI (cfiCond116) DPH0 load(1, XDATA, add(CFA_XSP16, literal(-1)))
        CFI (cfiCond116) CFA_SP SP+0
        CFI (cfiCond116) CFA_XSP16 add(XSP16, 19)
        CFI Block cfiPicker117 Using cfiCommon1
        CFI (cfiPicker117) NoFunction
        CFI (cfiPicker117) Picker
        MOVX    A,@DPTR
        INC     A
        MOV     DPL,R0
        MOV     DPH,R1
        MOVX    @DPTR,A
        INC     DPTR
        INC     R0
        MOV     R1,DPH
        RET
        CFI EndBlock cfiCond115
        CFI EndBlock cfiCond116
        CFI EndBlock cfiPicker117

        RSEG BANKED_CODE:CODE:NOROOT(0)
?Subroutine6:
        CFI Block cfiCond118 Using cfiCommon0
        CFI NoFunction
        CFI Conditional ??CrossCallReturnLabel_4
        CFI R6 load(1, XDATA, add(CFA_XSP16, literal(-12)))
        CFI VB load(1, XDATA, add(CFA_XSP16, literal(-11)))
        CFI V0 load(1, XDATA, add(CFA_XSP16, literal(-10)))
        CFI V1 load(1, XDATA, add(CFA_XSP16, literal(-9)))
        CFI V2 load(1, XDATA, add(CFA_XSP16, literal(-8)))
        CFI V3 load(1, XDATA, add(CFA_XSP16, literal(-7)))
        CFI R7 load(1, XDATA, add(CFA_XSP16, literal(-6)))
        CFI ?RET_LOW load(1, XDATA, add(CFA_XSP16, literal(-5)))
        CFI ?RET_HIGH load(1, XDATA, add(CFA_XSP16, literal(-4)))
        CFI ?BRET_EXT load(1, XDATA, add(CFA_XSP16, literal(-3)))
        CFI DPL0 load(1, XDATA, add(CFA_XSP16, literal(-2)))
        CFI DPH0 load(1, XDATA, add(CFA_XSP16, literal(-1)))
        CFI CFA_SP SP+0
        CFI CFA_XSP16 add(XSP16, 19)
        CFI Block cfiCond119 Using cfiCommon0
        CFI (cfiCond119) NoFunction
        CFI (cfiCond119) Conditional ??CrossCallReturnLabel_5
        CFI (cfiCond119) R6 load(1, XDATA, add(CFA_XSP16, literal(-12)))
        CFI (cfiCond119) VB load(1, XDATA, add(CFA_XSP16, literal(-11)))
        CFI (cfiCond119) V0 load(1, XDATA, add(CFA_XSP16, literal(-10)))
        CFI (cfiCond119) V1 load(1, XDATA, add(CFA_XSP16, literal(-9)))
        CFI (cfiCond119) V2 load(1, XDATA, add(CFA_XSP16, literal(-8)))
        CFI (cfiCond119) V3 load(1, XDATA, add(CFA_XSP16, literal(-7)))
        CFI (cfiCond119) R7 load(1, XDATA, add(CFA_XSP16, literal(-6)))
        CFI (cfiCond119) ?RET_LOW load(1, XDATA, add(CFA_XSP16, literal(-5)))
        CFI (cfiCond119) ?RET_HIGH load(1, XDATA, add(CFA_XSP16, literal(-4)))
        CFI (cfiCond119) ?BRET_EXT load(1, XDATA, add(CFA_XSP16, literal(-3)))
        CFI (cfiCond119) DPL0 load(1, XDATA, add(CFA_XSP16, literal(-2)))
        CFI (cfiCond119) DPH0 load(1, XDATA, add(CFA_XSP16, literal(-1)))
        CFI (cfiCond119) CFA_SP SP+0
        CFI (cfiCond119) CFA_XSP16 add(XSP16, 19)
        CFI Block cfiCond120 Using cfiCommon0
        CFI (cfiCond120) NoFunction
        CFI (cfiCond120) Conditional ??CrossCallReturnLabel_6
        CFI (cfiCond120) R6 load(1, XDATA, add(CFA_XSP16, literal(-12)))
        CFI (cfiCond120) VB load(1, XDATA, add(CFA_XSP16, literal(-11)))
        CFI (cfiCond120) V0 load(1, XDATA, add(CFA_XSP16, literal(-10)))
        CFI (cfiCond120) V1 load(1, XDATA, add(CFA_XSP16, literal(-9)))
        CFI (cfiCond120) V2 load(1, XDATA, add(CFA_XSP16, literal(-8)))
        CFI (cfiCond120) V3 load(1, XDATA, add(CFA_XSP16, literal(-7)))
        CFI (cfiCond120) R7 load(1, XDATA, add(CFA_XSP16, literal(-6)))
        CFI (cfiCond120) ?RET_LOW load(1, XDATA, add(CFA_XSP16, literal(-5)))
        CFI (cfiCond120) ?RET_HIGH load(1, XDATA, add(CFA_XSP16, literal(-4)))
        CFI (cfiCond120) ?BRET_EXT load(1, XDATA, add(CFA_XSP16, literal(-3)))
        CFI (cfiCond120) DPL0 load(1, XDATA, add(CFA_XSP16, literal(-2)))
        CFI (cfiCond120) DPH0 load(1, XDATA, add(CFA_XSP16, literal(-1)))
        CFI (cfiCond120) CFA_SP SP+0
        CFI (cfiCond120) CFA_XSP16 add(XSP16, 19)
        CFI Block cfiPicker121 Using cfiCommon1
        CFI (cfiPicker121) NoFunction
        CFI (cfiPicker121) Picker
        LCALL   ?Subroutine21 & 0xFFFF
??CrossCallReturnLabel_32:
        INC     R0
        MOV     R1,DPH
        RET
        CFI EndBlock cfiCond118
        CFI EndBlock cfiCond119
        CFI EndBlock cfiCond120
        CFI EndBlock cfiPicker121

        RSEG BANKED_CODE:CODE:NOROOT(0)
?Subroutine21:
        CFI Block cfiCond122 Using cfiCommon0
        CFI NoFunction
        CFI Conditional ??CrossCallReturnLabel_30
        CFI R6 load(1, XDATA, add(CFA_XSP16, literal(-12)))
        CFI VB load(1, XDATA, add(CFA_XSP16, literal(-11)))
        CFI V0 load(1, XDATA, add(CFA_XSP16, literal(-10)))
        CFI V1 load(1, XDATA, add(CFA_XSP16, literal(-9)))
        CFI V2 load(1, XDATA, add(CFA_XSP16, literal(-8)))
        CFI V3 load(1, XDATA, add(CFA_XSP16, literal(-7)))
        CFI R7 load(1, XDATA, add(CFA_XSP16, literal(-6)))
        CFI ?RET_LOW load(1, XDATA, add(CFA_XSP16, literal(-5)))
        CFI ?RET_HIGH load(1, XDATA, add(CFA_XSP16, literal(-4)))
        CFI ?BRET_EXT load(1, XDATA, add(CFA_XSP16, literal(-3)))
        CFI DPL0 load(1, XDATA, add(CFA_XSP16, literal(-2)))
        CFI DPH0 load(1, XDATA, add(CFA_XSP16, literal(-1)))
        CFI CFA_SP SP+0
        CFI CFA_XSP16 add(XSP16, 19)
        CFI Block cfiCond123 Using cfiCommon0
        CFI (cfiCond123) NoFunction
        CFI (cfiCond123) Conditional ??CrossCallReturnLabel_31
        CFI (cfiCond123) R6 load(1, XDATA, add(CFA_XSP16, literal(-12)))
        CFI (cfiCond123) VB load(1, XDATA, add(CFA_XSP16, literal(-11)))
        CFI (cfiCond123) V0 load(1, XDATA, add(CFA_XSP16, literal(-10)))
        CFI (cfiCond123) V1 load(1, XDATA, add(CFA_XSP16, literal(-9)))
        CFI (cfiCond123) V2 load(1, XDATA, add(CFA_XSP16, literal(-8)))
        CFI (cfiCond123) V3 load(1, XDATA, add(CFA_XSP16, literal(-7)))
        CFI (cfiCond123) R7 load(1, XDATA, add(CFA_XSP16, literal(-6)))
        CFI (cfiCond123) ?RET_LOW load(1, XDATA, add(CFA_XSP16, literal(-5)))
        CFI (cfiCond123) ?RET_HIGH load(1, XDATA, add(CFA_XSP16, literal(-4)))
        CFI (cfiCond123) ?BRET_EXT load(1, XDATA, add(CFA_XSP16, literal(-3)))
        CFI (cfiCond123) DPL0 load(1, XDATA, add(CFA_XSP16, literal(-2)))
        CFI (cfiCond123) DPH0 load(1, XDATA, add(CFA_XSP16, literal(-1)))
        CFI (cfiCond123) CFA_SP SP+0
        CFI (cfiCond123) CFA_XSP16 add(XSP16, 19)
        CFI Block cfiCond124 Using cfiCommon0
        CFI (cfiCond124) NoFunction
        CFI (cfiCond124) Conditional ??CrossCallReturnLabel_32, ??CrossCallReturnLabel_4
        CFI (cfiCond124) R6 load(1, XDATA, add(CFA_XSP16, literal(-12)))
        CFI (cfiCond124) VB load(1, XDATA, add(CFA_XSP16, literal(-11)))
        CFI (cfiCond124) V0 load(1, XDATA, add(CFA_XSP16, literal(-10)))
        CFI (cfiCond124) V1 load(1, XDATA, add(CFA_XSP16, literal(-9)))
        CFI (cfiCond124) V2 load(1, XDATA, add(CFA_XSP16, literal(-8)))
        CFI (cfiCond124) V3 load(1, XDATA, add(CFA_XSP16, literal(-7)))
        CFI (cfiCond124) R7 load(1, XDATA, add(CFA_XSP16, literal(-6)))
        CFI (cfiCond124) ?RET_LOW load(1, XDATA, add(CFA_XSP16, literal(-5)))
        CFI (cfiCond124) ?RET_HIGH load(1, XDATA, add(CFA_XSP16, literal(-4)))
        CFI (cfiCond124) ?BRET_EXT load(1, XDATA, add(CFA_XSP16, literal(-3)))
        CFI (cfiCond124) DPL0 load(1, XDATA, add(CFA_XSP16, literal(-2)))
        CFI (cfiCond124) DPH0 load(1, XDATA, add(CFA_XSP16, literal(-1)))
        CFI (cfiCond124) CFA_SP SP+0
        CFI (cfiCond124) CFA_XSP16 add(XSP16, 19)
        CFI Block cfiCond125 Using cfiCommon0
        CFI (cfiCond125) NoFunction
        CFI (cfiCond125) Conditional ??CrossCallReturnLabel_32, ??CrossCallReturnLabel_5
        CFI (cfiCond125) R6 load(1, XDATA, add(CFA_XSP16, literal(-12)))
        CFI (cfiCond125) VB load(1, XDATA, add(CFA_XSP16, literal(-11)))
        CFI (cfiCond125) V0 load(1, XDATA, add(CFA_XSP16, literal(-10)))
        CFI (cfiCond125) V1 load(1, XDATA, add(CFA_XSP16, literal(-9)))
        CFI (cfiCond125) V2 load(1, XDATA, add(CFA_XSP16, literal(-8)))
        CFI (cfiCond125) V3 load(1, XDATA, add(CFA_XSP16, literal(-7)))
        CFI (cfiCond125) R7 load(1, XDATA, add(CFA_XSP16, literal(-6)))
        CFI (cfiCond125) ?RET_LOW load(1, XDATA, add(CFA_XSP16, literal(-5)))
        CFI (cfiCond125) ?RET_HIGH load(1, XDATA, add(CFA_XSP16, literal(-4)))
        CFI (cfiCond125) ?BRET_EXT load(1, XDATA, add(CFA_XSP16, literal(-3)))
        CFI (cfiCond125) DPL0 load(1, XDATA, add(CFA_XSP16, literal(-2)))
        CFI (cfiCond125) DPH0 load(1, XDATA, add(CFA_XSP16, literal(-1)))
        CFI (cfiCond125) CFA_SP SP+0
        CFI (cfiCond125) CFA_XSP16 add(XSP16, 19)
        CFI Block cfiCond126 Using cfiCommon0
        CFI (cfiCond126) NoFunction
        CFI (cfiCond126) Conditional ??CrossCallReturnLabel_32, ??CrossCallReturnLabel_6
        CFI (cfiCond126) R6 load(1, XDATA, add(CFA_XSP16, literal(-12)))
        CFI (cfiCond126) VB load(1, XDATA, add(CFA_XSP16, literal(-11)))
        CFI (cfiCond126) V0 load(1, XDATA, add(CFA_XSP16, literal(-10)))
        CFI (cfiCond126) V1 load(1, XDATA, add(CFA_XSP16, literal(-9)))
        CFI (cfiCond126) V2 load(1, XDATA, add(CFA_XSP16, literal(-8)))
        CFI (cfiCond126) V3 load(1, XDATA, add(CFA_XSP16, literal(-7)))
        CFI (cfiCond126) R7 load(1, XDATA, add(CFA_XSP16, literal(-6)))
        CFI (cfiCond126) ?RET_LOW load(1, XDATA, add(CFA_XSP16, literal(-5)))
        CFI (cfiCond126) ?RET_HIGH load(1, XDATA, add(CFA_XSP16, literal(-4)))
        CFI (cfiCond126) ?BRET_EXT load(1, XDATA, add(CFA_XSP16, literal(-3)))
        CFI (cfiCond126) DPL0 load(1, XDATA, add(CFA_XSP16, literal(-2)))
        CFI (cfiCond126) DPH0 load(1, XDATA, add(CFA_XSP16, literal(-1)))
        CFI (cfiCond126) CFA_SP SP+0
        CFI (cfiCond126) CFA_XSP16 add(XSP16, 19)
        CFI Block cfiPicker127 Using cfiCommon1
        CFI (cfiPicker127) NoFunction
        CFI (cfiPicker127) Picker
        MOVX    A,@DPTR
        MOV     DPL,R0
        MOV     DPH,R1
        MOVX    @DPTR,A
        INC     DPTR
        RET
        CFI EndBlock cfiCond122
        CFI EndBlock cfiCond123
        CFI EndBlock cfiCond124
        CFI EndBlock cfiCond125
        CFI EndBlock cfiCond126
        CFI EndBlock cfiPicker127
//  992 
//  993 /***************************************************************************************************
//  994  * @fn      MT_SysSetTxPower
//  995  *
//  996  * @brief   Set the transmit power.
//  997  *
//  998  * @param   pBuf - MT message containing the ZMacTransmitPower_t power level to set.
//  999  *
// 1000  * @return  None
// 1001  ***************************************************************************************************/

        RSEG BANKED_CODE:CODE:NOROOT(0)
// 1002 void MT_SysSetTxPower(uint8 *pBuf)
MT_SysSetTxPower:
        CFI Block cfiBlock128 Using cfiCommon0
        CFI Function MT_SysSetTxPower
        CODE
// 1003 {
        FUNCALL MT_SysSetTxPower, macRadioSetTxPower
        LOCFRAME ISTACK, 2, STACK
        LOCFRAME PSTACK, 0, STACK
        LOCFRAME XSTACK, 2, STACK
        LOCFRAME IOVERLAY, 0, STATIC
        LOCFRAME DOVERLAY, 0, STATIC
        ARGFRAME ISTACK, 2, STACK
        ARGFRAME PSTACK, 0, STACK
        ARGFRAME XSTACK, 2, STACK
        ARGFRAME IOVERLAY, 0, STATIC
        ARGFRAME DOVERLAY, 0, STATIC
        FUNCALL MT_SysSetTxPower, MAC_MlmeSetReq
        LOCFRAME ISTACK, 2, STACK
        LOCFRAME PSTACK, 0, STACK
        LOCFRAME XSTACK, 2, STACK
        LOCFRAME IOVERLAY, 0, STATIC
        LOCFRAME DOVERLAY, 0, STATIC
        ARGFRAME ISTACK, 2, STACK
        ARGFRAME PSTACK, 0, STACK
        ARGFRAME XSTACK, 2, STACK
        ARGFRAME IOVERLAY, 0, STATIC
        ARGFRAME DOVERLAY, 0, STATIC
        FUNCALL MT_SysSetTxPower, MT_BuildAndSendZToolResponse
        LOCFRAME ISTACK, 2, STACK
        LOCFRAME PSTACK, 0, STACK
        LOCFRAME XSTACK, 2, STACK
        LOCFRAME IOVERLAY, 0, STATIC
        LOCFRAME DOVERLAY, 0, STATIC
        ARGFRAME ISTACK, 2, STACK
        ARGFRAME PSTACK, 0, STACK
        ARGFRAME XSTACK, 2, STACK
        ARGFRAME IOVERLAY, 0, STATIC
        ARGFRAME DOVERLAY, 0, STATIC
        PUSH    DPL
        CFI DPL0 Frame(CFA_SP, 4)
        CFI CFA_SP SP+-4
        PUSH    DPH
        CFI DPH0 Frame(CFA_SP, 5)
        CFI CFA_SP SP+-5
        ; Saved register size: 2
        ; Auto size: 2
        MOV     A,#-0x2
        LCALL   ?ALLOC_XSTACK8
        CFI CFA_XSP16 add(XSP16, 2)
// 1004   /* A local variable to hold the signed dBm value of TxPower that is being requested. */
// 1005   uint8 signed_dBm_of_TxPower_requeseted;
// 1006 
// 1007   /*
// 1008    * A local variable to hold the signed dBm value of TxPower that can be set which is closest to
// 1009    * the requested dBm value of TxPower, but which is also valid according to a complex set of
// 1010    * compile-time and run-time configuration which is interpreted by the macRadioSetTxPower()
// 1011    * function.
// 1012    */
// 1013   uint8 signed_dBm_of_TxPower_range_corrected;
// 1014 
// 1015   /* Parse the requested dBm from the RPC message. */
// 1016   signed_dBm_of_TxPower_requeseted = pBuf[MT_RPC_POS_DAT0];
        MOV     DPL,R2
        MOV     DPH,R3
        INC     DPTR
        INC     DPTR
        INC     DPTR
        MOVX    A,@DPTR
        MOV     DPL,?XSP + 0
        MOV     DPH,?XSP + 1
        MOVX    @DPTR,A
// 1017 
// 1018   /*
// 1019    * MAC_MlmeSetReq() will store an out-of-range dBm parameter value into the NIB. So it is not
// 1020    * possible to learn the actual dBm value that will be set by invoking MACMlmeGetReq().
// 1021    * But this actual dBm value is a required return value in the SRSP to this SREQ. Therefore,
// 1022    * it is necessary to make this redundant pre-call to macRadioSetTxPower() here in order to run
// 1023    * the code that will properly constrain the requested dBm to a valid range based on both the
// 1024    * compile-time and the run-time configurations that affect the available valid ranges
// 1025    * (i.e. MAC_MlmeSetReq() itself will invoke for a second time the macRadioSetTxPower() function).
// 1026    */
// 1027   signed_dBm_of_TxPower_range_corrected = macRadioSetTxPower(signed_dBm_of_TxPower_requeseted);
        ; Setup parameters for call to function macRadioSetTxPower
        MOV     R1,A
        LCALL   ??macRadioSetTxPower?relay
        MOV     A,#0x1
        LCALL   ?XSTACK_DISP0_8
        MOV     A,R1
        MOVX    @DPTR,A
// 1028 
// 1029   /*
// 1030    * Call the function to store the requested dBm in the MAC PIB and to set the TxPower as closely
// 1031    * as possible within the TxPower range that is valid for the compile-time and run-time
// 1032    * configuration.
// 1033    */
// 1034   (void)MAC_MlmeSetReq(MAC_PHY_TRANSMIT_POWER_SIGNED, &signed_dBm_of_TxPower_requeseted);
        ; Setup parameters for call to function MAC_MlmeSetReq
        MOV     DPL,?XSP + 0
        MOV     DPH,?XSP + 1
        MOV     R2,DPL
        MOV     R3,DPH
        MOV     R1,#-0x1b
        LCALL   ??MAC_MlmeSetReq?relay
// 1035 
// 1036   /* Build and send back the response that includes the actual dBm TxPower that can be set. */
// 1037   MT_BuildAndSendZToolResponse(((uint8)MT_RPC_CMD_SRSP | (uint8)MT_RPC_SYS_SYS),
// 1038                                        MT_SYS_SET_TX_POWER, 1,
// 1039                                        &signed_dBm_of_TxPower_range_corrected);
        ; Setup parameters for call to function MT_BuildAndSendZToolResponse
        MOV     A,#0x1
        LCALL   ?XSTACK_DISP0_8
        MOV     R4,DPL
        MOV     R5,DPH
        MOV     R3,#0x1
        MOV     R2,#0x14
        LJMP    ?Subroutine1 & 0xFFFF
        CFI EndBlock cfiBlock128
// 1040 }
// 1041 #endif /* MT_SYS_FUNC */
// 1042 
// 1043 /***************************************************************************************************
// 1044  * SUPPORT
// 1045  ***************************************************************************************************/
// 1046 
// 1047 /***************************************************************************************************
// 1048  * @fn      MT_SysResetInd()
// 1049  *
// 1050  * @brief   Sends a ZTOOL "reset response" message.
// 1051  *
// 1052  * @param   None
// 1053  *
// 1054  * @return  None
// 1055  *
// 1056  ***************************************************************************************************/

        RSEG BANKED_CODE:CODE:NOROOT(0)
// 1057 void MT_SysResetInd(void)
MT_SysResetInd:
        CFI Block cfiBlock129 Using cfiCommon0
        CFI Function MT_SysResetInd
        CODE
// 1058 {
        FUNCALL MT_SysResetInd, osal_memcpy
        LOCFRAME ISTACK, 0, STACK
        LOCFRAME PSTACK, 0, STACK
        LOCFRAME XSTACK, 20, STACK
        LOCFRAME IOVERLAY, 0, STATIC
        LOCFRAME DOVERLAY, 0, STATIC
        ARGFRAME ISTACK, 0, STACK
        ARGFRAME PSTACK, 0, STACK
        ARGFRAME XSTACK, 20, STACK
        ARGFRAME IOVERLAY, 0, STATIC
        ARGFRAME DOVERLAY, 0, STATIC
        FUNCALL MT_SysResetInd, MT_BuildAndSendZToolResponse
        LOCFRAME ISTACK, 0, STACK
        LOCFRAME PSTACK, 0, STACK
        LOCFRAME XSTACK, 17, STACK
        LOCFRAME IOVERLAY, 0, STATIC
        LOCFRAME DOVERLAY, 0, STATIC
        ARGFRAME ISTACK, 0, STACK
        ARGFRAME PSTACK, 0, STACK
        ARGFRAME XSTACK, 17, STACK
        ARGFRAME IOVERLAY, 0, STATIC
        ARGFRAME DOVERLAY, 0, STATIC
        MOV     A,#-0xb
        LCALL   ?BANKED_ENTER_XDATA
        CFI DPH0 load(1, XDATA, add(CFA_XSP16, literal(-1)))
        CFI DPL0 load(1, XDATA, add(CFA_XSP16, literal(-2)))
        CFI ?BRET_EXT load(1, XDATA, add(CFA_XSP16, literal(-3)))
        CFI ?RET_HIGH load(1, XDATA, add(CFA_XSP16, literal(-4)))
        CFI ?RET_LOW load(1, XDATA, add(CFA_XSP16, literal(-5)))
        CFI R7 load(1, XDATA, add(CFA_XSP16, literal(-6)))
        CFI V2 load(1, XDATA, add(CFA_XSP16, literal(-7)))
        CFI V1 load(1, XDATA, add(CFA_XSP16, literal(-8)))
        CFI V0 load(1, XDATA, add(CFA_XSP16, literal(-9)))
        CFI VB load(1, XDATA, add(CFA_XSP16, literal(-10)))
        CFI R6 load(1, XDATA, add(CFA_XSP16, literal(-11)))
        CFI CFA_SP SP+0
        CFI CFA_XSP16 add(XSP16, 11)
        ; Saved register size: 11
        ; Auto size: 6
        MOV     A,#-0x6
        LCALL   ?ALLOC_XSTACK8
        CFI CFA_XSP16 add(XSP16, 17)
// 1059   uint8 retArray[6];
// 1060 
// 1061   retArray[0] = ResetReason();   /* Reason */
        MOV     A,0x9d
        RRC     A
        RRC     A
        RRC     A
        ANL     A,#0x1f
        ANL     A,#0x3
        MOV     DPL,?XSP + 0
        MOV     DPH,?XSP + 1
        MOVX    @DPTR,A
// 1062   osal_memcpy( &retArray[1], MTVersionString, 5 );   /* Revision info */
        ; Setup parameters for call to function osal_memcpy
        MOV     ?V0 + 0,#MTVersionString & 0xff
        MOV     ?V0 + 1,#(MTVersionString >> 8) & 0xff
        MOV     ?V0 + 2,#0x0
        MOV     R0,#?V0 + 0
        LCALL   ?PUSH_XSTACK_I_THREE
        CFI CFA_XSP16 add(XSP16, 20)
        MOV     R4,#0x5
        MOV     R5,#0x0
        MOV     A,#0x4
        LCALL   ?XSTACK_DISP0_8
        MOV     R2,DPL
        MOV     R3,DPH
        LCALL   ??osal_memcpy?relay
        MOV     A,#0x3
        LCALL   ?DEALLOC_XSTACK8
        CFI CFA_XSP16 add(XSP16, 17)
// 1063 
// 1064   /* Send out Reset Response message */
// 1065   MT_BuildAndSendZToolResponse(((uint8)MT_RPC_CMD_AREQ | (uint8)MT_RPC_SYS_SYS), MT_SYS_RESET_IND,
// 1066                                 sizeof(retArray), retArray);
        ; Setup parameters for call to function MT_BuildAndSendZToolResponse
        MOV     DPL,?XSP + 0
        MOV     DPH,?XSP + 1
        MOV     R4,DPL
        MOV     R5,DPH
        MOV     R3,#0x6
        MOV     R2,#-0x80
        MOV     R1,#0x41
        LCALL   ??MT_BuildAndSendZToolResponse?relay
// 1067 }
        MOV     A,#0x6
        LCALL   ?DEALLOC_XSTACK8
        CFI CFA_XSP16 add(XSP16, 11)
        MOV     R7,#0x3
        LJMP    ?BANKED_LEAVE_XDATA
        CFI EndBlock cfiBlock129
        REQUIRE SLEEPSTA
// 1068 
// 1069 /***************************************************************************************************
// 1070  * @fn      MT_SysOsalTimerExpired()
// 1071  *
// 1072  * @brief   Sends a SYS Osal Timer Expired
// 1073  *
// 1074  * @param   None
// 1075  *
// 1076  * @return  None
// 1077  *
// 1078  ***************************************************************************************************/

        RSEG BANKED_CODE:CODE:NOROOT(0)
// 1079 void MT_SysOsalTimerExpired(uint8 Id)
MT_SysOsalTimerExpired:
        CFI Block cfiBlock130 Using cfiCommon0
        CFI Function MT_SysOsalTimerExpired
        CODE
// 1080 {
        FUNCALL MT_SysOsalTimerExpired, MT_BuildAndSendZToolResponse
        LOCFRAME ISTACK, 0, STACK
        LOCFRAME PSTACK, 0, STACK
        LOCFRAME XSTACK, 10, STACK
        LOCFRAME IOVERLAY, 0, STATIC
        LOCFRAME DOVERLAY, 0, STATIC
        ARGFRAME ISTACK, 0, STACK
        ARGFRAME PSTACK, 0, STACK
        ARGFRAME XSTACK, 10, STACK
        ARGFRAME IOVERLAY, 0, STATIC
        ARGFRAME DOVERLAY, 0, STATIC
        MOV     A,#-0x9
        LCALL   ?BANKED_ENTER_XDATA
        CFI DPH0 load(1, XDATA, add(CFA_XSP16, literal(-1)))
        CFI DPL0 load(1, XDATA, add(CFA_XSP16, literal(-2)))
        CFI ?BRET_EXT load(1, XDATA, add(CFA_XSP16, literal(-3)))
        CFI ?RET_HIGH load(1, XDATA, add(CFA_XSP16, literal(-4)))
        CFI ?RET_LOW load(1, XDATA, add(CFA_XSP16, literal(-5)))
        CFI R7 load(1, XDATA, add(CFA_XSP16, literal(-6)))
        CFI V0 load(1, XDATA, add(CFA_XSP16, literal(-7)))
        CFI VB load(1, XDATA, add(CFA_XSP16, literal(-8)))
        CFI R6 load(1, XDATA, add(CFA_XSP16, literal(-9)))
        CFI CFA_SP SP+0
        CFI CFA_XSP16 add(XSP16, 9)
        ; Saved register size: 9
        ; Auto size: 1
        MOV     A,#-0x1
        LCALL   ?ALLOC_XSTACK8
        CFI CFA_XSP16 add(XSP16, 10)
        LCALL   ?Subroutine12 & 0xFFFF
// 1081   uint8 retValue;
// 1082   retValue = Id;
// 1083   MT_BuildAndSendZToolResponse(((uint8)MT_RPC_CMD_AREQ | (uint8)MT_RPC_SYS_SYS), MT_SYS_OSAL_TIMER_EXPIRED, 1, &retValue);
??CrossCallReturnLabel_40:
        MOV     R2,#-0x7f
        MOV     R1,#0x41
        LJMP    ??Subroutine29_0 & 0xFFFF
        CFI EndBlock cfiBlock130

        RSEG BANK_RELAYS:CODE:REORDER:NOROOT(0)
??MT_SysCommandProcessing?relay:
        LCALL   ?BDISPATCH
        DATA
        DC24    MT_SysCommandProcessing

        RSEG BANK_RELAYS:CODE:REORDER:NOROOT(0)
??MT_SysReset?relay:
        LCALL   ?BDISPATCH
        DATA
        DC24    MT_SysReset

        RSEG BANK_RELAYS:CODE:REORDER:NOROOT(0)
??MT_SysPing?relay:
        LCALL   ?BDISPATCH
        DATA
        DC24    MT_SysPing

        RSEG BANK_RELAYS:CODE:REORDER:NOROOT(0)
??MT_SysVersion?relay:
        LCALL   ?BDISPATCH
        DATA
        DC24    MT_SysVersion

        RSEG BANK_RELAYS:CODE:REORDER:NOROOT(0)
??MT_SysSetExtAddr?relay:
        LCALL   ?BDISPATCH
        DATA
        DC24    MT_SysSetExtAddr

        RSEG BANK_RELAYS:CODE:REORDER:NOROOT(0)
??MT_SysGetExtAddr?relay:
        LCALL   ?BDISPATCH
        DATA
        DC24    MT_SysGetExtAddr

        RSEG BANK_RELAYS:CODE:REORDER:NOROOT(0)
??MT_SysOsalNVRead?relay:
        LCALL   ?BDISPATCH
        DATA
        DC24    MT_SysOsalNVRead

        RSEG BANK_RELAYS:CODE:REORDER:NOROOT(0)
??MT_SysOsalNVWrite?relay:
        LCALL   ?BDISPATCH
        DATA
        DC24    MT_SysOsalNVWrite

        RSEG BANK_RELAYS:CODE:REORDER:NOROOT(0)
??MT_SysOsalNVItemInit?relay:
        LCALL   ?BDISPATCH
        DATA
        DC24    MT_SysOsalNVItemInit

        RSEG BANK_RELAYS:CODE:REORDER:NOROOT(0)
??MT_SysOsalNVDelete?relay:
        LCALL   ?BDISPATCH
        DATA
        DC24    MT_SysOsalNVDelete

        RSEG BANK_RELAYS:CODE:REORDER:NOROOT(0)
??MT_SysOsalNVLength?relay:
        LCALL   ?BDISPATCH
        DATA
        DC24    MT_SysOsalNVLength

        RSEG BANK_RELAYS:CODE:REORDER:NOROOT(0)
??MT_SysOsalStartTimer?relay:
        LCALL   ?BDISPATCH
        DATA
        DC24    MT_SysOsalStartTimer

        RSEG BANK_RELAYS:CODE:REORDER:NOROOT(0)
??MT_SysOsalStopTimer?relay:
        LCALL   ?BDISPATCH
        DATA
        DC24    MT_SysOsalStopTimer

        RSEG BANK_RELAYS:CODE:REORDER:NOROOT(0)
??MT_SysRandom?relay:
        LCALL   ?BDISPATCH
        DATA
        DC24    MT_SysRandom

        RSEG BANK_RELAYS:CODE:REORDER:NOROOT(0)
??MT_SysAdcRead?relay:
        LCALL   ?BDISPATCH
        DATA
        DC24    MT_SysAdcRead

        RSEG BANK_RELAYS:CODE:REORDER:NOROOT(0)
??MT_SysGpio?relay:
        LCALL   ?BDISPATCH
        DATA
        DC24    MT_SysGpio

        RSEG BANK_RELAYS:CODE:REORDER:NOROOT(0)
??MT_SysStackTune?relay:
        LCALL   ?BDISPATCH
        DATA
        DC24    MT_SysStackTune

        RSEG BANK_RELAYS:CODE:REORDER:NOROOT(0)
??MT_SysSetUtcTime?relay:
        LCALL   ?BDISPATCH
        DATA
        DC24    MT_SysSetUtcTime

        RSEG BANK_RELAYS:CODE:REORDER:NOROOT(0)
??MT_SysGetUtcTime?relay:
        LCALL   ?BDISPATCH
        DATA
        DC24    MT_SysGetUtcTime

        RSEG BANK_RELAYS:CODE:REORDER:NOROOT(0)
??MT_SysSetTxPower?relay:
        LCALL   ?BDISPATCH
        DATA
        DC24    MT_SysSetTxPower

        RSEG BANK_RELAYS:CODE:REORDER:NOROOT(0)
??MT_SysResetInd?relay:
        LCALL   ?BDISPATCH
        DATA
        DC24    MT_SysResetInd

        RSEG BANK_RELAYS:CODE:REORDER:NOROOT(0)
??MT_SysOsalTimerExpired?relay:
        LCALL   ?BDISPATCH
        DATA
        DC24    MT_SysOsalTimerExpired

        RSEG XDATA_ROM_C:CONST:REORDER:NOROOT(0)
        DATA16
`?<Constant {2, 0}>`:
        DATA8
        DB 2
        DB 0

        RSEG XDATA_ROM_C:CONST:REORDER:NOROOT(0)
        DATA16
`?<Constant {2, 0}>_1`:
        DATA8
        DB 2
        DB 0

        END
// 1084 }
// 1085 
// 1086 /***************************************************************************************************
// 1087  ***************************************************************************************************/
// 
// 2 641 bytes in segment BANKED_CODE
//   132 bytes in segment BANK_RELAYS
//     3 bytes in segment SFR_AN
//    12 bytes in segment XDATA_ROM_C
// 
// 2 773 bytes of CODE  memory
//    12 bytes of CONST memory
//     0 bytes of DATA  memory (+ 3 bytes shared)
//
//Errors: none
//Warnings: none
