###############################################################################
#                                                                             #
# IAR C/C++ Compiler V8.10.1.10194/W32 for 8051         26/Dec/2019  19:08:11 #
# Copyright 2004-2011 IAR Systems AB.                                         #
#                                                                             #
#    Core               =  plain                                              #
#    Code model         =  banked                                             #
#    Data model         =  large                                              #
#    Calling convention =  xdata reentrant                                    #
#    Constant location  =  data_rom                                           #
#    Dptr setup         =  1,16                                               #
#    Source file        =  C:\Users\25814\Desktop\2020毕设\李政伟_森林火灾\硬 #
#                          件部分\Projects\zstack\Samples\SampleApp\Source\Sa #
#                          mpleApp.c                                          #
#    Command line       =  -f C:\Users\25814\Desktop\2020毕设\李政伟_森林火灾 #
#                          \硬件部分\Projects\zstack\Samples\SampleApp\CC2530 #
#                          DB\..\..\..\Tools\CC2530DB\f8wCoord.cfg            #
#                          (-DCPU32MHZ -DROOT=__near_func                     #
#                          -DMAC_CFG_APP_PENDING_QUEUE=TRUE                   #
#                          -DMAC_CFG_TX_DATA_MAX=5 -DMAC_CFG_TX_MAX=8         #
#                          -DMAC_CFG_RX_MAX=5 -DZDO_COORDINATOR -DRTR_NWK)    #
#                          -f C:\Users\25814\Desktop\2020毕设\李政伟_森林火灾 #
#                          \硬件部分\Projects\zstack\Samples\SampleApp\CC2530 #
#                          DB\..\..\..\Tools\CC2530DB\f8wConfig.cfg           #
#                          (-DZIGBEEPRO -DSECURE=0 -DZG_SECURE_DYNAMIC=0      #
#                          -DREFLECTOR -DDEFAULT_CHANLIST=0x00000800          #
#                          -DZDAPP_CONFIG_PAN_ID=0xFFF1                       #
#                          -DNWK_START_DELAY=100 -DEXTENDED_JOINING_RANDOM_MA #
#                          SK=0x007F -DBEACON_REQUEST_DELAY=100               #
#                          -DBEACON_REQ_DELAY_MASK=0x00FF                     #
#                          -DLINK_STATUS_JITTER_MASK=0x007F                   #
#                          -DROUTE_EXPIRY_TIME=30 -DAPSC_ACK_WAIT_DURATION_PO #
#                          LLED=3000 -DNWK_INDIRECT_MSG_TIMEOUT=7             #
#                          -DMAX_RREQ_ENTRIES=8 -DAPSC_MAX_FRAME_RETRIES=3    #
#                          -DNWK_MAX_DATA_RETRIES=2                           #
#                          -DMAX_POLL_FAILURE_RETRIES=2 -DMAX_BCAST=9         #
#                          -DAPS_MAX_GROUPS=16 -DMAX_RTG_ENTRIES=40           #
#                          -DNWK_MAX_BINDING_ENTRIES=4                        #
#                          -DMAX_BINDING_CLUSTER_IDS=4 "-DDEFAULT_KEY={0x01,  #
#                          0x03, 0x05, 0x07, 0x09, 0x0B, 0x0D, 0x0F, 0x00,    #
#                          0x02, 0x04, 0x06, 0x08, 0x0A, 0x0C, 0x0D}"         #
#                          -DMAC_MAX_FRAME_SIZE=116                           #
#                          -DZDNWKMGR_MIN_TRANSMISSIONS=20 "-DCONST=const     #
#                          __code" -DGENERIC=__generic                        #
#                          -DRFD_RCVC_ALWAYS_ON=FALSE -DPOLL_RATE=1000        #
#                          -DQUEUED_POLL_RATE=100 -DRESPONSE_POLL_RATE=100)   #
#                          -DREJOIN_POLL_RATE=440 C:\Users\25814\Desktop\2020 #
#                          毕设\李政伟_森林火灾\硬件部分\Projects\zstack\Samp #
#                          les\SampleApp\Source\SampleApp.c -D ZAPP_P1 -D     #
#                          MT_TASK -D MT_SYS_FUNC -D MT_ZDO_FUNC -D           #
#                          LCD_SUPPORTED=DEBUG -lC C:\Users\25814\Desktop\202 #
#                          0毕设\李政伟_森林火灾\硬件部分\Projects\zstack\Sam #
#                          ples\SampleApp\CC2530DB\CoordinatorEB\List\ -lA    #
#                          C:\Users\25814\Desktop\2020毕设\李政伟_森林火灾\硬 #
#                          件部分\Projects\zstack\Samples\SampleApp\CC2530DB\ #
#                          CoordinatorEB\List\ --diag_suppress Pe001,Pa010    #
#                          -o C:\Users\25814\Desktop\2020毕设\李政伟_森林火灾 #
#                          \硬件部分\Projects\zstack\Samples\SampleApp\CC2530 #
#                          DB\CoordinatorEB\Obj\ -e --no_code_motion --debug  #
#                          --core=plain --dptr=16,1 --data_model=large        #
#                          --code_model=banked --calling_convention=xdata_ree #
#                          ntrant --place_constants=data_rom                  #
#                          --nr_virtual_regs 16 -I C:\Users\25814\Desktop\202 #
#                          0毕设\李政伟_森林火灾\硬件部分\Projects\zstack\Sam #
#                          ples\SampleApp\CC2530DB\ -I                        #
#                          C:\Users\25814\Desktop\2020毕设\李政伟_森林火灾\硬 #
#                          件部分\Projects\zstack\Samples\SampleApp\CC2530DB\ #
#                          ..\Source\ -I C:\Users\25814\Desktop\2020毕设\李政 #
#                          伟_森林火灾\硬件部分\Projects\zstack\Samples\Sampl #
#                          eApp\CC2530DB\..\..\..\ZMain\TI2530DB\ -I          #
#                          C:\Users\25814\Desktop\2020毕设\李政伟_森林火灾\硬 #
#                          件部分\Projects\zstack\Samples\SampleApp\CC2530DB\ #
#                          ..\..\..\..\..\Components\hal\include\ -I          #
#                          C:\Users\25814\Desktop\2020毕设\李政伟_森林火灾\硬 #
#                          件部分\Projects\zstack\Samples\SampleApp\CC2530DB\ #
#                          ..\..\..\..\..\Components\hal\target\CC2530EB\ -I  #
#                          C:\Users\25814\Desktop\2020毕设\李政伟_森林火灾\硬 #
#                          件部分\Projects\zstack\Samples\SampleApp\CC2530DB\ #
#                          ..\..\..\..\..\Components\mac\include\ -I          #
#                          C:\Users\25814\Desktop\2020毕设\李政伟_森林火灾\硬 #
#                          件部分\Projects\zstack\Samples\SampleApp\CC2530DB\ #
#                          ..\..\..\..\..\Components\mac\high_level\ -I       #
#                          C:\Users\25814\Desktop\2020毕设\李政伟_森林火灾\硬 #
#                          件部分\Projects\zstack\Samples\SampleApp\CC2530DB\ #
#                          ..\..\..\..\..\Components\mac\low_level\srf04\ -I  #
#                          C:\Users\25814\Desktop\2020毕设\李政伟_森林火灾\硬 #
#                          件部分\Projects\zstack\Samples\SampleApp\CC2530DB\ #
#                          ..\..\..\..\..\Components\mac\low_level\srf04\sing #
#                          le_chip\ -I C:\Users\25814\Desktop\2020毕设\李政伟 #
#                          _森林火灾\硬件部分\Projects\zstack\Samples\SampleA #
#                          pp\CC2530DB\..\..\..\..\..\Components\mt\ -I       #
#                          C:\Users\25814\Desktop\2020毕设\李政伟_森林火灾\硬 #
#                          件部分\Projects\zstack\Samples\SampleApp\CC2530DB\ #
#                          ..\..\..\..\..\Components\osal\include\ -I         #
#                          C:\Users\25814\Desktop\2020毕设\李政伟_森林火灾\硬 #
#                          件部分\Projects\zstack\Samples\SampleApp\CC2530DB\ #
#                          ..\..\..\..\..\Components\services\saddr\ -I       #
#                          C:\Users\25814\Desktop\2020毕设\李政伟_森林火灾\硬 #
#                          件部分\Projects\zstack\Samples\SampleApp\CC2530DB\ #
#                          ..\..\..\..\..\Components\services\sdata\ -I       #
#                          C:\Users\25814\Desktop\2020毕设\李政伟_森林火灾\硬 #
#                          件部分\Projects\zstack\Samples\SampleApp\CC2530DB\ #
#                          ..\..\..\..\..\Components\stack\af\ -I             #
#                          C:\Users\25814\Desktop\2020毕设\李政伟_森林火灾\硬 #
#                          件部分\Projects\zstack\Samples\SampleApp\CC2530DB\ #
#                          ..\..\..\..\..\Components\stack\nwk\ -I            #
#                          C:\Users\25814\Desktop\2020毕设\李政伟_森林火灾\硬 #
#                          件部分\Projects\zstack\Samples\SampleApp\CC2530DB\ #
#                          ..\..\..\..\..\Components\stack\sapi\ -I           #
#                          C:\Users\25814\Desktop\2020毕设\李政伟_森林火灾\硬 #
#                          件部分\Projects\zstack\Samples\SampleApp\CC2530DB\ #
#                          ..\..\..\..\..\Components\stack\sec\ -I            #
#                          C:\Users\25814\Desktop\2020毕设\李政伟_森林火灾\硬 #
#                          件部分\Projects\zstack\Samples\SampleApp\CC2530DB\ #
#                          ..\..\..\..\..\Components\stack\sys\ -I            #
#                          C:\Users\25814\Desktop\2020毕设\李政伟_森林火灾\硬 #
#                          件部分\Projects\zstack\Samples\SampleApp\CC2530DB\ #
#                          ..\..\..\..\..\Components\stack\zdo\ -I            #
#                          C:\Users\25814\Desktop\2020毕设\李政伟_森林火灾\硬 #
#                          件部分\Projects\zstack\Samples\SampleApp\CC2530DB\ #
#                          ..\..\..\..\..\Components\zmac\ -I                 #
#                          C:\Users\25814\Desktop\2020毕设\李政伟_森林火灾\硬 #
#                          件部分\Projects\zstack\Samples\SampleApp\CC2530DB\ #
#                          ..\..\..\..\..\Components\zmac\f8w\ -Ohz           #
#    List file          =  C:\Users\25814\Desktop\2020毕设\李政伟_森林火灾\硬 #
#                          件部分\Projects\zstack\Samples\SampleApp\CC2530DB\ #
#                          CoordinatorEB\List\SampleApp.lst                   #
#    Object file        =  C:\Users\25814\Desktop\2020毕设\李政伟_森林火灾\硬 #
#                          件部分\Projects\zstack\Samples\SampleApp\CC2530DB\ #
#                          CoordinatorEB\Obj\SampleApp.r51                    #
#                                                                             #
#                                                                             #
###############################################################################

C:\Users\25814\Desktop\2020毕设\李政伟_森林火灾\硬件部分\Projects\zstack\Samples\SampleApp\Source\SampleApp.c
      1          /**************************************************************************************************
      2            Filename:       SampleApp.c
      3            Revised:        $Date: 2009-03-18 15:56:27 -0700 (Wed, 18 Mar 2009) $
      4            Revision:       $Revision: 19453 $
      5          
      6            Description:    Sample Application (no Profile).
      7          
      8          
      9            Copyright 2007 Texas Instruments Incorporated. All rights reserved.
     10          
     11            IMPORTANT: Your use of this Software is limited to those specific rights
     12            granted under the terms of a software license agreement between the user
     13            who downloaded the software, his/her employer (which must be your employer)
     14            and Texas Instruments Incorporated (the "License").  You may not use this
     15            Software unless you agree to abide by the terms of the License. The License
     16            limits your use, and you acknowledge, that the Software may not be modified,
     17            copied or distributed unless embedded on a Texas Instruments microcontroller
     18            or used solely and exclusively in conjunction with a Texas Instruments radio
     19            frequency transceiver, which is integrated into your product.  Other than for
     20            the foregoing purpose, you may not use, reproduce, copy, prepare derivative
     21            works of, modify, distribute, perform, display or sell this Software and/or
     22            its documentation for any purpose.
     23          
     24            YOU FURTHER ACKNOWLEDGE AND AGREE THAT THE SOFTWARE AND DOCUMENTATION ARE
     25            PROVIDED AS IS?WITHOUT WARRANTY OF ANY KIND, EITHER EXPRESS OR IMPLIED,
     26            INCLUDING WITHOUT LIMITATION, ANY WARRANTY OF MERCHANTABILITY, TITLE,
     27            NON-INFRINGEMENT AND FITNESS FOR A PARTICULAR PURPOSE. IN NO EVENT SHALL
     28            TEXAS INSTRUMENTS OR ITS LICENSORS BE LIABLE OR OBLIGATED UNDER CONTRACT,
     29            NEGLIGENCE, STRICT LIABILITY, CONTRIBUTION, BREACH OF WARRANTY, OR OTHER
     30            LEGAL EQUITABLE THEORY ANY DIRECT OR INDIRECT DAMAGES OR EXPENSES
     31            INCLUDING BUT NOT LIMITED TO ANY INCIDENTAL, SPECIAL, INDIRECT, PUNITIVE
     32            OR CONSEQUENTIAL DAMAGES, LOST PROFITS OR LOST DATA, COST OF PROCUREMENT
     33            OF SUBSTITUTE GOODS, TECHNOLOGY, SERVICES, OR ANY CLAIMS BY THIRD PARTIES
     34            (INCLUDING BUT NOT LIMITED TO ANY DEFENSE THEREOF), OR OTHER SIMILAR COSTS.
     35          
     36            Should you have any questions regarding your right to use this Software,
     37            contact Texas Instruments Incorporated at www.TI.com.
     38          **************************************************************************************************/
     39          
     40          /*********************************************************************
     41            This application isn't intended to do anything useful, it is
     42            intended to be a simple example of an application's structure.
     43          
     44            This application sends it's messages either as broadcast or
     45            broadcast filtered group messages.  The other (more normal)
     46            message addressing is unicast.  Most of the other sample
     47            applications are written to support the unicast message model.
     48          
     49            Key control:
     50              SW1:  Sends a flash command to all devices in Group 1.
     51              SW2:  Adds/Removes (toggles) this device in and out
     52                    of Group 1.  This will enable and disable the
     53                    reception of the flash command.
     54          *********************************************************************/
     55          
     56          /*********************************************************************
     57           * INCLUDES
     58           */
     59          #include "OSAL.h"
     60          #include "ZGlobals.h"
     61          #include "AF.h"
     62          #include "aps_groups.h"
     63          #include "ZDApp.h"
     64          
     65          #include "SampleApp.h"
     66          #include "SampleAppHw.h"
     67          
     68          #include "OnBoard.h"

   \                                 In  segment SFR_AN, at 0x88
   \   union <unnamed> volatile __sfr _A_TCON
   \                     _A_TCON:
   \   000000                DS 1

   \                                 In  segment SFR_AN, at 0x90
   \   union <unnamed> volatile __sfr _A_P1
   \                     _A_P1:
   \   000000                DS 1

   \                                 In  segment SFR_AN, at 0xb4
   \   unsigned char volatile __sfr ADCCON1
   \                     ADCCON1:
   \   000000                DS 1

   \                                 In  segment SFR_AN, at 0xb6
   \   unsigned char volatile __sfr ADCCON3
   \                     ADCCON3:
   \   000000                DS 1

   \                                 In  segment SFR_AN, at 0xba
   \   unsigned char volatile __sfr ADCL
   \                     ADCL:
   \   000000                DS 1

   \                                 In  segment SFR_AN, at 0xbb
   \   unsigned char volatile __sfr ADCH
   \                     ADCH:
   \   000000                DS 1

   \                                 In  segment SFR_AN, at 0xf2
   \   unsigned char volatile __sfr ADCCFG
   \                     ADCCFG:
   \   000000                DS 1

   \                                 In  segment SFR_AN, at 0xf3
   \   unsigned char volatile __sfr P0SEL
   \                     P0SEL:
   \   000000                DS 1

   \                                 In  segment SFR_AN, at 0xf4
   \   unsigned char volatile __sfr P1SEL
   \                     P1SEL:
   \   000000                DS 1

   \                                 In  segment SFR_AN, at 0xfd
   \   unsigned char volatile __sfr P0DIR
   \                     P0DIR:
   \   000000                DS 1

   \                                 In  segment SFR_AN, at 0xfe
   \   unsigned char volatile __sfr P1DIR
   \                     P1DIR:
   \   000000                DS 1
     69          
     70          /* HAL */
     71          #include "hal_lcd.h"
     72          #include "hal_led.h"
     73          #include "hal_key.h"
     74          #include "MT_UART.h"
     75          #include "MT_APP.h"
     76          #include "MT.h"
     77          
     78          #include <stdio.h>
     79          #include <string.h>
     80          
     81          //MY DEVICE
     82          #include "DHT11.h"
     83           
     84          
     85          /*********************************************************************
     86           * MACROS
     87           */
     88           
     89          #define GAS P0_6
     90          #define FIRE P1_1
     91          #define BEEP P1_2
     92          /*********************************************************************
     93           * CONSTANTS
     94           */
     95          
     96          /*********************************************************************
     97           * TYPEDEFS
     98           */
     99          
    100          /*********************************************************************
    101           * GLOBAL VARIABLES
    102           */

   \                                 In  segment XDATA_I, align 1, keep-with-next
    103          uint8 AppTitle[] = "ALD2530 Example"; //应用程序名称 
   \                     AppTitle:
   \   000000                DS 16
   \   000010                REQUIRE `?<Initializer for AppTitle>`
   \   000010                REQUIRE __INIT_XDATA_I

   \                                 In  segment XDATA_I, align 1, keep-with-next
    104          uint8 AutoBeep = 1;
   \                     AutoBeep:
   \   000000                DS 1
   \   000001                REQUIRE `?<Initializer for AutoBeep>`
   \   000001                REQUIRE __INIT_XDATA_I
    105          
    106          uint16 ReadGasData(void);
    107          uint16 ReadHumidityData(void);

   \                                 In  segment BANKED_CODE, align 1, keep-with-next
    108          void myDelay(){
   \                     myDelay:
   \   000000                ; Saved register size: 0
   \   000000                ; Auto size: 0
    109            for(int j =0;j<100;j++)
   \   000000   7A64         MOV     R2,#0x64
    110              for(int i = 0;i<0xffff;i++)
   \                     ??myDelay_0:
   \   000002   7800         MOV     R0,#0x0
   \   000004   7900         MOV     R1,#0x0
   \                     ??myDelay_1:
   \   000006   E8           MOV     A,R0
   \   000007   2401         ADD     A,#0x1
   \   000009   08           INC     R0
   \   00000A   E9           MOV     A,R1
   \   00000B   3400         ADDC    A,#0x0
   \   00000D   F9           MOV     R1,A
   \   00000E   74FF         MOV     A,#-0x1
   \   000010   68           XRL     A,R0
   \   000011   7003         JNZ     ??myDelay_2
   \   000013   74FF         MOV     A,#-0x1
   \   000015   69           XRL     A,R1
   \                     ??myDelay_2:
   \   000016   70EE         JNZ     ??myDelay_1
    111              {}
   \   000018   1A           DEC     R2
   \   000019   EA           MOV     A,R2
   \   00001A   70E6         JNZ     ??myDelay_0
    112          }
   \   00001C   02....       LJMP    ?BRET
    113          // This list should be filled with Application specific Cluster IDs.

   \                                 In  segment XDATA_ROM_C, align 1
    114          const cId_t SampleApp_ClusterList[SAMPLEAPP_MAX_CLUSTERS] =
   \                     SampleApp_ClusterList:
   \   000000   0100         DW 1
   \   000002   0200         DW 2
    115          {
    116            SAMPLEAPP_PERIODIC_CLUSTERID,
    117            SAMPLEAPP_FLASH_CLUSTERID
    118          };
    119          

   \                                 In  segment XDATA_ROM_C, align 1
    120          const SimpleDescriptionFormat_t SampleApp_SimpleDesc =
   \                     SampleApp_SimpleDesc:
   \   000000   14           DB 20
   \   000001   080F         DW 3848
   \   000003   0100         DW 1
   \   000005   00           DB 0
   \   000006   02           DB 2
   \   000007   ....         DW SampleApp_ClusterList
   \   000009   02           DB 2
   \   00000A   ....         DW SampleApp_ClusterList
    121          {
    122            SAMPLEAPP_ENDPOINT,              //  int Endpoint;
    123            SAMPLEAPP_PROFID,                //  uint16 AppProfId[2];
    124            SAMPLEAPP_DEVICEID,              //  uint16 AppDeviceId[2];
    125            SAMPLEAPP_DEVICE_VERSION,        //  int   AppDevVer:4;
    126            SAMPLEAPP_FLAGS,                 //  int   AppFlags:4;
    127            SAMPLEAPP_MAX_CLUSTERS,          //  uint8  AppNumInClusters;
    128            (cId_t *)SampleApp_ClusterList,  //  uint8 *pAppInClusterList;
    129            SAMPLEAPP_MAX_CLUSTERS,          //  uint8  AppNumInClusters;
    130            (cId_t *)SampleApp_ClusterList   //  uint8 *pAppInClusterList;
    131          };
    132          
    133          // This is the Endpoint/Interface description.  It is defined here, but
    134          // filled-in in SampleApp_Init().  Another way to go would be to fill
    135          // in the structure here and make it a "const" (in code space).  The
    136          // way it's defined in this sample app it is define in RAM.

   \                                 In  segment XDATA_Z, align 1, keep-with-next
    137          endPointDesc_t SampleApp_epDesc;
   \                     SampleApp_epDesc:
   \   000000                DS 6
   \   000006                REQUIRE __INIT_XDATA_Z
    138          
    139          /*********************************************************************
    140           * EXTERNAL VARIABLES
    141           */
    142          
    143          /*********************************************************************
    144           * EXTERNAL FUNCTIONS
    145           */
    146          
    147          /*********************************************************************
    148           * LOCAL VARIABLES
    149           */
    150          
    151          

   \                                 In  segment XDATA_Z, align 1, keep-with-next
    152          uint8 SampleApp_TaskID;   // Task ID for internal task/event processing
   \                     SampleApp_TaskID:
   \   000000                DS 1
   \   000001                REQUIRE __INIT_XDATA_Z
    153                                    // This variable will be received when
    154                                    // SampleApp_Init() is called.

   \                                 In  segment XDATA_Z, align 1, keep-with-next
    155          devStates_t SampleApp_NwkState;
   \                     SampleApp_NwkState:
   \   000000                DS 1
   \   000001                REQUIRE __INIT_XDATA_Z
    156          

   \                                 In  segment XDATA_Z, align 1, keep-with-next
    157          uint8 SampleApp_TransID;  // This is the unique message ID (counter)
   \                     SampleApp_TransID:
   \   000000                DS 1
   \   000001                REQUIRE __INIT_XDATA_Z
    158          

   \                                 In  segment XDATA_Z, align 1, keep-with-next
    159          afAddrType_t SampleApp_Periodic_DstAddr;
   \                     SampleApp_Periodic_DstAddr:
   \   000000                DS 12
   \   00000C                REQUIRE __INIT_XDATA_Z

   \                                 In  segment XDATA_Z, align 1, keep-with-next
    160          afAddrType_t SampleApp_Flash_DstAddr;
   \                     SampleApp_Flash_DstAddr:
   \   000000                DS 12
   \   00000C                REQUIRE __INIT_XDATA_Z
    161          

   \                                 In  segment XDATA_Z, align 1, keep-with-next
    162          aps_Group_t SampleApp_Group;
   \                     SampleApp_Group:
   \   000000                DS 18
   \   000012                REQUIRE __INIT_XDATA_Z
    163          

   \                                 In  segment XDATA_Z, align 1, keep-with-next
    164          uint8 SampleAppPeriodicCounter = 0;
   \                     SampleAppPeriodicCounter:
   \   000000                DS 1
   \   000001                REQUIRE __INIT_XDATA_Z

   \                                 In  segment XDATA_Z, align 1, keep-with-next
    165          uint8 SampleAppFlashCounter = 0;
   \                     SampleAppFlashCounter:
   \   000000                DS 1
   \   000001                REQUIRE __INIT_XDATA_Z
    166          
    167           
    168          /*********************************************************************
    169           * LOCAL FUNCTIONS
    170           */
    171          void SampleApp_HandleKeys( uint8 shift, uint8 keys );
    172          void SampleApp_MessageMSGCB( afIncomingMSGPacket_t *pckt );
    173          void SampleApp_SendPeriodicMessage( void );
    174          void SampleApp_SendFlashMessage( uint16 flashTime );
    175          void SampleApp_Send_P2P_Message(void);
    176          /*********************************************************************
    177           * NETWORK LAYER CALLBACKS
    178           */
    179          
    180          /*********************************************************************
    181           * PUBLIC FUNCTIONS
    182           */
    183           
    184          /*********************************************************************
    185           * @fn      SampleApp_Init
    186           *
    187           * @brief   Initialization function for the Generic App Task.
    188           *          This is called during initialization and should contain
    189           *          any application specific initialization (ie. hardware
    190           *          initialization/setup, table initialization, power up
    191           *          notificaiton ... ).
    192           *
    193           * @param   task_id - the ID assigned by OSAL.  This ID should be
    194           *                    used to send messages and set timers.
    195           *
    196           * @return  none
    197           */
    198          

   \                                 In  segment BANKED_CODE, align 1, keep-with-next
    199          void SampleApp_Init( uint8 task_id )
   \                     SampleApp_Init:
    200          { 
   \   000000   74F5         MOV     A,#-0xb
   \   000002   12....       LCALL   ?BANKED_ENTER_XDATA
   \   000005                ; Saved register size: 11
   \   000005                ; Auto size: 0
   \   000005   E9           MOV     A,R1
   \   000006   FE           MOV     R6,A
    201            
    202           
    203            SampleApp_TaskID = task_id;   //osal分配的任务ID随着用户添加任务的增多而改变
   \   000007   90....       MOV     DPTR,#SampleApp_TaskID
   \   00000A   F0           MOVX    @DPTR,A
    204            SampleApp_NwkState = DEV_INIT;//设备状态设定为ZDO层中定义的初始化状态
   \   00000B   90....       MOV     DPTR,#SampleApp_NwkState
   \   00000E   7401         MOV     A,#0x1
   \   000010   F0           MOVX    @DPTR,A
    205            SampleApp_TransID = 0;        //消息发送ID（多消息时有顺序之分）
   \   000011   90....       MOV     DPTR,#SampleApp_TransID
   \   000014   E4           CLR     A
   \   000015   F0           MOVX    @DPTR,A
    206            //模块初始化
    207            P0SEL&=~0x40;
   \   000016   53F3BF       ANL     0xf3,#0xbf
    208            P0DIR&=~0x40;//初始化气体
   \   000019   53FDBF       ANL     0xfd,#0xbf
    209            P1SEL&=~0x2;
   \   00001C   53F4FD       ANL     0xf4,#0xfd
    210            P1DIR&=~0x2;//初始化火焰 p1_1
   \   00001F   53FEFD       ANL     0xfe,#0xfd
    211            P0SEL &= ~0x20;                 //设置P0.5为普通IO口 土壤湿度
   \   000022   53F3DF       ANL     0xf3,#0xdf
    212            P0DIR &= ~0x20;                 //P0.5定义为输入口
   \   000025   53FDDF       ANL     0xfd,#0xdf
    213          #ifdef ZDO_COORDINATOR
    214            P1DIR |=0x04;//协调器端蜂鸣器
   \   000028   43FE04       ORL     0xfe,#0x4
    215          #endif
    216            //串口配置
    217            MT_UartInit();
   \   00002B                ; Setup parameters for call to function MT_UartInit
   \   00002B   12....       LCALL   ??MT_UartInit?relay
    218            MT_UartRegisterTaskID(task_id);  
   \   00002E                ; Setup parameters for call to function MT_UartRegisterTaskID
   \   00002E   EE           MOV     A,R6
   \   00002F   F9           MOV     R1,A
   \   000030   12....       LCALL   ??MT_UartRegisterTaskID?relay
    219            HalUARTWrite(0,"UartInit OK\n", sizeof("UartInit OK\n")); 
   \   000033                ; Setup parameters for call to function HalUARTWrite
   \   000033   7C0D         MOV     R4,#0xd
   \   000035   7D00         MOV     R5,#0x0
   \   000037   7A..         MOV     R2,#`?<Constant "UartInit OK\\n">` & 0xff
   \   000039   7B..         MOV     R3,#(`?<Constant "UartInit OK\\n">` >> 8) & 0xff
   \   00003B   7900         MOV     R1,#0x0
   \   00003D   12....       LCALL   ??HalUARTWrite?relay
    220            
    221          
    222            // Device hardware initialization can be added here or in main() (Zmain.c).
    223            // If the hardware is application specific - add it here.
    224            // If the hardware is other parts of the device add it in main().
    225          
    226          #if defined ( BUILD_ALL_DEVICES )
    227            // The "Demo" target is setup to have BUILD_ALL_DEVICES and HOLD_AUTO_START
    228            // We are looking at a jumper (defined in SampleAppHw.c) to be jumpered
    229            // together - if they are - we will start up a coordinator. Otherwise,
    230            // the device will start as a router.
    231            if ( readCoordinatorJumper() )
    232              zgDeviceLogicalType = ZG_DEVICETYPE_COORDINATOR;
    233            else
    234              zgDeviceLogicalType = ZG_DEVICETYPE_ROUTER;
    235          #endif // BUILD_ALL_DEVICES
    236          
    237          //该段的意思是，如果设置了HOLD_AUTO_START宏定义，将会在启动芯片的时候会暂停启动
    238          //流程，只有外部触发以后才会启动芯片。其实就是需要一个按钮触发它的启动流程。  
    239          #if defined ( HOLD_AUTO_START )
    240            // HOLD_AUTO_START is a compile option that will surpress ZDApp
    241            //  from starting the device and wait for the application to
    242            //  start the device.
    243            ZDOInitDevice(0);
    244          #endif
    245          
    246            // Setup for the periodic message's destination address 设置发送数据的方式和目的地址寻址模式
    247            // Broadcast to everyone 发送模式:广播发送
    248            SampleApp_Periodic_DstAddr.addrMode = (afAddrMode_t)AddrBroadcast;//广播
   \   000040   90....       MOV     DPTR,#SampleApp_Periodic_DstAddr + 8
   \   000043   740F         MOV     A,#0xf
   \   000045   F0           MOVX    @DPTR,A
    249            SampleApp_Periodic_DstAddr.endPoint = SAMPLEAPP_ENDPOINT; //指定端点号
   \   000046   A3           INC     DPTR
   \   000047   7414         MOV     A,#0x14
   \   000049   F0           MOVX    @DPTR,A
    250            SampleApp_Periodic_DstAddr.addr.shortAddr = 0xFFFF;//指定目的网络地址为广播地址
   \   00004A   90....       MOV     DPTR,#SampleApp_Periodic_DstAddr
   \   00004D   74FF         MOV     A,#-0x1
   \   00004F   F0           MOVX    @DPTR,A
   \   000050   A3           INC     DPTR
   \   000051   F0           MOVX    @DPTR,A
    251          
    252            // Setup for the flash command's destination address - Group 1 组播发送
    253            SampleApp_Flash_DstAddr.addrMode = (afAddrMode_t)afAddrGroup; //组寻址
   \   000052   90....       MOV     DPTR,#SampleApp_Flash_DstAddr + 8
   \   000055   7401         MOV     A,#0x1
   \   000057   F0           MOVX    @DPTR,A
    254            SampleApp_Flash_DstAddr.endPoint = SAMPLEAPP_ENDPOINT; //指定端点号
   \   000058   A3           INC     DPTR
   \   000059   7414         MOV     A,#0x14
   \   00005B   F0           MOVX    @DPTR,A
    255            SampleApp_Flash_DstAddr.addr.shortAddr = SAMPLEAPP_FLASH_GROUP;//组号0x0001
   \   00005C   90....       MOV     DPTR,#SampleApp_Flash_DstAddr
   \   00005F   7401         MOV     A,#0x1
   \   000061   F0           MOVX    @DPTR,A
   \   000062   A3           INC     DPTR
   \   000063   E4           CLR     A
   \   000064   F0           MOVX    @DPTR,A
    256          
    257            // Fill out the endpoint description. 定义本设备用来通信的APS层端点描述符
    258            SampleApp_epDesc.endPoint = SAMPLEAPP_ENDPOINT; //指定端点号
   \   000065   90....       MOV     DPTR,#SampleApp_epDesc
   \   000068   7414         MOV     A,#0x14
   \   00006A   F0           MOVX    @DPTR,A
    259            SampleApp_epDesc.task_id = &SampleApp_TaskID;   //SampleApp 描述符的任务ID
   \   00006B   A3           INC     DPTR
   \   00006C   74..         MOV     A,#SampleApp_TaskID & 0xff
   \   00006E   F0           MOVX    @DPTR,A
   \   00006F   A3           INC     DPTR
   \   000070   74..         MOV     A,#(SampleApp_TaskID >> 8) & 0xff
   \   000072   F0           MOVX    @DPTR,A
    260            SampleApp_epDesc.simpleDesc
    261                      = (SimpleDescriptionFormat_t *)&SampleApp_SimpleDesc;//SampleApp简单描述符
   \   000073   A3           INC     DPTR
   \   000074   74..         MOV     A,#SampleApp_SimpleDesc & 0xff
   \   000076   F0           MOVX    @DPTR,A
   \   000077   A3           INC     DPTR
   \   000078   74..         MOV     A,#(SampleApp_SimpleDesc >> 8) & 0xff
   \   00007A   F0           MOVX    @DPTR,A
    262            SampleApp_epDesc.latencyReq = noLatencyReqs;    //延时策略
   \   00007B   A3           INC     DPTR
   \   00007C   E4           CLR     A
   \   00007D   F0           MOVX    @DPTR,A
    263          
    264            // Register the endpoint description with the AF
    265            afRegister( &SampleApp_epDesc );    //向AF层登记描述符
   \   00007E                ; Setup parameters for call to function afRegister
   \   00007E   7A..         MOV     R2,#SampleApp_epDesc & 0xff
   \   000080   7B..         MOV     R3,#(SampleApp_epDesc >> 8) & 0xff
   \   000082   12....       LCALL   ??afRegister?relay
    266          
    267            // Register for all key events - This app will handle all key events
    268            RegisterForKeys( SampleApp_TaskID ); // 登记所有的按键事件
   \   000085                ; Setup parameters for call to function RegisterForKeys
   \   000085   90....       MOV     DPTR,#SampleApp_TaskID
   \   000088   E0           MOVX    A,@DPTR
   \   000089   F9           MOV     R1,A
   \   00008A   12....       LCALL   ??RegisterForKeys?relay
    269          
    270            // By default, all devices start out in Group 1
    271            SampleApp_Group.ID = 0x0001;//组号
   \   00008D   90....       MOV     DPTR,#SampleApp_Group
   \   000090   7401         MOV     A,#0x1
   \   000092   F0           MOVX    @DPTR,A
   \   000093   A3           INC     DPTR
   \   000094   E4           CLR     A
   \   000095   F0           MOVX    @DPTR,A
    272            osal_memcpy( SampleApp_Group.name, "Group 1", 7  );//设定组名
   \   000096                ; Setup parameters for call to function osal_memcpy
   \   000096   75....       MOV     ?V0 + 0,#`?<Constant "Group 1">` & 0xff
   \   000099   75....       MOV     ?V0 + 1,#(`?<Constant "Group 1">` >> 8) & 0xff
   \   00009C   F5..         MOV     ?V0 + 2,A
   \   00009E   78..         MOV     R0,#?V0 + 0
   \   0000A0   12....       LCALL   ?PUSH_XSTACK_I_THREE
   \   0000A3   7C07         MOV     R4,#0x7
   \   0000A5   7D00         MOV     R5,#0x0
   \   0000A7   7A..         MOV     R2,#(SampleApp_Group + 2) & 0xff
   \   0000A9   7B..         MOV     R3,#((SampleApp_Group + 2) >> 8) & 0xff
   \   0000AB   12....       LCALL   ??osal_memcpy?relay
   \   0000AE   7403         MOV     A,#0x3
   \   0000B0   12....       LCALL   ?DEALLOC_XSTACK8
    273            aps_AddGroup( SAMPLEAPP_ENDPOINT, &SampleApp_Group );//把该组登记添加到APS中
   \   0000B3                ; Setup parameters for call to function aps_AddGroup
   \   0000B3   7A..         MOV     R2,#SampleApp_Group & 0xff
   \   0000B5   7B..         MOV     R3,#(SampleApp_Group >> 8) & 0xff
   \   0000B7   7914         MOV     R1,#0x14
   \   0000B9   12....       LCALL   ??aps_AddGroup?relay
    274          
    275          #if defined ( LCD_SUPPORTED )
    276            HalLcdWriteString( "SampleApp", HAL_LCD_LINE_1 ); //如果支持LCD，显示提示信息
   \   0000BC                ; Setup parameters for call to function HalLcdWriteString
   \   0000BC   7900         MOV     R1,#0x0
   \   0000BE   7A..         MOV     R2,#`?<Constant "SampleApp">` & 0xff
   \   0000C0   7B..         MOV     R3,#(`?<Constant "SampleApp">` >> 8) & 0xff
   \   0000C2   12....       LCALL   ??HalLcdWriteString?relay
    277          #endif
    278          }
   \   0000C5                REQUIRE ?Subroutine1
   \   0000C5                REQUIRE P0SEL
   \   0000C5                REQUIRE P0DIR
   \   0000C5                REQUIRE P1SEL
   \   0000C5                REQUIRE P1DIR
   \   0000C5                ; // Fall through to label ?Subroutine1

   \                                 In  segment BANKED_CODE, align 1, keep-with-next
   \                     ?Subroutine1:
   \   000000   7F03         MOV     R7,#0x3
   \   000002   02....       LJMP    ?BANKED_LEAVE_XDATA
    279          
    280          /*********************************************************************
    281           * @fn      SampleApp_ProcessEvent
    282           *
    283           * @brief   Generic Application Task event processor.  This function
    284           *          is called to process all events for the task.  Events
    285           *          include timers, messages and any other user defined events.
    286           *
    287           * @param   task_id  - The OSAL assigned task ID.
    288           * @param   events - events to process.  This is a bit map and can
    289           *                   contain more than one event.
    290           *
    291           * @return  none
    292           */
    293          //用户应用任务的事件处理函数

   \                                 In  segment BANKED_CODE, align 1, keep-with-next
    294          uint16 SampleApp_ProcessEvent( uint8 task_id, uint16 events )
   \                     SampleApp_ProcessEvent:
    295          {
   \   000000   74F4         MOV     A,#-0xc
   \   000002   12....       LCALL   ?BANKED_ENTER_XDATA
   \   000005                ; Saved register size: 12
   \   000005                ; Auto size: 0
   \   000005   EA           MOV     A,R2
   \   000006   FE           MOV     R6,A
   \   000007   EB           MOV     A,R3
   \   000008   FF           MOV     R7,A
    296            afIncomingMSGPacket_t *MSGpkt;
    297            (void)task_id;  // Intentionally unreferenced parameter
    298          
    299            if ( events & SYS_EVENT_MSG ) //接收系统消息再进行判断
   \   000009   5480         ANL     A,#0x80
   \   00000B   6074         JZ      ??SampleApp_ProcessEvent_0
    300            {
    301              //接收属于本应用任务SampleApp的消息，以SampleApp_TaskID标记
    302              MSGpkt = (afIncomingMSGPacket_t *)osal_msg_receive( SampleApp_TaskID );
   \   00000D                ; Setup parameters for call to function osal_msg_receive
   \   00000D   8026         SJMP    ??SampleApp_ProcessEvent_1
    303              while ( MSGpkt )
    304              {
    305                switch ( MSGpkt->hdr.event )
    306                {
    307                  // Received when a key is pressed
    308                  case KEY_CHANGE://按键事件
    309                    SampleApp_HandleKeys( ((keyChange_t *)MSGpkt)->state, ((keyChange_t *)MSGpkt)->keys );
    310                    break;
    311          
    312                  // Received when a messages is received (OTA) for this endpoint
    313                case AF_INCOMING_MSG_CMD://接收数据事件,调用函数AF_DataRequest()接收数据
    314                    SampleApp_MessageMSGCB( MSGpkt );//调用回调函数对收到的数据进行处理
    315                    break;
    316          
    317                  // Received whenever the device changes state in the network
    318                  case ZDO_STATE_CHANGE:
    319                    //只要网络状态发生改变，就通过ZDO_STATE_CHANGE事件通知所有的任务。
    320                    //同时完成对协调器，路由器，终端的设置
    321                    SampleApp_NwkState = (devStates_t)(MSGpkt->hdr.status);
   \                     ??SampleApp_ProcessEvent_2:
   \   00000F   A3           INC     DPTR
   \   000010   E0           MOVX    A,@DPTR
   \   000011   90....       MOV     DPTR,#SampleApp_NwkState
   \   000014   F0           MOVX    @DPTR,A
    322                    //if ( (SampleApp_NwkState == DEV_ZB_COORD)//实验中协调器只接收数据所以取消发送事件
    323                    if ( (SampleApp_NwkState == DEV_ROUTER) || (SampleApp_NwkState == DEV_END_DEVICE) )
   \   000015   6407         XRL     A,#0x7
   \   000017   6005         JZ      ??SampleApp_ProcessEvent_3
   \   000019   E0           MOVX    A,@DPTR
   \   00001A   6406         XRL     A,#0x6
   \   00001C   7010         JNZ     ??SampleApp_ProcessEvent_4
    324                    {
    325                      // Start sending the periodic message in a regular interval.
    326                      //这个定时器只是为发送周期信息开启的，设备启动初始化后从这里开始
    327                      //触发第一个周期信息的发送，然后周而复始下去
    328                      osal_start_timerEx( SampleApp_TaskID,
    329                                        SAMPLEAPP_SEND_PERIODIC_MSG_EVT,
    330                                        SAMPLEAPP_SEND_PERIODIC_MSG_TIMEOUT );
   \                     ??SampleApp_ProcessEvent_3:
   \   00001E                ; Setup parameters for call to function osal_start_timerEx
   \   00001E   7CE8         MOV     R4,#-0x18
   \   000020   7D03         MOV     R5,#0x3
   \   000022   7A01         MOV     R2,#0x1
   \   000024   7B00         MOV     R3,#0x0
   \   000026   90....       MOV     DPTR,#SampleApp_TaskID
   \   000029   E0           MOVX    A,@DPTR
   \   00002A   F9           MOV     R1,A
   \   00002B   12....       LCALL   ??osal_start_timerEx?relay
    331                     
    332                    }
    333                    else
    334                    {
    335                        
    336                    }
    337                    break;
    338          
    339                  default:
    340                    break;
    341                }
    342          
    343                // Release the memory 事件处理完了，释放消息占用的内存
    344                osal_msg_deallocate( (uint8 *)MSGpkt );
   \                     ??SampleApp_ProcessEvent_4:
   \   00002E                ; Setup parameters for call to function osal_msg_deallocate
   \   00002E   AA..         MOV     R2,?V0 + 0
   \   000030   AB..         MOV     R3,?V0 + 1
   \   000032   12....       LCALL   ??osal_msg_deallocate?relay
    345             
    346                // Next - if one is available 指针指向下一个放在缓冲区的待处理的事件，
    347                //返回while ( MSGpkt )重新处理事件，直到缓冲区没有等待处理事件为止
    348                MSGpkt = (afIncomingMSGPacket_t *)osal_msg_receive( SampleApp_TaskID );
   \   000035                ; Setup parameters for call to function osal_msg_receive
   \                     ??SampleApp_ProcessEvent_1:
   \   000035   90....       MOV     DPTR,#SampleApp_TaskID
   \   000038   E0           MOVX    A,@DPTR
   \   000039   F9           MOV     R1,A
   \   00003A   12....       LCALL   ??osal_msg_receive?relay
   \   00003D   8A..         MOV     ?V0 + 0,R2
   \   00003F   8B..         MOV     ?V0 + 1,R3
   \   000041   E5..         MOV     A,?V0 + 0
   \   000043   45..         ORL     A,?V0 + 1
   \   000045   6032         JZ      ??SampleApp_ProcessEvent_5
   \   000047   85..82       MOV     DPL,?V0 + 0
   \   00004A   85..83       MOV     DPH,?V0 + 1
   \   00004D   E0           MOVX    A,@DPTR
   \   00004E   24E6         ADD     A,#-0x1a
   \   000050   601E         JZ      ??SampleApp_ProcessEvent_6
   \   000052   245A         ADD     A,#0x5a
   \   000054   6006         JZ      ??SampleApp_ProcessEvent_7
   \   000056   24EF         ADD     A,#-0x11
   \   000058   60B5         JZ      ??SampleApp_ProcessEvent_2
   \   00005A   80D2         SJMP    ??SampleApp_ProcessEvent_4
   \                     ??SampleApp_ProcessEvent_7:
   \   00005C                ; Setup parameters for call to function SampleApp_HandleKeys
   \   00005C   A3           INC     DPTR
   \   00005D   A3           INC     DPTR
   \   00005E   A3           INC     DPTR
   \   00005F   E0           MOVX    A,@DPTR
   \   000060   FA           MOV     R2,A
   \   000061   85..82       MOV     DPL,?V0 + 0
   \   000064   85..83       MOV     DPH,?V0 + 1
   \   000067   A3           INC     DPTR
   \   000068   A3           INC     DPTR
   \   000069   E0           MOVX    A,@DPTR
   \   00006A   F9           MOV     R1,A
   \   00006B   12....       LCALL   ??SampleApp_HandleKeys?relay
   \   00006E   80BE         SJMP    ??SampleApp_ProcessEvent_4
   \                     ??SampleApp_ProcessEvent_6:
   \   000070                ; Setup parameters for call to function SampleApp_MessageMSGCB
   \   000070   AA..         MOV     R2,?V0 + 0
   \   000072   AB..         MOV     R3,?V0 + 1
   \   000074   12....       LCALL   ??SampleApp_MessageMSGCB?relay
   \   000077   80B5         SJMP    ??SampleApp_ProcessEvent_4
    349              }
    350          
    351              // return unprocessed events 返回未处理的事件
    352              return (events ^ SYS_EVENT_MSG);
   \                     ??SampleApp_ProcessEvent_5:
   \   000079   EE           MOV     A,R6
   \   00007A   FA           MOV     R2,A
   \   00007B   EF           MOV     A,R7
   \   00007C   6480         XRL     A,#0x80
   \                     ??SampleApp_ProcessEvent_8:
   \   00007E   FB           MOV     R3,A
   \   00007F   8027         SJMP    ??SampleApp_ProcessEvent_9
    353            }
    354          
    355            // Send a message out - This event is generated by a timer
    356            //  (setup in SampleApp_Init()).
    357            if ( events & SAMPLEAPP_SEND_PERIODIC_MSG_EVT )
   \                     ??SampleApp_ProcessEvent_0:
   \   000081   EE           MOV     A,R6
   \   000082   A2E0         MOV     C,0xE0 /* A   */.0
   \   000084   501E         JNC     ??SampleApp_ProcessEvent_10
    358            {
    359              // Send the periodic message 处理周期性事件，
    360              //利用SampleApp_SendPeriodicMessage()处理完当前的周期性事件，然后启动定时器
    361              //开启下一个周期性事情，这样一种循环下去，也即是上面说的周期性事件了，
    362              //可以做为传感器定时采集、上传任务
    363              SampleApp_SendPeriodicMessage();
    364              
    365              // Setup to send message again in normal period (+ a little jitter)
    366              osal_start_timerEx( SampleApp_TaskID, SAMPLEAPP_SEND_PERIODIC_MSG_EVT,
    367                  (SAMPLEAPP_SEND_PERIODIC_MSG_TIMEOUT + (osal_rand() & 0x00FF)) );
   \   000086                ; Setup parameters for call to function osal_rand
   \   000086   12....       LCALL   ??osal_rand?relay
   \   000089                ; Setup parameters for call to function osal_start_timerEx
   \   000089   EA           MOV     A,R2
   \   00008A   24E8         ADD     A,#-0x18
   \   00008C   FC           MOV     R4,A
   \   00008D   E4           CLR     A
   \   00008E   3403         ADDC    A,#0x3
   \   000090   FD           MOV     R5,A
   \   000091   7A01         MOV     R2,#0x1
   \   000093   7B00         MOV     R3,#0x0
   \   000095   90....       MOV     DPTR,#SampleApp_TaskID
   \   000098   E0           MOVX    A,@DPTR
   \   000099   F9           MOV     R1,A
   \   00009A   12....       LCALL   ??osal_start_timerEx?relay
    368          
    369              // return unprocessed events 返回未处理的事件
    370              return (events ^ SAMPLEAPP_SEND_PERIODIC_MSG_EVT);
   \   00009D   EE           MOV     A,R6
   \   00009E   6401         XRL     A,#0x1
   \   0000A0   FA           MOV     R2,A
   \   0000A1   EF           MOV     A,R7
   \   0000A2   80DA         SJMP    ??SampleApp_ProcessEvent_8
    371            }
    372          
    373            // Discard unknown events
    374            return 0;
   \                     ??SampleApp_ProcessEvent_10:
   \   0000A4   7A00         MOV     R2,#0x0
   \   0000A6   7B00         MOV     R3,#0x0
   \                     ??SampleApp_ProcessEvent_9:
   \   0000A8   7F04         MOV     R7,#0x4
   \   0000AA   02....       LJMP    ?BANKED_LEAVE_XDATA
    375          }
    376          
    377          /*********************************************************************
    378           * Event Generation Functions
    379           */
    380          /*********************************************************************
    381           * @fn      SampleApp_HandleKeys
    382           *
    383           * @brief   Handles all key events for this device.
    384           *
    385           * @param   shift - true if in shift/alt.
    386           * @param   keys - bit field for key events. Valid entries:
    387           *                 HAL_KEY_SW_2
    388           *                 HAL_KEY_SW_1
    389           *
    390           * @return  none
    391           */

   \                                 In  segment BANKED_CODE, align 1, keep-with-next
    392          void SampleApp_HandleKeys( uint8 shift, uint8 keys )  
   \                     SampleApp_HandleKeys:
    393          {
   \   000000   74F7         MOV     A,#-0x9
   \   000002   12....       LCALL   ?BANKED_ENTER_XDATA
   \   000005                ; Saved register size: 9
   \   000005                ; Auto size: 0
   \   000005   EA           MOV     A,R2
    394            (void)shift;  // Intentionally unreferenced parameter
    395            
    396            if ( keys & HAL_KEY_SW_1 )
   \   000006   A2E0         MOV     C,0xE0 /* A   */.0
   \   000008   5007         JNC     ??SampleApp_HandleKeys_0
    397            {
    398              /* This key sends the Flash Command is sent to Group 1.
    399               * This device will not receive the Flash Command from this
    400               * device (even if it belongs to group 1).
    401               */
    402             SampleApp_SendFlashMessage( SAMPLEAPP_FLASH_DURATION );
   \   00000A                ; Setup parameters for call to function SampleApp_SendFlashMessage
   \   00000A   7AE8         MOV     R2,#-0x18
   \   00000C   7B03         MOV     R3,#0x3
   \   00000E   12....       LCALL   ??SampleApp_SendFlashMessage?relay
    403             
    404              
    405            
    406            }
    407          
    408            if ( keys & HAL_KEY_SW_6 )
    409            {
    410              /* The Flashr Command is sent to Group 1.
    411               * This key toggles this device in and out of group 1.
    412               * If this device doesn't belong to group 1, this application
    413               * will not receive the Flash command sent to group 1.
    414               */
    415            
    416             /*
    417              aps_Group_t *grp;
    418              grp = aps_FindGroup( SAMPLEAPP_ENDPOINT, SAMPLEAPP_FLASH_GROUP );
    419              if ( grp )
    420              {
    421                // Remove from the group
    422                aps_RemoveGroup( SAMPLEAPP_ENDPOINT, SAMPLEAPP_FLASH_GROUP );
    423              }
    424              else
    425              {
    426                // Add to the flash group
    427                aps_AddGroup( SAMPLEAPP_ENDPOINT, &SampleApp_Group );
    428              }
    429             */
    430            }
    431          }
   \                     ??SampleApp_HandleKeys_0:
   \   000011   7F01         MOV     R7,#0x1
   \   000013   02....       LJMP    ?BANKED_LEAVE_XDATA
    432          
    433          /*********************************************************************
    434           * LOCAL FUNCTIONS
    435           */
    436          
    437          /*********************************************************************
    438           * @fn      SampleApp_MessageMSGCB
    439           *
    440           * @brief   Data message processor callback.  This function processes
    441           *          any incoming data - probably from other devices.  So, based
    442           *          on cluster ID, perform the intended action.
    443           *
    444           * @param   none
    445           *
    446           * @return  none
    447           */
    448          //接收数据，参数为接收到的数据

   \                                 In  segment BANKED_CODE, align 1, keep-with-next
    449          void SampleApp_MessageMSGCB( afIncomingMSGPacket_t *pkt )
   \                     SampleApp_MessageMSGCB:
    450          {
   \   000000   74F5         MOV     A,#-0xb
   \   000002   12....       LCALL   ?BANKED_ENTER_XDATA
   \   000005                ; Saved register size: 11
   \   000005                ; Auto size: 15
   \   000005   74F1         MOV     A,#-0xf
   \   000007   12....       LCALL   ?ALLOC_XSTACK8
   \   00000A   EA           MOV     A,R2
   \   00000B   FE           MOV     R6,A
   \   00000C   EB           MOV     A,R3
   \   00000D   FF           MOV     R7,A
    451            uint16 flashTime;
    452            unsigned short len = 6+3+1+1+3+1;
    453            byte buf[6+3+1+1+3+1]={0}; 
   \   00000E   90....       MOV     DPTR,#`?<Constant {0}>`
   \   000011   C082         PUSH    DPL
   \   000013   85..82       MOV     DPL,?XSP + 0
   \   000016   85..83       MOV     DPH,?XSP + 1
   \   000019   AC82         MOV     R4,DPL
   \   00001B   AD83         MOV     R5,DPH
   \   00001D   7583..       MOV     DPH,#(`?<Constant {0}>` >> 8) & 0xff
   \   000020   D082         POP     DPL
   \   000022   740F         MOV     A,#0xf
   \   000024   12....       LCALL   ?MOVE_LONG8_XDATA_XDATA
    454            
    455            switch ( pkt->clusterId ) //判断簇ID
   \   000027   8E82         MOV     DPL,R6
   \   000029   8F83         MOV     DPH,R7
   \   00002B   A3           INC     DPTR
   \   00002C   A3           INC     DPTR
   \   00002D   A3           INC     DPTR
   \   00002E   A3           INC     DPTR
   \   00002F   E0           MOVX    A,@DPTR
   \   000030   F5..         MOV     ?V0 + 0,A
   \   000032   A3           INC     DPTR
   \   000033   E0           MOVX    A,@DPTR
   \   000034   F5..         MOV     ?V0 + 1,A
   \   000036   78..         MOV     R0,#?V0 + 0
   \   000038   12....       LCALL   ?US_SWITCH_DENSE
   \                     `?<Jumptable for SampleApp_MessageMSGCB>_0`:
   \   00003B   0100         DW        1
   \   00003D   01           DB        1
   \   00003E   ....         DW        ??SampleApp_MessageMSGCB_0
   \   000040   ....         DW        ??SampleApp_MessageMSGCB_1
   \   000042   ....         DW        ??SampleApp_MessageMSGCB_2
    456            {
    457              case SAMPLEAPP_PERIODIC_CLUSTERID: //收到广播数据
    458                osal_memset(buf, 0 , len);
   \                     ??SampleApp_MessageMSGCB_1:
   \   000044                ; Setup parameters for call to function osal_memset
   \   000044   7C0F         MOV     R4,#0xf
   \   000046   7D00         MOV     R5,#0x0
   \   000048   7900         MOV     R1,#0x0
   \   00004A   85..82       MOV     DPL,?XSP + 0
   \   00004D   85..83       MOV     DPH,?XSP + 1
   \   000050   AA82         MOV     R2,DPL
   \   000052   AB83         MOV     R3,DPH
   \   000054   12....       LCALL   ??osal_memset?relay
    459                osal_memcpy(buf, pkt->cmd.Data, len);
   \   000057                ; Setup parameters for call to function osal_memcpy
   \   000057   12....       LCALL   ?Subroutine2 & 0xFFFF
   \                     ??CrossCallReturnLabel_0:
   \   00005A   F5..         MOV     ?V0 + 0,A
   \   00005C   A3           INC     DPTR
   \   00005D   E0           MOVX    A,@DPTR
   \   00005E   F5..         MOV     ?V0 + 1,A
   \   000060   75..00       MOV     ?V0 + 2,#0x0
   \   000063   78..         MOV     R0,#?V0 + 0
   \   000065   12....       LCALL   ?PUSH_XSTACK_I_THREE
   \   000068   7C0F         MOV     R4,#0xf
   \   00006A   7D00         MOV     R5,#0x0
   \   00006C   7403         MOV     A,#0x3
   \   00006E   12....       LCALL   ?XSTACK_DISP0_8
   \   000071   AA82         MOV     R2,DPL
   \   000073   AB83         MOV     R3,DPH
   \   000075   12....       LCALL   ??osal_memcpy?relay
   \   000078   7403         MOV     A,#0x3
   \   00007A   12....       LCALL   ?DEALLOC_XSTACK8
    460          #ifdef ZDO_COORDINATOR
    461                if(AutoBeep){
   \   00007D   90....       MOV     DPTR,#AutoBeep
   \   000080   E0           MOVX    A,@DPTR
   \   000081   601B         JZ      ??SampleApp_MessageMSGCB_3
    462                  BEEP = buf[7]=='1'?1:0;
   \   000083   7407         MOV     A,#0x7
   \   000085   12....       LCALL   ?XSTACK_DISP0_8
   \   000088   E0           MOVX    A,@DPTR
   \   000089   6431         XRL     A,#0x31
   \   00008B   7004         JNZ     ??SampleApp_MessageMSGCB_4
   \   00008D   7401         MOV     A,#0x1
   \   00008F   8001         SJMP    ??SampleApp_MessageMSGCB_5
   \                     ??SampleApp_MessageMSGCB_4:
   \   000091   E4           CLR     A
   \                     ??SampleApp_MessageMSGCB_5:
   \   000092   33           RLC     A
   \   000093   33           RLC     A
   \   000094   54FC         ANL     A,#0xfc
   \   000096   F8           MOV     R0,A
   \   000097   E590         MOV     A,0x90
   \   000099   54FB         ANL     A,#0xfb
   \   00009B   48           ORL     A,R0
   \   00009C   F590         MOV     0x90,A
    463                }
    464                if(is_beep){
   \                     ??SampleApp_MessageMSGCB_3:
   \   00009E   90....       MOV     DPTR,#is_beep
   \   0000A1   E0           MOVX    A,@DPTR
   \   0000A2   F8           MOV     R0,A
   \   0000A3   A3           INC     DPTR
   \   0000A4   E0           MOVX    A,@DPTR
   \   0000A5   F9           MOV     R1,A
   \   0000A6   E8           MOV     A,R0
   \   0000A7   49           ORL     A,R1
   \   0000A8   6011         JZ      ??SampleApp_MessageMSGCB_6
    465                  BEEP^=1;
   \   0000AA   639004       XRL     0x90,#0x4
    466                  AutoBeep^=1;
   \   0000AD   90....       MOV     DPTR,#AutoBeep
   \   0000B0   E0           MOVX    A,@DPTR
   \   0000B1   6401         XRL     A,#0x1
   \   0000B3   F0           MOVX    @DPTR,A
    467                  is_beep = 0;
   \   0000B4   90....       MOV     DPTR,#is_beep
   \   0000B7   E4           CLR     A
   \   0000B8   F0           MOVX    @DPTR,A
   \   0000B9   A3           INC     DPTR
   \   0000BA   F0           MOVX    @DPTR,A
    468                }
    469          
    470          
    471          #endif
    472                HalUARTWrite(0,buf, len);
   \                     ??SampleApp_MessageMSGCB_6:
   \   0000BB                ; Setup parameters for call to function HalUARTWrite
   \   0000BB   7C0F         MOV     R4,#0xf
   \   0000BD   7D00         MOV     R5,#0x0
   \   0000BF   85..82       MOV     DPL,?XSP + 0
   \   0000C2   85..83       MOV     DPH,?XSP + 1
   \   0000C5   AA82         MOV     R2,DPL
   \   0000C7   AB83         MOV     R3,DPH
   \   0000C9   7900         MOV     R1,#0x0
   \   0000CB   12....       LCALL   ??HalUARTWrite?relay
    473                break;
   \   0000CE   8033         SJMP    ??SampleApp_MessageMSGCB_0
   \                     ??SampleApp_MessageMSGCB_2:
   \   0000D0   12....       LCALL   ?Subroutine2 & 0xFFFF
   \                     ??CrossCallReturnLabel_1:
   \   0000D3   F8           MOV     R0,A
   \   0000D4   A3           INC     DPTR
   \   0000D5   E0           MOVX    A,@DPTR
   \   0000D6   F9           MOV     R1,A
   \   0000D7                ; Setup parameters for call to function HalLedBlink
   \   0000D7   8882         MOV     DPL,R0
   \   0000D9   8983         MOV     DPH,R1
   \   0000DB   A3           INC     DPTR
   \   0000DC   E0           MOVX    A,@DPTR
   \   0000DD   FA           MOV     R2,A
   \   0000DE   8882         MOV     DPL,R0
   \   0000E0   8983         MOV     DPH,R1
   \   0000E2   A3           INC     DPTR
   \   0000E3   A3           INC     DPTR
   \   0000E4   E0           MOVX    A,@DPTR
   \   0000E5   F9           MOV     R1,A
   \   0000E6   EA           MOV     A,R2
   \   0000E7   2400         ADD     A,#0x0
   \   0000E9   F5..         MOV     ?V0 + 0,A
   \   0000EB   E4           CLR     A
   \   0000EC   39           ADDC    A,R1
   \   0000ED   F5..         MOV     ?V0 + 1,A
   \   0000EF   7402         MOV     A,#0x2
   \   0000F1   78..         MOV     R0,#?V0 + 0
   \   0000F3   12....       LCALL   ?US_SHR
   \   0000F6   AC..         MOV     R4,?V0 + 0
   \   0000F8   AD..         MOV     R5,?V0 + 1
   \   0000FA   7B32         MOV     R3,#0x32
   \   0000FC   7A04         MOV     R2,#0x4
   \   0000FE   7908         MOV     R1,#0x8
    474          
    475              case SAMPLEAPP_FLASH_CLUSTERID: //收到组播数据  
    476                flashTime = BUILD_UINT16(pkt->cmd.Data[1], pkt->cmd.Data[2] );
    477                HalLedBlink( HAL_LED_4, 4, 50, (flashTime / 4) );
   \   000100   12....       LCALL   ??HalLedBlink?relay
    478                break;
    479            case SAMPLEAPP_P2P_CLUSTERID:
    480           
    481              break;
    482            }
    483          }
   \                     ??SampleApp_MessageMSGCB_0:
   \   000103   740F         MOV     A,#0xf
   \   000105   12....       LCALL   ?DEALLOC_XSTACK8
   \   000108   02....       LJMP    ?Subroutine1 & 0xFFFF
   \   00010B                REQUIRE _A_P1

   \                                 In  segment BANKED_CODE, align 1, keep-with-next
   \                     ?Subroutine2:
   \   000000   EE           MOV     A,R6
   \   000001   2422         ADD     A,#0x22
   \   000003   F582         MOV     DPL,A
   \   000005   EF           MOV     A,R7
   \   000006   3400         ADDC    A,#0x0
   \   000008   F583         MOV     DPH,A
   \   00000A   E0           MOVX    A,@DPTR
   \   00000B   22           RET
    484          
    485          /*********************************************************************
    486           * @fn      SampleApp_SendPeriodicMessage
    487           *
    488           * @brief   Send the periodic message.
    489           *
    490           * @param   none
    491           *
    492           * @return  none
    493           */
    494          //分析发送周期信息

   \                                 In  segment BANKED_CODE, align 1, keep-with-next
    495          void SampleApp_SendPeriodicMessage( void )
   \                     SampleApp_SendPeriodicMessage:
    496          { 
   \   000000                ; Saved register size: 0
   \   000000                ; Auto size: 0
    497          #ifndef ZDO_COORDINATOR 
    498            //获得的数据通过串口输出到电脑显示  
    499            char str[6+3+1+1+3+1]={0};
    500            //获取温湿度
    501            unsigned char temp_humi[6]={0};
    502            strcpy(temp_humi,DHT11());
    503            //获取气体
    504            uint16 gas = ReadGasData();
    505            //获取火焰
    506            byte fire = 0;
    507            if(FIRE){
    508              fire = 0;
    509            }
    510            else{
    511              fire = 1;
    512            }
    513            uint16 humi = ReadHumidityData();
    514            sprintf(str,"%s%3d%d%3d\n",temp_humi,gas,fire,humi);
    515            HalUARTWrite(0,str,sizeof(str));
    516          
    517             // 调用AF_DataRequest将数据无线广播出去
    518            if( AF_DataRequest( &SampleApp_Periodic_DstAddr,//发送目的地址＋端点地址和传送模式
    519                                 &SampleApp_epDesc,//源(答复或确认)终端的描述（比如操作系统中任务ID等）源EP
    520                                 SAMPLEAPP_PERIODIC_CLUSTERID, //被Profile指定的有效的集群号
    521                                 sizeof(str),       //发送数据长度
    522                                 (uchar*)str,// 发送数据缓冲区
    523                                 &SampleApp_TransID,     // 任务ID号
    524                                 AF_DISCV_ROUTE,      // 有效位掩码的发送选项
    525                                 AF_DEFAULT_RADIUS ) == afStatus_SUCCESS )  //传送跳数，通常设置为AF_DEFAULT_RADIUS
    526            {
    527            }
    528            else
    529            {
    530              HalLedSet(HAL_LED_1, HAL_LED_MODE_ON);
    531              // Error occurred in request to send.
    532            }
    533          #elif defined ZDO_COORDINATOR
    534            //协调器发送
    535            
    536              
    537            
    538          
    539          #endif 
    540            
    541           
    542          }
   \   000000   02....       LJMP    ?BRET
    543          
    544          /*********************************************************************
    545           * @fn      SampleApp_SendFlashMessage
    546           *
    547           * @brief   Send the flash message to group 1.
    548           *
    549           * @param   flashTime - in milliseconds
    550           *
    551           * @return  none
    552           */

   \                                 In  segment BANKED_CODE, align 1, keep-with-next
    553          void SampleApp_SendFlashMessage( uint16 flashTime )  
   \                     SampleApp_SendFlashMessage:
    554          {
   \   000000   74F6         MOV     A,#-0xa
   \   000002   12....       LCALL   ?BANKED_ENTER_XDATA
   \   000005                ; Saved register size: 10
   \   000005                ; Auto size: 3
   \   000005   74FD         MOV     A,#-0x3
   \   000007   12....       LCALL   ?ALLOC_XSTACK8
    555            uint8 buffer[3];
    556            buffer[0] = (uint8)(SampleAppFlashCounter++);
   \   00000A   90....       MOV     DPTR,#SampleAppFlashCounter
   \   00000D   E0           MOVX    A,@DPTR
   \   00000E   85..82       MOV     DPL,?XSP + 0
   \   000011   85..83       MOV     DPH,?XSP + 1
   \   000014   F0           MOVX    @DPTR,A
   \   000015   90....       MOV     DPTR,#SampleAppFlashCounter
   \   000018   E0           MOVX    A,@DPTR
   \   000019   04           INC     A
   \   00001A   F0           MOVX    @DPTR,A
    557            buffer[1] = LO_UINT16( flashTime );
   \   00001B   7401         MOV     A,#0x1
   \   00001D   12....       LCALL   ?XSTACK_DISP0_8
   \   000020   EA           MOV     A,R2
   \   000021   F0           MOVX    @DPTR,A
    558            buffer[2] = HI_UINT16( flashTime );
   \   000022   7402         MOV     A,#0x2
   \   000024   12....       LCALL   ?XSTACK_DISP0_8
   \   000027   EB           MOV     A,R3
   \   000028   F0           MOVX    @DPTR,A
    559          
    560            if ( AF_DataRequest( &SampleApp_Flash_DstAddr, &SampleApp_epDesc,
    561                                 SAMPLEAPP_FLASH_CLUSTERID,
    562                                 3,
    563                                 buffer,
    564                                 &SampleApp_TransID,
    565                                 AF_DISCV_ROUTE,
    566                                 AF_DEFAULT_RADIUS ) == afStatus_SUCCESS )
   \   000029                ; Setup parameters for call to function AF_DataRequest
   \   000029   75..1E       MOV     ?V0 + 0,#0x1e
   \   00002C   78..         MOV     R0,#?V0 + 0
   \   00002E   12....       LCALL   ?PUSH_XSTACK_I_ONE
   \   000031   75....       MOV     ?V0 + 0,#SampleApp_TransID & 0xff
   \   000034   75....       MOV     ?V0 + 1,#(SampleApp_TransID >> 8) & 0xff
   \   000037   78..         MOV     R0,#?V0 + 0
   \   000039   12....       LCALL   ?PUSH_XSTACK_I_TWO
   \   00003C   7403         MOV     A,#0x3
   \   00003E   12....       LCALL   ?XSTACK_DISP0_8
   \   000041   8582..       MOV     ?V0 + 0,DPL
   \   000044   8583..       MOV     ?V0 + 1,DPH
   \   000047   78..         MOV     R0,#?V0 + 0
   \   000049   12....       LCALL   ?PUSH_XSTACK_I_TWO
   \   00004C   75..03       MOV     ?V0 + 0,#0x3
   \   00004F   75..00       MOV     ?V0 + 1,#0x0
   \   000052   78..         MOV     R0,#?V0 + 0
   \   000054   12....       LCALL   ?PUSH_XSTACK_I_TWO
   \   000057   75..02       MOV     ?V0 + 0,#0x2
   \   00005A   78..         MOV     R0,#?V0 + 0
   \   00005C   12....       LCALL   ?PUSH_XSTACK_I_TWO
   \   00005F   7920         MOV     R1,#0x20
   \   000061   7C..         MOV     R4,#SampleApp_epDesc & 0xff
   \   000063   7D..         MOV     R5,#(SampleApp_epDesc >> 8) & 0xff
   \   000065   7A..         MOV     R2,#SampleApp_Flash_DstAddr & 0xff
   \   000067   7B..         MOV     R3,#(SampleApp_Flash_DstAddr >> 8) & 0xff
   \   000069   12....       LCALL   ??AF_DataRequest?relay
   \   00006C   7409         MOV     A,#0x9
   \   00006E   12....       LCALL   ?DEALLOC_XSTACK8
    567            {
    568            }
    569            else
    570            {
    571              // Error occurred in request to send.
    572            }
    573          }
   \   000071   7403         MOV     A,#0x3
   \   000073   12....       LCALL   ?DEALLOC_XSTACK8
   \   000076   7F02         MOV     R7,#0x2
   \   000078   02....       LJMP    ?BANKED_LEAVE_XDATA

   \                                 In  segment BANKED_CODE, align 1, keep-with-next
    574          void SampleApp_Send_P2P_Message(void){
   \                     SampleApp_Send_P2P_Message:
   \   000000                ; Saved register size: 0
   \   000000                ; Auto size: 0
    575             
    576          }
   \   000000   02....       LJMP    ?BRET
    577          /*********************************************************************
    578          *********************************************************************/

   \                                 In  segment BANKED_CODE, align 1, keep-with-next
    579           uint16 ReadGasData( void )
   \                     ReadGasData:
    580          {
   \   000000                ; Saved register size: 0
   \   000000                ; Auto size: 0
    581            uint16 reading = 0;
    582            
    583            /* Enable channel */
    584            ADCCFG |= 0x40;
   \   000000   43F240       ORL     0xf2,#0x40
    585            
    586            /* writing to this register starts the extra conversion */
    587            ADCCON3 = 0x86;// AVDD5 引脚  00： 64 抽取率(7 位ENOB)  0110： AIN6
   \   000003   75B686       MOV     0xb6,#-0x7a
    588            
    589            /* Wait for the conversion to be done */
    590            while (!(ADCCON1 & 0x80));
   \                     ??ReadGasData_0:
   \   000006   E5B4         MOV     A,0xb4
   \   000008   A2E7         MOV     C,0xE0 /* A   */.7
   \   00000A   50FA         JNC     ??ReadGasData_0
    591            
    592            /* Disable channel after done conversion */
    593            ADCCFG &= (0x40 ^ 0xFF); //按位异或。如1010^1111=0101（二进制）
   \   00000C   53F2BF       ANL     0xf2,#0xbf
    594            
    595            /* Read the result */
    596            reading = ADCL;
   \   00000F                REQUIRE ?Subroutine0
   \   00000F                REQUIRE ADCCFG
   \   00000F                REQUIRE ADCCON3
   \   00000F                REQUIRE ADCCON1
   \   00000F                REQUIRE ADCL
   \   00000F                REQUIRE ADCH
   \   00000F                ; // Fall through to label ?Subroutine0
    597            reading |= (int16) (ADCH << 8); 
    598            
    599            reading >>= 8;
    600            
    601            return (reading);
    602          } 

   \                                 In  segment BANKED_CODE, align 1, keep-with-next
   \                     ?Subroutine0:
   \   000000   E5BA         MOV     A,0xba
   \   000002   E5BB         MOV     A,0xbb
   \   000004   FA           MOV     R2,A
   \   000005   E4           CLR     A
   \   000006   FB           MOV     R3,A
   \   000007   02....       LJMP    ?BRET

   \                                 In  segment BANKED_CODE, align 1, keep-with-next
    603          uint16 ReadHumidityData( void )
   \                     ReadHumidityData:
    604          {
   \   000000                ; Saved register size: 0
   \   000000                ; Auto size: 0
    605            uint16 reading = 0;
    606            
    607            P0DIR &= ~0x20;  // 设置P0.5为输入方式
   \   000000   53FDDF       ANL     0xfd,#0xdf
    608            asm("NOP");asm("NOP");
   \   000003   00           NOP
   \   000004   00           NOP
    609            
    610            /* Clear ADC interrupt flag */
    611            ADCIF = 0;
   \   000005   C28D         CLR     0x88.5
    612            
    613            //ADCCON3 = (0x80 | HAL_ADC_DEC_064 | HAL_ADC_CHANNEL_5);
    614            ADCCON3 = (0x80 | 0x00 | 0x05);
   \   000007   75B685       MOV     0xb6,#-0x7b
    615            /* Wait for the conversion to finish */
    616            while ( !ADCIF );
   \                     ??ReadHumidityData_0:
   \   00000A   A28D         MOV     C,0x88.5
   \   00000C   50FC         JNC     ??ReadHumidityData_0
    617            
    618            asm("NOP");asm("NOP");
   \   00000E   00           NOP
   \   00000F   00           NOP
    619            
    620            /* Read the result */
    621            reading = ADCL;
   \   000010   80..         SJMP    ?Subroutine0
   \   000012                REQUIRE P0DIR
   \   000012                REQUIRE _A_TCON
   \   000012                REQUIRE ADCCON3
   \   000012                REQUIRE ADCL
   \   000012                REQUIRE ADCH
    622            reading |= (int16) (ADCH << 8);
    623            reading >>= 8;
    624            
    625            return reading;
    626          }

   \                                 In  segment XDATA_ID, align 1, keep-with-next
   \                     `?<Initializer for AppTitle>`:
   \   000000   414C4432     DB "ALD2530 Example"
   \            35333020
   \            4578616D
   \            706C6500

   \                                 In  segment XDATA_ID, align 1, keep-with-next
   \                     `?<Initializer for AutoBeep>`:
   \   000000   01           DB 1

   \                                 In  segment BANK_RELAYS, align 1
   \                     ??myDelay?relay:
   \   000000   12....       LCALL   ?BDISPATCH
   \   000003   ......       DC24    myDelay

   \                                 In  segment BANK_RELAYS, align 1
   \                     ??SampleApp_Init?relay:
   \   000000   12....       LCALL   ?BDISPATCH
   \   000003   ......       DC24    SampleApp_Init

   \                                 In  segment BANK_RELAYS, align 1
   \                     ??SampleApp_ProcessEvent?relay:
   \   000000   12....       LCALL   ?BDISPATCH
   \   000003   ......       DC24    SampleApp_ProcessEvent

   \                                 In  segment BANK_RELAYS, align 1
   \                     ??SampleApp_HandleKeys?relay:
   \   000000   12....       LCALL   ?BDISPATCH
   \   000003   ......       DC24    SampleApp_HandleKeys

   \                                 In  segment BANK_RELAYS, align 1
   \                     ??SampleApp_MessageMSGCB?relay:
   \   000000   12....       LCALL   ?BDISPATCH
   \   000003   ......       DC24    SampleApp_MessageMSGCB

   \                                 In  segment BANK_RELAYS, align 1
   \                     ??SampleApp_SendPeriodicMessage?relay:
   \   000000   12....       LCALL   ?BDISPATCH
   \   000003   ......       DC24    SampleApp_SendPeriodicMessage

   \                                 In  segment BANK_RELAYS, align 1
   \                     ??SampleApp_SendFlashMessage?relay:
   \   000000   12....       LCALL   ?BDISPATCH
   \   000003   ......       DC24    SampleApp_SendFlashMessage

   \                                 In  segment BANK_RELAYS, align 1
   \                     ??SampleApp_Send_P2P_Message?relay:
   \   000000   12....       LCALL   ?BDISPATCH
   \   000003   ......       DC24    SampleApp_Send_P2P_Message

   \                                 In  segment BANK_RELAYS, align 1
   \                     ??ReadGasData?relay:
   \   000000   12....       LCALL   ?BDISPATCH
   \   000003   ......       DC24    ReadGasData

   \                                 In  segment BANK_RELAYS, align 1
   \                     ??ReadHumidityData?relay:
   \   000000   12....       LCALL   ?BDISPATCH
   \   000003   ......       DC24    ReadHumidityData

   \                                 In  segment XDATA_ROM_C, align 1
   \                     `?<Constant "UartInit OK\\n">`:
   \   000000   55617274     DB "UartInit OK\012"
   \            496E6974
   \            204F4B0A
   \            00      

   \                                 In  segment XDATA_ROM_C, align 1
   \                     `?<Constant "Group 1">`:
   \   000000   47726F75     DB "Group 1"
   \            70203100

   \                                 In  segment XDATA_ROM_C, align 1
   \                     `?<Constant "SampleApp">`:
   \   000000   53616D70     DB "SampleApp"
   \            6C654170
   \            7000    

   \                                 In  segment XDATA_ROM_C, align 1
   \                     `?<Constant {0}>`:
   \   000000   00           DB 0
   \   000001   00000000     DB 0, 0, 0, 0, 0, 0, 0, 0
   \            00000000
   \   000009   00000000     DB 0, 0, 0, 0, 0, 0
   \            0000    

   Maximum stack usage in bytes:

     Function                       ISTACK PSTACK XSTACK
     --------                       ------ ------ ------
     ReadGasData                        0      0      0
     ReadHumidityData                   0      0      0
     SampleApp_HandleKeys               0      0     21
       -> SampleApp_SendFlashMessage
                                        0      0     18
     SampleApp_Init                     0      0     14
       -> MT_UartInit                   0      0     22
       -> MT_UartRegisterTaskID         0      0     22
       -> HalUARTWrite                  0      0     22
       -> afRegister                    0      0     22
       -> RegisterForKeys               0      0     22
       -> osal_memcpy                   0      0     28
       -> aps_AddGroup                  0      0     22
       -> HalLcdWriteString             0      0     22
     SampleApp_MessageMSGCB             2      0     41
       -> osal_memset                   0      0     52
       -> osal_memcpy                   0      0     58
       -> HalUARTWrite                  0      0     52
       -> HalLedBlink                   0      0     52
     SampleApp_ProcessEvent             0      0     12
       -> osal_msg_receive              0      0     24
       -> osal_start_timerEx            0      0     24
       -> osal_msg_deallocate           0      0     24
       -> osal_msg_receive              0      0     24
       -> SampleApp_HandleKeys          0      0     24
       -> SampleApp_MessageMSGCB        0      0     24
       -> osal_rand                     0      0     24
       -> osal_start_timerEx            0      0     24
     SampleApp_SendFlashMessage         1      0     31
       -> AF_DataRequest                0      0     44
     SampleApp_SendPeriodicMessage      0      0      0
     SampleApp_Send_P2P_Message         0      0      0
     myDelay                            0      0      0


   Segment part sizes:

     Function/Label                        Bytes
     --------------                        -----
     _A_TCON                                  1
     _A_P1                                    1
     ADCCON1                                  1
     ADCCON3                                  1
     ADCL                                     1
     ADCH                                     1
     ADCCFG                                   1
     P0SEL                                    1
     P1SEL                                    1
     P0DIR                                    1
     P1DIR                                    1
     AppTitle                                16
     AutoBeep                                 1
     myDelay                                 31
     SampleApp_ClusterList                    4
     SampleApp_SimpleDesc                    12
     SampleApp_epDesc                         6
     SampleApp_TaskID                         1
     SampleApp_NwkState                       1
     SampleApp_TransID                        1
     SampleApp_Periodic_DstAddr              12
     SampleApp_Flash_DstAddr                 12
     SampleApp_Group                         18
     SampleAppPeriodicCounter                 1
     SampleAppFlashCounter                    1
     SampleApp_Init                         197
     ?Subroutine1                             5
     SampleApp_ProcessEvent                 173
     SampleApp_HandleKeys                    22
     SampleApp_MessageMSGCB                 267
     ?Subroutine2                            12
     SampleApp_SendPeriodicMessage            3
     SampleApp_SendFlashMessage             123
     SampleApp_Send_P2P_Message               3
     ReadGasData                             15
     ?Subroutine0                            10
     ReadHumidityData                        18
     ?<Initializer for AppTitle>             16
     ?<Initializer for AutoBeep>              1
     ??myDelay?relay                          6
     ??SampleApp_Init?relay                   6
     ??SampleApp_ProcessEvent?relay           6
     ??SampleApp_HandleKeys?relay             6
     ??SampleApp_MessageMSGCB?relay           6
     ??SampleApp_SendPeriodicMessage?relay    6
     ??SampleApp_SendFlashMessage?relay       6
     ??SampleApp_Send_P2P_Message?relay       6
     ??ReadGasData?relay                      6
     ??ReadHumidityData?relay                 6
     ?<Constant "UartInit OK\n">             13
     ?<Constant "Group 1">                    8
     ?<Constant "SampleApp">                 10
     ?<Constant {0}>                         15

 
 879 bytes in segment BANKED_CODE
  60 bytes in segment BANK_RELAYS
  11 bytes in segment SFR_AN
  17 bytes in segment XDATA_I
  17 bytes in segment XDATA_ID
  62 bytes in segment XDATA_ROM_C
  53 bytes in segment XDATA_Z
 
 956 bytes of CODE  memory
  62 bytes of CONST memory
   0 bytes of DATA  memory (+ 11 bytes shared)
  70 bytes of XDATA memory

Errors: none
Warnings: none
