###############################################################################
#                                                                             #
# IAR C/C++ Compiler V8.10.1.10194/W32 for 8051         26/Dec/2019  19:49:47 #
# Copyright 2004-2011 IAR Systems AB.                                         #
#                                                                             #
#    Core               =  plain                                              #
#    Code model         =  banked                                             #
#    Data model         =  large                                              #
#    Calling convention =  xdata reentrant                                    #
#    Constant location  =  data_rom                                           #
#    Dptr setup         =  1,16                                               #
#    Source file        =  C:\Users\25814\Desktop\2020毕设\李源杰_果园监测\硬 #
#                          件部分\Projects\zstack\Samples\SampleApp\Source\Sa #
#                          mpleApp.c                                          #
#    Command line       =  -f C:\Users\25814\Desktop\2020毕设\李源杰_果园监测 #
#                          \硬件部分\Projects\zstack\Samples\SampleApp\CC2530 #
#                          DB\..\..\..\Tools\CC2530DB\f8wCoord.cfg            #
#                          (-DCPU32MHZ -DROOT=__near_func                     #
#                          -DMAC_CFG_APP_PENDING_QUEUE=TRUE                   #
#                          -DMAC_CFG_TX_DATA_MAX=5 -DMAC_CFG_TX_MAX=8         #
#                          -DMAC_CFG_RX_MAX=5 -DZDO_COORDINATOR -DRTR_NWK)    #
#                          -f C:\Users\25814\Desktop\2020毕设\李源杰_果园监测 #
#                          \硬件部分\Projects\zstack\Samples\SampleApp\CC2530 #
#                          DB\..\..\..\Tools\CC2530DB\f8wConfig.cfg           #
#                          (-DZIGBEEPRO -DSECURE=0 -DZG_SECURE_DYNAMIC=0      #
#                          -DREFLECTOR -DDEFAULT_CHANLIST=0x00000800          #
#                          -DZDAPP_CONFIG_PAN_ID=0xFFF1                       #
#                          -DNWK_START_DELAY=100 -DEXTENDED_JOINING_RANDOM_MA #
#                          SK=0x007F -DBEACON_REQUEST_DELAY=100               #
#                          -DBEACON_REQ_DELAY_MASK=0x00FF                     #
#                          -DLINK_STATUS_JITTER_MASK=0x007F                   #
#                          -DROUTE_EXPIRY_TIME=30 -DAPSC_ACK_WAIT_DURATION_PO #
#                          LLED=3000 -DNWK_INDIRECT_MSG_TIMEOUT=7             #
#                          -DMAX_RREQ_ENTRIES=8 -DAPSC_MAX_FRAME_RETRIES=3    #
#                          -DNWK_MAX_DATA_RETRIES=2                           #
#                          -DMAX_POLL_FAILURE_RETRIES=2 -DMAX_BCAST=9         #
#                          -DAPS_MAX_GROUPS=16 -DMAX_RTG_ENTRIES=40           #
#                          -DNWK_MAX_BINDING_ENTRIES=4                        #
#                          -DMAX_BINDING_CLUSTER_IDS=4 "-DDEFAULT_KEY={0x01,  #
#                          0x03, 0x05, 0x07, 0x09, 0x0B, 0x0D, 0x0F, 0x00,    #
#                          0x02, 0x04, 0x06, 0x08, 0x0A, 0x0C, 0x0D}"         #
#                          -DMAC_MAX_FRAME_SIZE=116                           #
#                          -DZDNWKMGR_MIN_TRANSMISSIONS=20 "-DCONST=const     #
#                          __code" -DGENERIC=__generic                        #
#                          -DRFD_RCVC_ALWAYS_ON=FALSE -DPOLL_RATE=1000        #
#                          -DQUEUED_POLL_RATE=100 -DRESPONSE_POLL_RATE=100)   #
#                          -DREJOIN_POLL_RATE=440 C:\Users\25814\Desktop\2020 #
#                          毕设\李源杰_果园监测\硬件部分\Projects\zstack\Samp #
#                          les\SampleApp\Source\SampleApp.c -D ZAPP_P1 -D     #
#                          MT_TASK -D MT_SYS_FUNC -D MT_ZDO_FUNC -D           #
#                          LCD_SUPPORTED=DEBUG -lC C:\Users\25814\Desktop\202 #
#                          0毕设\李源杰_果园监测\硬件部分\Projects\zstack\Sam #
#                          ples\SampleApp\CC2530DB\CoordinatorEB\List\ -lA    #
#                          C:\Users\25814\Desktop\2020毕设\李源杰_果园监测\硬 #
#                          件部分\Projects\zstack\Samples\SampleApp\CC2530DB\ #
#                          CoordinatorEB\List\ --diag_suppress Pe001,Pa010    #
#                          -o C:\Users\25814\Desktop\2020毕设\李源杰_果园监测 #
#                          \硬件部分\Projects\zstack\Samples\SampleApp\CC2530 #
#                          DB\CoordinatorEB\Obj\ -e --no_code_motion --debug  #
#                          --core=plain --dptr=16,1 --data_model=large        #
#                          --code_model=banked --calling_convention=xdata_ree #
#                          ntrant --place_constants=data_rom                  #
#                          --nr_virtual_regs 16 -I C:\Users\25814\Desktop\202 #
#                          0毕设\李源杰_果园监测\硬件部分\Projects\zstack\Sam #
#                          ples\SampleApp\CC2530DB\ -I                        #
#                          C:\Users\25814\Desktop\2020毕设\李源杰_果园监测\硬 #
#                          件部分\Projects\zstack\Samples\SampleApp\CC2530DB\ #
#                          ..\Source\ -I C:\Users\25814\Desktop\2020毕设\李源 #
#                          杰_果园监测\硬件部分\Projects\zstack\Samples\Sampl #
#                          eApp\CC2530DB\..\..\..\ZMain\TI2530DB\ -I          #
#                          C:\Users\25814\Desktop\2020毕设\李源杰_果园监测\硬 #
#                          件部分\Projects\zstack\Samples\SampleApp\CC2530DB\ #
#                          ..\..\..\..\..\Components\hal\include\ -I          #
#                          C:\Users\25814\Desktop\2020毕设\李源杰_果园监测\硬 #
#                          件部分\Projects\zstack\Samples\SampleApp\CC2530DB\ #
#                          ..\..\..\..\..\Components\hal\target\CC2530EB\ -I  #
#                          C:\Users\25814\Desktop\2020毕设\李源杰_果园监测\硬 #
#                          件部分\Projects\zstack\Samples\SampleApp\CC2530DB\ #
#                          ..\..\..\..\..\Components\mac\include\ -I          #
#                          C:\Users\25814\Desktop\2020毕设\李源杰_果园监测\硬 #
#                          件部分\Projects\zstack\Samples\SampleApp\CC2530DB\ #
#                          ..\..\..\..\..\Components\mac\high_level\ -I       #
#                          C:\Users\25814\Desktop\2020毕设\李源杰_果园监测\硬 #
#                          件部分\Projects\zstack\Samples\SampleApp\CC2530DB\ #
#                          ..\..\..\..\..\Components\mac\low_level\srf04\ -I  #
#                          C:\Users\25814\Desktop\2020毕设\李源杰_果园监测\硬 #
#                          件部分\Projects\zstack\Samples\SampleApp\CC2530DB\ #
#                          ..\..\..\..\..\Components\mac\low_level\srf04\sing #
#                          le_chip\ -I C:\Users\25814\Desktop\2020毕设\李源杰 #
#                          _果园监测\硬件部分\Projects\zstack\Samples\SampleA #
#                          pp\CC2530DB\..\..\..\..\..\Components\mt\ -I       #
#                          C:\Users\25814\Desktop\2020毕设\李源杰_果园监测\硬 #
#                          件部分\Projects\zstack\Samples\SampleApp\CC2530DB\ #
#                          ..\..\..\..\..\Components\osal\include\ -I         #
#                          C:\Users\25814\Desktop\2020毕设\李源杰_果园监测\硬 #
#                          件部分\Projects\zstack\Samples\SampleApp\CC2530DB\ #
#                          ..\..\..\..\..\Components\services\saddr\ -I       #
#                          C:\Users\25814\Desktop\2020毕设\李源杰_果园监测\硬 #
#                          件部分\Projects\zstack\Samples\SampleApp\CC2530DB\ #
#                          ..\..\..\..\..\Components\services\sdata\ -I       #
#                          C:\Users\25814\Desktop\2020毕设\李源杰_果园监测\硬 #
#                          件部分\Projects\zstack\Samples\SampleApp\CC2530DB\ #
#                          ..\..\..\..\..\Components\stack\af\ -I             #
#                          C:\Users\25814\Desktop\2020毕设\李源杰_果园监测\硬 #
#                          件部分\Projects\zstack\Samples\SampleApp\CC2530DB\ #
#                          ..\..\..\..\..\Components\stack\nwk\ -I            #
#                          C:\Users\25814\Desktop\2020毕设\李源杰_果园监测\硬 #
#                          件部分\Projects\zstack\Samples\SampleApp\CC2530DB\ #
#                          ..\..\..\..\..\Components\stack\sapi\ -I           #
#                          C:\Users\25814\Desktop\2020毕设\李源杰_果园监测\硬 #
#                          件部分\Projects\zstack\Samples\SampleApp\CC2530DB\ #
#                          ..\..\..\..\..\Components\stack\sec\ -I            #
#                          C:\Users\25814\Desktop\2020毕设\李源杰_果园监测\硬 #
#                          件部分\Projects\zstack\Samples\SampleApp\CC2530DB\ #
#                          ..\..\..\..\..\Components\stack\sys\ -I            #
#                          C:\Users\25814\Desktop\2020毕设\李源杰_果园监测\硬 #
#                          件部分\Projects\zstack\Samples\SampleApp\CC2530DB\ #
#                          ..\..\..\..\..\Components\stack\zdo\ -I            #
#                          C:\Users\25814\Desktop\2020毕设\李源杰_果园监测\硬 #
#                          件部分\Projects\zstack\Samples\SampleApp\CC2530DB\ #
#                          ..\..\..\..\..\Components\zmac\ -I                 #
#                          C:\Users\25814\Desktop\2020毕设\李源杰_果园监测\硬 #
#                          件部分\Projects\zstack\Samples\SampleApp\CC2530DB\ #
#                          ..\..\..\..\..\Components\zmac\f8w\ -Ohz           #
#    List file          =  C:\Users\25814\Desktop\2020毕设\李源杰_果园监测\硬 #
#                          件部分\Projects\zstack\Samples\SampleApp\CC2530DB\ #
#                          CoordinatorEB\List\SampleApp.lst                   #
#    Object file        =  C:\Users\25814\Desktop\2020毕设\李源杰_果园监测\硬 #
#                          件部分\Projects\zstack\Samples\SampleApp\CC2530DB\ #
#                          CoordinatorEB\Obj\SampleApp.r51                    #
#                                                                             #
#                                                                             #
###############################################################################

C:\Users\25814\Desktop\2020毕设\李源杰_果园监测\硬件部分\Projects\zstack\Samples\SampleApp\Source\SampleApp.c
      1          /**************************************************************************************************
      2            Filename:       SampleApp.c
      3            Revised:        $Date: 2009-03-18 15:56:27 -0700 (Wed, 18 Mar 2009) $
      4            Revision:       $Revision: 19453 $
      5          
      6            Description:    Sample Application (no Profile).
      7          
      8          
      9            Copyright 2007 Texas Instruments Incorporated. All rights reserved.
     10          
     11            IMPORTANT: Your use of this Software is limited to those specific rights
     12            granted under the terms of a software license agreement between the user
     13            who downloaded the software, his/her employer (which must be your employer)
     14            and Texas Instruments Incorporated (the "License").  You may not use this
     15            Software unless you agree to abide by the terms of the License. The License
     16            limits your use, and you acknowledge, that the Software may not be modified,
     17            copied or distributed unless embedded on a Texas Instruments microcontroller
     18            or used solely and exclusively in conjunction with a Texas Instruments radio
     19            frequency transceiver, which is integrated into your product.  Other than for
     20            the foregoing purpose, you may not use, reproduce, copy, prepare derivative
     21            works of, modify, distribute, perform, display or sell this Software and/or
     22            its documentation for any purpose.
     23          
     24            YOU FURTHER ACKNOWLEDGE AND AGREE THAT THE SOFTWARE AND DOCUMENTATION ARE
     25            PROVIDED AS IS?WITHOUT WARRANTY OF ANY KIND, EITHER EXPRESS OR IMPLIED,
     26            INCLUDING WITHOUT LIMITATION, ANY WARRANTY OF MERCHANTABILITY, TITLE,
     27            NON-INFRINGEMENT AND FITNESS FOR A PARTICULAR PURPOSE. IN NO EVENT SHALL
     28            TEXAS INSTRUMENTS OR ITS LICENSORS BE LIABLE OR OBLIGATED UNDER CONTRACT,
     29            NEGLIGENCE, STRICT LIABILITY, CONTRIBUTION, BREACH OF WARRANTY, OR OTHER
     30            LEGAL EQUITABLE THEORY ANY DIRECT OR INDIRECT DAMAGES OR EXPENSES
     31            INCLUDING BUT NOT LIMITED TO ANY INCIDENTAL, SPECIAL, INDIRECT, PUNITIVE
     32            OR CONSEQUENTIAL DAMAGES, LOST PROFITS OR LOST DATA, COST OF PROCUREMENT
     33            OF SUBSTITUTE GOODS, TECHNOLOGY, SERVICES, OR ANY CLAIMS BY THIRD PARTIES
     34            (INCLUDING BUT NOT LIMITED TO ANY DEFENSE THEREOF), OR OTHER SIMILAR COSTS.
     35          
     36            Should you have any questions regarding your right to use this Software,
     37            contact Texas Instruments Incorporated at www.TI.com.
     38          **************************************************************************************************/
     39          
     40          /*********************************************************************
     41            This application isn't intended to do anything useful, it is
     42            intended to be a simple example of an application's structure.
     43          
     44            This application sends it's messages either as broadcast or
     45            broadcast filtered group messages.  The other (more normal)
     46            message addressing is unicast.  Most of the other sample
     47            applications are written to support the unicast message model.
     48          
     49            Key control:
     50              SW1:  Sends a flash command to all devices in Group 1.
     51              SW2:  Adds/Removes (toggles) this device in and out
     52                    of Group 1.  This will enable and disable the
     53                    reception of the flash command.
     54          *********************************************************************/
     55          
     56          /*********************************************************************
     57           * INCLUDES
     58           */
     59          #include "OSAL.h"
     60          #include "ZGlobals.h"
     61          #include "AF.h"
     62          #include "aps_groups.h"
     63          #include "ZDApp.h"
     64          
     65          #include "SampleApp.h"
     66          #include "SampleAppHw.h"
     67          
     68          #include "OnBoard.h"

   \                                 In  segment SFR_AN, at 0x80
   \   union <unnamed> volatile __sfr _A_P0
   \                     _A_P0:
   \   000000                DS 1

   \                                 In  segment SFR_AN, at 0x88
   \   union <unnamed> volatile __sfr _A_TCON
   \                     _A_TCON:
   \   000000                DS 1

   \                                 In  segment SFR_AN, at 0xb4
   \   unsigned char volatile __sfr ADCCON1
   \                     ADCCON1:
   \   000000                DS 1

   \                                 In  segment SFR_AN, at 0xb6
   \   unsigned char volatile __sfr ADCCON3
   \                     ADCCON3:
   \   000000                DS 1

   \                                 In  segment SFR_AN, at 0xba
   \   unsigned char volatile __sfr ADCL
   \                     ADCL:
   \   000000                DS 1

   \                                 In  segment SFR_AN, at 0xbb
   \   unsigned char volatile __sfr ADCH
   \                     ADCH:
   \   000000                DS 1

   \                                 In  segment SFR_AN, at 0xf2
   \   unsigned char volatile __sfr ADCCFG
   \                     ADCCFG:
   \   000000                DS 1

   \                                 In  segment SFR_AN, at 0xf3
   \   unsigned char volatile __sfr P0SEL
   \                     P0SEL:
   \   000000                DS 1

   \                                 In  segment SFR_AN, at 0xfd
   \   unsigned char volatile __sfr P0DIR
   \                     P0DIR:
   \   000000                DS 1

   \                                 In  segment SFR_AN, at 0xfe
   \   unsigned char volatile __sfr P1DIR
   \                     P1DIR:
   \   000000                DS 1
     69          
     70          /* HAL */
     71          #include "hal_lcd.h"
     72          #include "hal_led.h"
     73          #include "hal_key.h"
     74          #include "MT_UART.h"
     75          #include "MT_APP.h"
     76          #include "MT.h"
     77          
     78          #include <stdio.h>
     79          #include <string.h>
     80          
     81          //MY DEVICE
     82          #include "DHT11.h"
     83          #include "gy30.h"
     84          
     85          /*********************************************************************
     86           * MACROS
     87           */
     88           
     89          
     90          #define LED P1_1
     91          #define PUMP P1_3
     92          /*********************************************************************
     93           * CONSTANTS
     94           */
     95          
     96          /*********************************************************************
     97           * TYPEDEFS
     98           */
     99          
    100          /*********************************************************************
    101           * GLOBAL VARIABLES
    102           */

   \                                 In  segment XDATA_I, align 1, keep-with-next
    103          uint8 AppTitle[] = "ALD2530 Example"; //应用程序名称 
   \                     AppTitle:
   \   000000                DS 16
   \   000010                REQUIRE `?<Initializer for AppTitle>`
   \   000010                REQUIRE __INIT_XDATA_I

   \                                 In  segment XDATA_I, align 1, keep-with-next
    104          uint8 Auto = 1;
   \                     Auto:
   \   000000                DS 1
   \   000001                REQUIRE `?<Initializer for Auto>`
   \   000001                REQUIRE __INIT_XDATA_I
    105          uint16 ReadGasData(void);
    106          uint16 ReadHumidityData(void);

   \                                 In  segment BANKED_CODE, align 1, keep-with-next
    107          void myDelay(){
   \                     myDelay:
   \   000000                ; Saved register size: 0
   \   000000                ; Auto size: 0
    108            for(int j =0;j<100;j++)
   \   000000   7A64         MOV     R2,#0x64
    109              for(int i = 0;i<0xffff;i++)
   \                     ??myDelay_0:
   \   000002   7800         MOV     R0,#0x0
   \   000004   7900         MOV     R1,#0x0
   \                     ??myDelay_1:
   \   000006   E8           MOV     A,R0
   \   000007   2401         ADD     A,#0x1
   \   000009   08           INC     R0
   \   00000A   E9           MOV     A,R1
   \   00000B   3400         ADDC    A,#0x0
   \   00000D   F9           MOV     R1,A
   \   00000E   74FF         MOV     A,#-0x1
   \   000010   68           XRL     A,R0
   \   000011   7003         JNZ     ??myDelay_2
   \   000013   74FF         MOV     A,#-0x1
   \   000015   69           XRL     A,R1
   \                     ??myDelay_2:
   \   000016   70EE         JNZ     ??myDelay_1
    110              {}
   \   000018   1A           DEC     R2
   \   000019   EA           MOV     A,R2
   \   00001A   70E6         JNZ     ??myDelay_0
    111          }
   \   00001C   02....       LJMP    ?BRET
    112          // This list should be filled with Application specific Cluster IDs.

   \                                 In  segment XDATA_ROM_C, align 1
    113          const cId_t SampleApp_ClusterList[SAMPLEAPP_MAX_CLUSTERS] =
   \                     SampleApp_ClusterList:
   \   000000   0100         DW 1
   \   000002   0200         DW 2
    114          {
    115            SAMPLEAPP_PERIODIC_CLUSTERID,
    116            SAMPLEAPP_FLASH_CLUSTERID
    117          };
    118          

   \                                 In  segment XDATA_ROM_C, align 1
    119          const SimpleDescriptionFormat_t SampleApp_SimpleDesc =
   \                     SampleApp_SimpleDesc:
   \   000000   14           DB 20
   \   000001   080F         DW 3848
   \   000003   0100         DW 1
   \   000005   00           DB 0
   \   000006   02           DB 2
   \   000007   ....         DW SampleApp_ClusterList
   \   000009   02           DB 2
   \   00000A   ....         DW SampleApp_ClusterList
    120          {
    121            SAMPLEAPP_ENDPOINT,              //  int Endpoint;
    122            SAMPLEAPP_PROFID,                //  uint16 AppProfId[2];
    123            SAMPLEAPP_DEVICEID,              //  uint16 AppDeviceId[2];
    124            SAMPLEAPP_DEVICE_VERSION,        //  int   AppDevVer:4;
    125            SAMPLEAPP_FLAGS,                 //  int   AppFlags:4;
    126            SAMPLEAPP_MAX_CLUSTERS,          //  uint8  AppNumInClusters;
    127            (cId_t *)SampleApp_ClusterList,  //  uint8 *pAppInClusterList;
    128            SAMPLEAPP_MAX_CLUSTERS,          //  uint8  AppNumInClusters;
    129            (cId_t *)SampleApp_ClusterList   //  uint8 *pAppInClusterList;
    130          };
    131          
    132          // This is the Endpoint/Interface description.  It is defined here, but
    133          // filled-in in SampleApp_Init().  Another way to go would be to fill
    134          // in the structure here and make it a "const" (in code space).  The
    135          // way it's defined in this sample app it is define in RAM.

   \                                 In  segment XDATA_Z, align 1, keep-with-next
    136          endPointDesc_t SampleApp_epDesc;
   \                     SampleApp_epDesc:
   \   000000                DS 6
   \   000006                REQUIRE __INIT_XDATA_Z
    137          
    138          /*********************************************************************
    139           * EXTERNAL VARIABLES
    140           */
    141          
    142          /*********************************************************************
    143           * EXTERNAL FUNCTIONS
    144           */
    145          
    146          /*********************************************************************
    147           * LOCAL VARIABLES
    148           */
    149          
    150          

   \                                 In  segment XDATA_Z, align 1, keep-with-next
    151          uint8 SampleApp_TaskID;   // Task ID for internal task/event processing
   \                     SampleApp_TaskID:
   \   000000                DS 1
   \   000001                REQUIRE __INIT_XDATA_Z
    152                                    // This variable will be received when
    153                                    // SampleApp_Init() is called.

   \                                 In  segment XDATA_Z, align 1, keep-with-next
    154          devStates_t SampleApp_NwkState;
   \                     SampleApp_NwkState:
   \   000000                DS 1
   \   000001                REQUIRE __INIT_XDATA_Z
    155          

   \                                 In  segment XDATA_Z, align 1, keep-with-next
    156          uint8 SampleApp_TransID;  // This is the unique message ID (counter)
   \                     SampleApp_TransID:
   \   000000                DS 1
   \   000001                REQUIRE __INIT_XDATA_Z
    157          

   \                                 In  segment XDATA_Z, align 1, keep-with-next
    158          afAddrType_t SampleApp_Periodic_DstAddr;
   \                     SampleApp_Periodic_DstAddr:
   \   000000                DS 12
   \   00000C                REQUIRE __INIT_XDATA_Z

   \                                 In  segment XDATA_Z, align 1, keep-with-next
    159          afAddrType_t SampleApp_Flash_DstAddr;
   \                     SampleApp_Flash_DstAddr:
   \   000000                DS 12
   \   00000C                REQUIRE __INIT_XDATA_Z
    160          

   \                                 In  segment XDATA_Z, align 1, keep-with-next
    161          aps_Group_t SampleApp_Group;
   \                     SampleApp_Group:
   \   000000                DS 18
   \   000012                REQUIRE __INIT_XDATA_Z
    162          

   \                                 In  segment XDATA_Z, align 1, keep-with-next
    163          uint8 SampleAppPeriodicCounter = 0;
   \                     SampleAppPeriodicCounter:
   \   000000                DS 1
   \   000001                REQUIRE __INIT_XDATA_Z

   \                                 In  segment XDATA_Z, align 1, keep-with-next
    164          uint8 SampleAppFlashCounter = 0;
   \                     SampleAppFlashCounter:
   \   000000                DS 1
   \   000001                REQUIRE __INIT_XDATA_Z
    165          
    166           
    167          /*********************************************************************
    168           * LOCAL FUNCTIONS
    169           */
    170          void SampleApp_HandleKeys( uint8 shift, uint8 keys );
    171          void SampleApp_MessageMSGCB( afIncomingMSGPacket_t *pckt );
    172          void SampleApp_SendPeriodicMessage( void );
    173          void SampleApp_SendFlashMessage( uint16 flashTime );
    174          void SampleApp_Send_P2P_Message(void);
    175          /*********************************************************************
    176           * NETWORK LAYER CALLBACKS
    177           */
    178          
    179          /*********************************************************************
    180           * PUBLIC FUNCTIONS
    181           */
    182           
    183          /*********************************************************************
    184           * @fn      SampleApp_Init
    185           *
    186           * @brief   Initialization function for the Generic App Task.
    187           *          This is called during initialization and should contain
    188           *          any application specific initialization (ie. hardware
    189           *          initialization/setup, table initialization, power up
    190           *          notificaiton ... ).
    191           *
    192           * @param   task_id - the ID assigned by OSAL.  This ID should be
    193           *                    used to send messages and set timers.
    194           *
    195           * @return  none
    196           */
    197          

   \                                 In  segment BANKED_CODE, align 1, keep-with-next
    198          void SampleApp_Init( uint8 task_id )
   \                     SampleApp_Init:
    199          { 
   \   000000   74F5         MOV     A,#-0xb
   \   000002   12....       LCALL   ?BANKED_ENTER_XDATA
   \   000005                ; Saved register size: 11
   \   000005                ; Auto size: 0
   \   000005   E9           MOV     A,R1
   \   000006   FE           MOV     R6,A
    200            
    201           
    202            SampleApp_TaskID = task_id;   //osal分配的任务ID随着用户添加任务的增多而改变
   \   000007   90....       MOV     DPTR,#SampleApp_TaskID
   \   00000A   F0           MOVX    @DPTR,A
    203            SampleApp_NwkState = DEV_INIT;//设备状态设定为ZDO层中定义的初始化状态
   \   00000B   90....       MOV     DPTR,#SampleApp_NwkState
   \   00000E   7401         MOV     A,#0x1
   \   000010   F0           MOVX    @DPTR,A
    204            SampleApp_TransID = 0;        //消息发送ID（多消息时有顺序之分）
   \   000011   90....       MOV     DPTR,#SampleApp_TransID
   \   000014   E4           CLR     A
   \   000015   F0           MOVX    @DPTR,A
    205            //模块初始化
    206            P0SEL &= ~0x40;                 //设置P0.6为普通IO口 土壤湿度
   \   000016   53F3BF       ANL     0xf3,#0xbf
    207            P0DIR &= ~0x40;                 //P0.6定义为输入口
   \   000019   53FDBF       ANL     0xfd,#0xbf
    208            P1DIR |=0X02;//LED
   \   00001C   43FE02       ORL     0xfe,#0x2
    209            P1DIR |=0X08;//水泵继电器
   \   00001F   43FE08       ORL     0xfe,#0x8
    210            LIGHT_INIT();
   \   000022   53F3CF       ANL     0xf3,#0xcf
   \   000025   43FD30       ORL     0xfd,#0x30
   \   000028   D285         SETB    0x80.5
   \   00002A   D284         SETB    0x80.4
    211            //串口配置
    212            MT_UartInit();
   \   00002C                ; Setup parameters for call to function MT_UartInit
   \   00002C   12....       LCALL   ??MT_UartInit?relay
    213            MT_UartRegisterTaskID(task_id);  
   \   00002F                ; Setup parameters for call to function MT_UartRegisterTaskID
   \   00002F   EE           MOV     A,R6
   \   000030   F9           MOV     R1,A
   \   000031   12....       LCALL   ??MT_UartRegisterTaskID?relay
    214            HalUARTWrite(0,"UartInit OK\n", sizeof("UartInit OK\n")); 
   \   000034                ; Setup parameters for call to function HalUARTWrite
   \   000034   7C0D         MOV     R4,#0xd
   \   000036   7D00         MOV     R5,#0x0
   \   000038   7A..         MOV     R2,#`?<Constant "UartInit OK\\n">` & 0xff
   \   00003A   7B..         MOV     R3,#(`?<Constant "UartInit OK\\n">` >> 8) & 0xff
   \   00003C   7900         MOV     R1,#0x0
   \   00003E   12....       LCALL   ??HalUARTWrite?relay
    215            
    216          
    217            // Device hardware initialization can be added here or in main() (Zmain.c).
    218            // If the hardware is application specific - add it here.
    219            // If the hardware is other parts of the device add it in main().
    220          
    221          #if defined ( BUILD_ALL_DEVICES )
    222            // The "Demo" target is setup to have BUILD_ALL_DEVICES and HOLD_AUTO_START
    223            // We are looking at a jumper (defined in SampleAppHw.c) to be jumpered
    224            // together - if they are - we will start up a coordinator. Otherwise,
    225            // the device will start as a router.
    226            if ( readCoordinatorJumper() )
    227              zgDeviceLogicalType = ZG_DEVICETYPE_COORDINATOR;
    228            else
    229              zgDeviceLogicalType = ZG_DEVICETYPE_ROUTER;
    230          #endif // BUILD_ALL_DEVICES
    231          
    232          //该段的意思是，如果设置了HOLD_AUTO_START宏定义，将会在启动芯片的时候会暂停启动
    233          //流程，只有外部触发以后才会启动芯片。其实就是需要一个按钮触发它的启动流程。  
    234          #if defined ( HOLD_AUTO_START )
    235            // HOLD_AUTO_START is a compile option that will surpress ZDApp
    236            //  from starting the device and wait for the application to
    237            //  start the device.
    238            ZDOInitDevice(0);
    239          #endif
    240          
    241            // Setup for the periodic message's destination address 设置发送数据的方式和目的地址寻址模式
    242            // Broadcast to everyone 发送模式:广播发送
    243            SampleApp_Periodic_DstAddr.addrMode = (afAddrMode_t)AddrBroadcast;//广播
   \   000041   90....       MOV     DPTR,#SampleApp_Periodic_DstAddr + 8
   \   000044   740F         MOV     A,#0xf
   \   000046   F0           MOVX    @DPTR,A
    244            SampleApp_Periodic_DstAddr.endPoint = SAMPLEAPP_ENDPOINT; //指定端点号
   \   000047   A3           INC     DPTR
   \   000048   7414         MOV     A,#0x14
   \   00004A   F0           MOVX    @DPTR,A
    245            SampleApp_Periodic_DstAddr.addr.shortAddr = 0xFFFF;//指定目的网络地址为广播地址
   \   00004B   90....       MOV     DPTR,#SampleApp_Periodic_DstAddr
   \   00004E   74FF         MOV     A,#-0x1
   \   000050   F0           MOVX    @DPTR,A
   \   000051   A3           INC     DPTR
   \   000052   F0           MOVX    @DPTR,A
    246          
    247            // Setup for the flash command's destination address - Group 1 组播发送
    248            SampleApp_Flash_DstAddr.addrMode = (afAddrMode_t)afAddrGroup; //组寻址
   \   000053   90....       MOV     DPTR,#SampleApp_Flash_DstAddr + 8
   \   000056   7401         MOV     A,#0x1
   \   000058   F0           MOVX    @DPTR,A
    249            SampleApp_Flash_DstAddr.endPoint = SAMPLEAPP_ENDPOINT; //指定端点号
   \   000059   A3           INC     DPTR
   \   00005A   7414         MOV     A,#0x14
   \   00005C   F0           MOVX    @DPTR,A
    250            SampleApp_Flash_DstAddr.addr.shortAddr = SAMPLEAPP_FLASH_GROUP;//组号0x0001
   \   00005D   90....       MOV     DPTR,#SampleApp_Flash_DstAddr
   \   000060   7401         MOV     A,#0x1
   \   000062   F0           MOVX    @DPTR,A
   \   000063   A3           INC     DPTR
   \   000064   E4           CLR     A
   \   000065   F0           MOVX    @DPTR,A
    251          
    252            // Fill out the endpoint description. 定义本设备用来通信的APS层端点描述符
    253            SampleApp_epDesc.endPoint = SAMPLEAPP_ENDPOINT; //指定端点号
   \   000066   90....       MOV     DPTR,#SampleApp_epDesc
   \   000069   7414         MOV     A,#0x14
   \   00006B   F0           MOVX    @DPTR,A
    254            SampleApp_epDesc.task_id = &SampleApp_TaskID;   //SampleApp 描述符的任务ID
   \   00006C   A3           INC     DPTR
   \   00006D   74..         MOV     A,#SampleApp_TaskID & 0xff
   \   00006F   F0           MOVX    @DPTR,A
   \   000070   A3           INC     DPTR
   \   000071   74..         MOV     A,#(SampleApp_TaskID >> 8) & 0xff
   \   000073   F0           MOVX    @DPTR,A
    255            SampleApp_epDesc.simpleDesc
    256                      = (SimpleDescriptionFormat_t *)&SampleApp_SimpleDesc;//SampleApp简单描述符
   \   000074   A3           INC     DPTR
   \   000075   74..         MOV     A,#SampleApp_SimpleDesc & 0xff
   \   000077   F0           MOVX    @DPTR,A
   \   000078   A3           INC     DPTR
   \   000079   74..         MOV     A,#(SampleApp_SimpleDesc >> 8) & 0xff
   \   00007B   F0           MOVX    @DPTR,A
    257            SampleApp_epDesc.latencyReq = noLatencyReqs;    //延时策略
   \   00007C   A3           INC     DPTR
   \   00007D   E4           CLR     A
   \   00007E   F0           MOVX    @DPTR,A
    258          
    259            // Register the endpoint description with the AF
    260            afRegister( &SampleApp_epDesc );    //向AF层登记描述符
   \   00007F                ; Setup parameters for call to function afRegister
   \   00007F   7A..         MOV     R2,#SampleApp_epDesc & 0xff
   \   000081   7B..         MOV     R3,#(SampleApp_epDesc >> 8) & 0xff
   \   000083   12....       LCALL   ??afRegister?relay
    261          
    262            // Register for all key events - This app will handle all key events
    263            RegisterForKeys( SampleApp_TaskID ); // 登记所有的按键事件
   \   000086                ; Setup parameters for call to function RegisterForKeys
   \   000086   90....       MOV     DPTR,#SampleApp_TaskID
   \   000089   E0           MOVX    A,@DPTR
   \   00008A   F9           MOV     R1,A
   \   00008B   12....       LCALL   ??RegisterForKeys?relay
    264          
    265            // By default, all devices start out in Group 1
    266            SampleApp_Group.ID = 0x0001;//组号
   \   00008E   90....       MOV     DPTR,#SampleApp_Group
   \   000091   7401         MOV     A,#0x1
   \   000093   F0           MOVX    @DPTR,A
   \   000094   A3           INC     DPTR
   \   000095   E4           CLR     A
   \   000096   F0           MOVX    @DPTR,A
    267            osal_memcpy( SampleApp_Group.name, "Group 1", 7  );//设定组名
   \   000097                ; Setup parameters for call to function osal_memcpy
   \   000097   75....       MOV     ?V0 + 0,#`?<Constant "Group 1">` & 0xff
   \   00009A   75....       MOV     ?V0 + 1,#(`?<Constant "Group 1">` >> 8) & 0xff
   \   00009D   F5..         MOV     ?V0 + 2,A
   \   00009F   78..         MOV     R0,#?V0 + 0
   \   0000A1   12....       LCALL   ?PUSH_XSTACK_I_THREE
   \   0000A4   7C07         MOV     R4,#0x7
   \   0000A6   7D00         MOV     R5,#0x0
   \   0000A8   7A..         MOV     R2,#(SampleApp_Group + 2) & 0xff
   \   0000AA   7B..         MOV     R3,#((SampleApp_Group + 2) >> 8) & 0xff
   \   0000AC   12....       LCALL   ??osal_memcpy?relay
   \   0000AF   7403         MOV     A,#0x3
   \   0000B1   12....       LCALL   ?DEALLOC_XSTACK8
    268            aps_AddGroup( SAMPLEAPP_ENDPOINT, &SampleApp_Group );//把该组登记添加到APS中
   \   0000B4                ; Setup parameters for call to function aps_AddGroup
   \   0000B4   7A..         MOV     R2,#SampleApp_Group & 0xff
   \   0000B6   7B..         MOV     R3,#(SampleApp_Group >> 8) & 0xff
   \   0000B8   7914         MOV     R1,#0x14
   \   0000BA   12....       LCALL   ??aps_AddGroup?relay
    269          
    270          #if defined ( LCD_SUPPORTED )
    271            HalLcdWriteString( "SampleApp", HAL_LCD_LINE_1 ); //如果支持LCD，显示提示信息
   \   0000BD                ; Setup parameters for call to function HalLcdWriteString
   \   0000BD   7900         MOV     R1,#0x0
   \   0000BF   7A..         MOV     R2,#`?<Constant "SampleApp">` & 0xff
   \   0000C1   7B..         MOV     R3,#(`?<Constant "SampleApp">` >> 8) & 0xff
   \   0000C3   12....       LCALL   ??HalLcdWriteString?relay
    272          #endif
    273          }
   \   0000C6                REQUIRE ?Subroutine1
   \   0000C6                REQUIRE P0SEL
   \   0000C6                REQUIRE P0DIR
   \   0000C6                REQUIRE P1DIR
   \   0000C6                REQUIRE _A_P0
   \   0000C6                ; // Fall through to label ?Subroutine1

   \                                 In  segment BANKED_CODE, align 1, keep-with-next
   \                     ?Subroutine1:
   \   000000   7F03         MOV     R7,#0x3
   \   000002   02....       LJMP    ?BANKED_LEAVE_XDATA
    274          
    275          /*********************************************************************
    276           * @fn      SampleApp_ProcessEvent
    277           *
    278           * @brief   Generic Application Task event processor.  This function
    279           *          is called to process all events for the task.  Events
    280           *          include timers, messages and any other user defined events.
    281           *
    282           * @param   task_id  - The OSAL assigned task ID.
    283           * @param   events - events to process.  This is a bit map and can
    284           *                   contain more than one event.
    285           *
    286           * @return  none
    287           */
    288          //用户应用任务的事件处理函数

   \                                 In  segment BANKED_CODE, align 1, keep-with-next
    289          uint16 SampleApp_ProcessEvent( uint8 task_id, uint16 events )
   \                     SampleApp_ProcessEvent:
    290          {
   \   000000   74F4         MOV     A,#-0xc
   \   000002   12....       LCALL   ?BANKED_ENTER_XDATA
   \   000005                ; Saved register size: 12
   \   000005                ; Auto size: 0
   \   000005   EA           MOV     A,R2
   \   000006   FE           MOV     R6,A
   \   000007   EB           MOV     A,R3
   \   000008   FF           MOV     R7,A
    291            afIncomingMSGPacket_t *MSGpkt;
    292            (void)task_id;  // Intentionally unreferenced parameter
    293          
    294            if ( events & SYS_EVENT_MSG ) //接收系统消息再进行判断
   \   000009   5480         ANL     A,#0x80
   \   00000B   6074         JZ      ??SampleApp_ProcessEvent_0
    295            {
    296              //接收属于本应用任务SampleApp的消息，以SampleApp_TaskID标记
    297              MSGpkt = (afIncomingMSGPacket_t *)osal_msg_receive( SampleApp_TaskID );
   \   00000D                ; Setup parameters for call to function osal_msg_receive
   \   00000D   8026         SJMP    ??SampleApp_ProcessEvent_1
    298              while ( MSGpkt )
    299              {
    300                switch ( MSGpkt->hdr.event )
    301                {
    302                  // Received when a key is pressed
    303                  case KEY_CHANGE://按键事件
    304                    SampleApp_HandleKeys( ((keyChange_t *)MSGpkt)->state, ((keyChange_t *)MSGpkt)->keys );
    305                    break;
    306          
    307                  // Received when a messages is received (OTA) for this endpoint
    308                case AF_INCOMING_MSG_CMD://接收数据事件,调用函数AF_DataRequest()接收数据
    309                    SampleApp_MessageMSGCB( MSGpkt );//调用回调函数对收到的数据进行处理
    310                    break;
    311          
    312                  // Received whenever the device changes state in the network
    313                  case ZDO_STATE_CHANGE:
    314                    //只要网络状态发生改变，就通过ZDO_STATE_CHANGE事件通知所有的任务。
    315                    //同时完成对协调器，路由器，终端的设置
    316                    SampleApp_NwkState = (devStates_t)(MSGpkt->hdr.status);
   \                     ??SampleApp_ProcessEvent_2:
   \   00000F   A3           INC     DPTR
   \   000010   E0           MOVX    A,@DPTR
   \   000011   90....       MOV     DPTR,#SampleApp_NwkState
   \   000014   F0           MOVX    @DPTR,A
    317                    //if ( (SampleApp_NwkState == DEV_ZB_COORD)//实验中协调器只接收数据所以取消发送事件
    318                    if ( (SampleApp_NwkState == DEV_ROUTER) || (SampleApp_NwkState == DEV_END_DEVICE) )
   \   000015   6407         XRL     A,#0x7
   \   000017   6005         JZ      ??SampleApp_ProcessEvent_3
   \   000019   E0           MOVX    A,@DPTR
   \   00001A   6406         XRL     A,#0x6
   \   00001C   7010         JNZ     ??SampleApp_ProcessEvent_4
    319                    {
    320                      // Start sending the periodic message in a regular interval.
    321                      //这个定时器只是为发送周期信息开启的，设备启动初始化后从这里开始
    322                      //触发第一个周期信息的发送，然后周而复始下去
    323                      osal_start_timerEx( SampleApp_TaskID,
    324                                        SAMPLEAPP_SEND_PERIODIC_MSG_EVT,
    325                                        SAMPLEAPP_SEND_PERIODIC_MSG_TIMEOUT );
   \                     ??SampleApp_ProcessEvent_3:
   \   00001E                ; Setup parameters for call to function osal_start_timerEx
   \   00001E   7CE8         MOV     R4,#-0x18
   \   000020   7D03         MOV     R5,#0x3
   \   000022   7A01         MOV     R2,#0x1
   \   000024   7B00         MOV     R3,#0x0
   \   000026   90....       MOV     DPTR,#SampleApp_TaskID
   \   000029   E0           MOVX    A,@DPTR
   \   00002A   F9           MOV     R1,A
   \   00002B   12....       LCALL   ??osal_start_timerEx?relay
    326                     
    327                    }
    328                    else
    329                    {
    330                        
    331                    }
    332                    break;
    333          
    334                  default:
    335                    break;
    336                }
    337          
    338                // Release the memory 事件处理完了，释放消息占用的内存
    339                osal_msg_deallocate( (uint8 *)MSGpkt );
   \                     ??SampleApp_ProcessEvent_4:
   \   00002E                ; Setup parameters for call to function osal_msg_deallocate
   \   00002E   AA..         MOV     R2,?V0 + 0
   \   000030   AB..         MOV     R3,?V0 + 1
   \   000032   12....       LCALL   ??osal_msg_deallocate?relay
    340             
    341                // Next - if one is available 指针指向下一个放在缓冲区的待处理的事件，
    342                //返回while ( MSGpkt )重新处理事件，直到缓冲区没有等待处理事件为止
    343                MSGpkt = (afIncomingMSGPacket_t *)osal_msg_receive( SampleApp_TaskID );
   \   000035                ; Setup parameters for call to function osal_msg_receive
   \                     ??SampleApp_ProcessEvent_1:
   \   000035   90....       MOV     DPTR,#SampleApp_TaskID
   \   000038   E0           MOVX    A,@DPTR
   \   000039   F9           MOV     R1,A
   \   00003A   12....       LCALL   ??osal_msg_receive?relay
   \   00003D   8A..         MOV     ?V0 + 0,R2
   \   00003F   8B..         MOV     ?V0 + 1,R3
   \   000041   E5..         MOV     A,?V0 + 0
   \   000043   45..         ORL     A,?V0 + 1
   \   000045   6032         JZ      ??SampleApp_ProcessEvent_5
   \   000047   85..82       MOV     DPL,?V0 + 0
   \   00004A   85..83       MOV     DPH,?V0 + 1
   \   00004D   E0           MOVX    A,@DPTR
   \   00004E   24E6         ADD     A,#-0x1a
   \   000050   601E         JZ      ??SampleApp_ProcessEvent_6
   \   000052   245A         ADD     A,#0x5a
   \   000054   6006         JZ      ??SampleApp_ProcessEvent_7
   \   000056   24EF         ADD     A,#-0x11
   \   000058   60B5         JZ      ??SampleApp_ProcessEvent_2
   \   00005A   80D2         SJMP    ??SampleApp_ProcessEvent_4
   \                     ??SampleApp_ProcessEvent_7:
   \   00005C                ; Setup parameters for call to function SampleApp_HandleKeys
   \   00005C   A3           INC     DPTR
   \   00005D   A3           INC     DPTR
   \   00005E   A3           INC     DPTR
   \   00005F   E0           MOVX    A,@DPTR
   \   000060   FA           MOV     R2,A
   \   000061   85..82       MOV     DPL,?V0 + 0
   \   000064   85..83       MOV     DPH,?V0 + 1
   \   000067   A3           INC     DPTR
   \   000068   A3           INC     DPTR
   \   000069   E0           MOVX    A,@DPTR
   \   00006A   F9           MOV     R1,A
   \   00006B   12....       LCALL   ??SampleApp_HandleKeys?relay
   \   00006E   80BE         SJMP    ??SampleApp_ProcessEvent_4
   \                     ??SampleApp_ProcessEvent_6:
   \   000070                ; Setup parameters for call to function SampleApp_MessageMSGCB
   \   000070   AA..         MOV     R2,?V0 + 0
   \   000072   AB..         MOV     R3,?V0 + 1
   \   000074   12....       LCALL   ??SampleApp_MessageMSGCB?relay
   \   000077   80B5         SJMP    ??SampleApp_ProcessEvent_4
    344              }
    345          
    346              // return unprocessed events 返回未处理的事件
    347              return (events ^ SYS_EVENT_MSG);
   \                     ??SampleApp_ProcessEvent_5:
   \   000079   EE           MOV     A,R6
   \   00007A   FA           MOV     R2,A
   \   00007B   EF           MOV     A,R7
   \   00007C   6480         XRL     A,#0x80
   \                     ??SampleApp_ProcessEvent_8:
   \   00007E   FB           MOV     R3,A
   \   00007F   802A         SJMP    ??SampleApp_ProcessEvent_9
    348            }
    349          
    350            // Send a message out - This event is generated by a timer
    351            //  (setup in SampleApp_Init()).
    352            if ( events & SAMPLEAPP_SEND_PERIODIC_MSG_EVT )
   \                     ??SampleApp_ProcessEvent_0:
   \   000081   EE           MOV     A,R6
   \   000082   A2E0         MOV     C,0xE0 /* A   */.0
   \   000084   5021         JNC     ??SampleApp_ProcessEvent_10
    353            {
    354              // Send the periodic message 处理周期性事件，
    355              //利用SampleApp_SendPeriodicMessage()处理完当前的周期性事件，然后启动定时器
    356              //开启下一个周期性事情，这样一种循环下去，也即是上面说的周期性事件了，
    357              //可以做为传感器定时采集、上传任务
    358              SampleApp_SendPeriodicMessage();
   \   000086                ; Setup parameters for call to function SampleApp_SendPeriodicMessage
   \   000086   12....       LCALL   ??SampleApp_SendPeriodicMessage?relay
    359              
    360              // Setup to send message again in normal period (+ a little jitter)
    361              osal_start_timerEx( SampleApp_TaskID, SAMPLEAPP_SEND_PERIODIC_MSG_EVT,
    362                  (SAMPLEAPP_SEND_PERIODIC_MSG_TIMEOUT + (osal_rand() & 0x00FF)) );
   \   000089                ; Setup parameters for call to function osal_rand
   \   000089   12....       LCALL   ??osal_rand?relay
   \   00008C                ; Setup parameters for call to function osal_start_timerEx
   \   00008C   EA           MOV     A,R2
   \   00008D   24E8         ADD     A,#-0x18
   \   00008F   FC           MOV     R4,A
   \   000090   E4           CLR     A
   \   000091   3403         ADDC    A,#0x3
   \   000093   FD           MOV     R5,A
   \   000094   7A01         MOV     R2,#0x1
   \   000096   7B00         MOV     R3,#0x0
   \   000098   90....       MOV     DPTR,#SampleApp_TaskID
   \   00009B   E0           MOVX    A,@DPTR
   \   00009C   F9           MOV     R1,A
   \   00009D   12....       LCALL   ??osal_start_timerEx?relay
    363          
    364              // return unprocessed events 返回未处理的事件
    365              return (events ^ SAMPLEAPP_SEND_PERIODIC_MSG_EVT);
   \   0000A0   EE           MOV     A,R6
   \   0000A1   6401         XRL     A,#0x1
   \   0000A3   FA           MOV     R2,A
   \   0000A4   EF           MOV     A,R7
   \   0000A5   80D7         SJMP    ??SampleApp_ProcessEvent_8
    366            }
    367          
    368            // Discard unknown events
    369            return 0;
   \                     ??SampleApp_ProcessEvent_10:
   \   0000A7   7A00         MOV     R2,#0x0
   \   0000A9   7B00         MOV     R3,#0x0
   \                     ??SampleApp_ProcessEvent_9:
   \   0000AB   7F04         MOV     R7,#0x4
   \   0000AD   02....       LJMP    ?BANKED_LEAVE_XDATA
    370          }
    371          
    372          /*********************************************************************
    373           * Event Generation Functions
    374           */
    375          /*********************************************************************
    376           * @fn      SampleApp_HandleKeys
    377           *
    378           * @brief   Handles all key events for this device.
    379           *
    380           * @param   shift - true if in shift/alt.
    381           * @param   keys - bit field for key events. Valid entries:
    382           *                 HAL_KEY_SW_2
    383           *                 HAL_KEY_SW_1
    384           *
    385           * @return  none
    386           */

   \                                 In  segment BANKED_CODE, align 1, keep-with-next
    387          void SampleApp_HandleKeys( uint8 shift, uint8 keys )  
   \                     SampleApp_HandleKeys:
    388          {
   \   000000   74F7         MOV     A,#-0x9
   \   000002   12....       LCALL   ?BANKED_ENTER_XDATA
   \   000005                ; Saved register size: 9
   \   000005                ; Auto size: 0
   \   000005   EA           MOV     A,R2
    389            (void)shift;  // Intentionally unreferenced parameter
    390            
    391            if ( keys & HAL_KEY_SW_1 )
   \   000006   A2E0         MOV     C,0xE0 /* A   */.0
   \   000008   5007         JNC     ??SampleApp_HandleKeys_0
    392            {
    393              /* This key sends the Flash Command is sent to Group 1.
    394               * This device will not receive the Flash Command from this
    395               * device (even if it belongs to group 1).
    396               */
    397             SampleApp_SendFlashMessage( SAMPLEAPP_FLASH_DURATION );
   \   00000A                ; Setup parameters for call to function SampleApp_SendFlashMessage
   \   00000A   7AE8         MOV     R2,#-0x18
   \   00000C   7B03         MOV     R3,#0x3
   \   00000E   12....       LCALL   ??SampleApp_SendFlashMessage?relay
    398             
    399              
    400            
    401            }
    402          
    403            if ( keys & HAL_KEY_SW_6 )
    404            {
    405              /* The Flashr Command is sent to Group 1.
    406               * This key toggles this device in and out of group 1.
    407               * If this device doesn't belong to group 1, this application
    408               * will not receive the Flash command sent to group 1.
    409               */
    410            
    411             /*
    412              aps_Group_t *grp;
    413              grp = aps_FindGroup( SAMPLEAPP_ENDPOINT, SAMPLEAPP_FLASH_GROUP );
    414              if ( grp )
    415              {
    416                // Remove from the group
    417                aps_RemoveGroup( SAMPLEAPP_ENDPOINT, SAMPLEAPP_FLASH_GROUP );
    418              }
    419              else
    420              {
    421                // Add to the flash group
    422                aps_AddGroup( SAMPLEAPP_ENDPOINT, &SampleApp_Group );
    423              }
    424             */
    425            }
    426          }
   \                     ??SampleApp_HandleKeys_0:
   \   000011   7F01         MOV     R7,#0x1
   \   000013   02....       LJMP    ?BANKED_LEAVE_XDATA
    427          
    428          /*********************************************************************
    429           * LOCAL FUNCTIONS
    430           */
    431          
    432          /*********************************************************************
    433           * @fn      SampleApp_MessageMSGCB
    434           *
    435           * @brief   Data message processor callback.  This function processes
    436           *          any incoming data - probably from other devices.  So, based
    437           *          on cluster ID, perform the intended action.
    438           *
    439           * @param   none
    440           *
    441           * @return  none
    442           */
    443          //接收数据，参数为接收到的数据

   \                                 In  segment BANKED_CODE, align 1, keep-with-next
    444          void SampleApp_MessageMSGCB( afIncomingMSGPacket_t *pkt )
   \                     SampleApp_MessageMSGCB:
    445          {
   \   000000   74F5         MOV     A,#-0xb
   \   000002   12....       LCALL   ?BANKED_ENTER_XDATA
   \   000005                ; Saved register size: 11
   \   000005                ; Auto size: 14
   \   000005   74F2         MOV     A,#-0xe
   \   000007   12....       LCALL   ?ALLOC_XSTACK8
   \   00000A   EA           MOV     A,R2
   \   00000B   FE           MOV     R6,A
   \   00000C   EB           MOV     A,R3
   \   00000D   FF           MOV     R7,A
    446            uint16 flashTime;
    447            unsigned short len = 6+3+4+1;
    448            byte buf[6+3+4+1]={0}; 
   \   00000E   85..82       MOV     DPL,?XSP + 0
   \   000011   85..83       MOV     DPH,?XSP + 1
   \   000014   AC82         MOV     R4,DPL
   \   000016   AD83         MOV     R5,DPH
   \   000018   7583..       MOV     DPH,#(`?<Constant {0}>` >> 8) & 0xff
   \   00001B   7582..       MOV     DPL,#`?<Constant {0}>` & 0xff
   \   00001E   740E         MOV     A,#0xe
   \   000020   12....       LCALL   ?MOVE_LONG8_XDATA_XDATA
    449            
    450            switch ( pkt->clusterId ) //判断簇ID
   \   000023   8E82         MOV     DPL,R6
   \   000025   8F83         MOV     DPH,R7
   \   000027   A3           INC     DPTR
   \   000028   A3           INC     DPTR
   \   000029   A3           INC     DPTR
   \   00002A   A3           INC     DPTR
   \   00002B   E0           MOVX    A,@DPTR
   \   00002C   F5..         MOV     ?V0 + 0,A
   \   00002E   A3           INC     DPTR
   \   00002F   E0           MOVX    A,@DPTR
   \   000030   F5..         MOV     ?V0 + 1,A
   \   000032   78..         MOV     R0,#?V0 + 0
   \   000034   12....       LCALL   ?US_SWITCH_DENSE
   \                     `?<Jumptable for SampleApp_MessageMSGCB>_0`:
   \   000037   0100         DW        1
   \   000039   01           DB        1
   \   00003A   ....         DW        ??SampleApp_MessageMSGCB_0
   \   00003C   ....         DW        ??SampleApp_MessageMSGCB_1
   \   00003E   ....         DW        ??SampleApp_MessageMSGCB_2
    451            {
    452              case SAMPLEAPP_PERIODIC_CLUSTERID: //收到广播数据
    453          #ifndef ZDO_COORDINATOR
    454                //节点
    455                len = 4;
    456                osal_memset(buf, 0 , len);
    457                osal_memcpy(buf, pkt->cmd.Data, len);
    458                if(osal_memcmp(buf,"AT1",3)){
    459                  Auto ^=1;
    460                  LED^=1;
    461                }
    462                else if(osal_memcmp(buf,"AT2",3)){
    463                  Auto^=1;
    464                  PUMP^=1;
    465                }
    466                 HalUARTWrite(0,buf, len);      
    467          #else
    468                //协调器
    469                osal_memset(buf, 0 , len);
   \                     ??SampleApp_MessageMSGCB_1:
   \   000040                ; Setup parameters for call to function osal_memset
   \   000040   7C0E         MOV     R4,#0xe
   \   000042   7D00         MOV     R5,#0x0
   \   000044   7900         MOV     R1,#0x0
   \   000046   85..82       MOV     DPL,?XSP + 0
   \   000049   85..83       MOV     DPH,?XSP + 1
   \   00004C   AA82         MOV     R2,DPL
   \   00004E   AB83         MOV     R3,DPH
   \   000050   12....       LCALL   ??osal_memset?relay
    470                osal_memcpy(buf, pkt->cmd.Data, len);
   \   000053                ; Setup parameters for call to function osal_memcpy
   \   000053   12....       LCALL   ?Subroutine4 & 0xFFFF
   \                     ??CrossCallReturnLabel_0:
   \   000056   F5..         MOV     ?V0 + 0,A
   \   000058   A3           INC     DPTR
   \   000059   E0           MOVX    A,@DPTR
   \   00005A   F5..         MOV     ?V0 + 1,A
   \   00005C   75..00       MOV     ?V0 + 2,#0x0
   \   00005F   78..         MOV     R0,#?V0 + 0
   \   000061   12....       LCALL   ?PUSH_XSTACK_I_THREE
   \   000064   7C0E         MOV     R4,#0xe
   \   000066   7D00         MOV     R5,#0x0
   \   000068   7403         MOV     A,#0x3
   \   00006A   12....       LCALL   ?XSTACK_DISP0_8
   \   00006D   AA82         MOV     R2,DPL
   \   00006F   AB83         MOV     R3,DPH
   \   000071   12....       LCALL   ??osal_memcpy?relay
   \   000074   7403         MOV     A,#0x3
   \   000076   12....       LCALL   ?DEALLOC_XSTACK8
    471                HalUARTWrite(0,buf, len);      
   \   000079                ; Setup parameters for call to function HalUARTWrite
   \   000079   7C0E         MOV     R4,#0xe
   \   00007B   7D00         MOV     R5,#0x0
   \   00007D   85..82       MOV     DPL,?XSP + 0
   \   000080   85..83       MOV     DPH,?XSP + 1
   \   000083   AA82         MOV     R2,DPL
   \   000085   AB83         MOV     R3,DPH
   \   000087   7900         MOV     R1,#0x0
   \   000089   12....       LCALL   ??HalUARTWrite?relay
    472                if(AT1||AT2){
   \   00008C   12....       LCALL   ?Subroutine3 & 0xFFFF
   \                     ??CrossCallReturnLabel_4:
   \   00008F   7008         JNZ     ??SampleApp_MessageMSGCB_3
   \   000091   90....       MOV     DPTR,#AT2
   \   000094   12....       LCALL   ??Subroutine5_0 & 0xFFFF
   \                     ??CrossCallReturnLabel_2:
   \   000097   6038         JZ      ??SampleApp_MessageMSGCB_0
    473                  //HalUARTWrite(0,"send\n",5);
    474                  SampleApp_SendPeriodicMessage();
   \                     ??SampleApp_MessageMSGCB_3:
   \   000099                ; Setup parameters for call to function SampleApp_SendPeriodicMessage
   \   000099   12....       LCALL   ??SampleApp_SendPeriodicMessage?relay
   \   00009C   8033         SJMP    ??SampleApp_MessageMSGCB_0
    475                }
   \                     ??SampleApp_MessageMSGCB_2:
   \   00009E   12....       LCALL   ?Subroutine4 & 0xFFFF
   \                     ??CrossCallReturnLabel_1:
   \   0000A1   F8           MOV     R0,A
   \   0000A2   A3           INC     DPTR
   \   0000A3   E0           MOVX    A,@DPTR
   \   0000A4   F9           MOV     R1,A
   \   0000A5                ; Setup parameters for call to function HalLedBlink
   \   0000A5   8882         MOV     DPL,R0
   \   0000A7   8983         MOV     DPH,R1
   \   0000A9   A3           INC     DPTR
   \   0000AA   E0           MOVX    A,@DPTR
   \   0000AB   FA           MOV     R2,A
   \   0000AC   8882         MOV     DPL,R0
   \   0000AE   8983         MOV     DPH,R1
   \   0000B0   A3           INC     DPTR
   \   0000B1   A3           INC     DPTR
   \   0000B2   E0           MOVX    A,@DPTR
   \   0000B3   F9           MOV     R1,A
   \   0000B4   EA           MOV     A,R2
   \   0000B5   2400         ADD     A,#0x0
   \   0000B7   F5..         MOV     ?V0 + 0,A
   \   0000B9   E4           CLR     A
   \   0000BA   39           ADDC    A,R1
   \   0000BB   F5..         MOV     ?V0 + 1,A
   \   0000BD   7402         MOV     A,#0x2
   \   0000BF   78..         MOV     R0,#?V0 + 0
   \   0000C1   12....       LCALL   ?US_SHR
   \   0000C4   AC..         MOV     R4,?V0 + 0
   \   0000C6   AD..         MOV     R5,?V0 + 1
   \   0000C8   7B32         MOV     R3,#0x32
   \   0000CA   7A04         MOV     R2,#0x4
   \   0000CC   7908         MOV     R1,#0x8
    476          #endif
    477                break;
    478          
    479              case SAMPLEAPP_FLASH_CLUSTERID: //收到组播数据  
    480                flashTime = BUILD_UINT16(pkt->cmd.Data[1], pkt->cmd.Data[2] );
    481                HalLedBlink( HAL_LED_4, 4, 50, (flashTime / 4) );
   \   0000CE   12....       LCALL   ??HalLedBlink?relay
    482                break;
    483            case SAMPLEAPP_P2P_CLUSTERID:
    484           
    485              break;
    486            }
    487          }
   \                     ??SampleApp_MessageMSGCB_0:
   \   0000D1   740E         MOV     A,#0xe
   \   0000D3   12....       LCALL   ?DEALLOC_XSTACK8
   \   0000D6   02....       LJMP    ?Subroutine1 & 0xFFFF

   \                                 In  segment BANKED_CODE, align 1, keep-with-next
   \                     ?Subroutine4:
   \   000000   EE           MOV     A,R6
   \   000001   2422         ADD     A,#0x22
   \   000003   F582         MOV     DPL,A
   \   000005   EF           MOV     A,R7
   \   000006   3400         ADDC    A,#0x0
   \   000008   F583         MOV     DPH,A
   \   00000A   E0           MOVX    A,@DPTR
   \   00000B   22           RET

   \                                 In  segment BANKED_CODE, align 1, keep-with-next
   \                     ?Subroutine3:
   \   000000   90....       MOV     DPTR,#AT1
   \   000003                REQUIRE ??Subroutine5_0
   \   000003                ; // Fall through to label ??Subroutine5_0

   \                                 In  segment BANKED_CODE, align 1, keep-with-next
   \                     ??Subroutine5_0:
   \   000000   E0           MOVX    A,@DPTR
   \   000001   F8           MOV     R0,A
   \   000002   A3           INC     DPTR
   \   000003   E0           MOVX    A,@DPTR
   \   000004   F9           MOV     R1,A
   \   000005   E8           MOV     A,R0
   \   000006   49           ORL     A,R1
   \   000007   22           RET
    488          
    489          /*********************************************************************
    490           * @fn      SampleApp_SendPeriodicMessage
    491           *
    492           * @brief   Send the periodic message.
    493           *
    494           * @param   none
    495           *
    496           * @return  none
    497           */
    498          //分析发送周期信息

   \                                 In  segment BANKED_CODE, align 1, keep-with-next
    499          void SampleApp_SendPeriodicMessage( void )
   \                     SampleApp_SendPeriodicMessage:
    500          { 
   \   000000   74F6         MOV     A,#-0xa
   \   000002   12....       LCALL   ?BANKED_ENTER_XDATA
   \   000005                ; Saved register size: 10
   \   000005                ; Auto size: 4
   \   000005   74FC         MOV     A,#-0x4
   \   000007   12....       LCALL   ?ALLOC_XSTACK8
    501            
    502          #ifndef ZDO_COORDINATOR 
    503            //获得的数据通过串口输出到电脑显示  
    504            char str[6+3+4+1]={0};
    505            //获取温湿度
    506            unsigned char temp_humi[6]={0};
    507            strcpy(temp_humi,DHT11());
    508           //获取土壤湿度
    509            uint16 humi = ReadHumidityData();
    510            //获取光强
    511            uint16 lt = get_light();
    512            if(Auto){
    513              LED = lt<400?1:0;
    514              PUMP = humi>110?1:0;
    515            }
    516            sprintf(str,"%s%3d%4d\n",temp_humi,humi,lt);
    517            HalUARTWrite(0,str,sizeof(str));
    518          
    519             // 调用AF_DataRequest将数据无线广播出去
    520            if( AF_DataRequest( &SampleApp_Periodic_DstAddr,//发送目的地址＋端点地址和传送模式
    521                                 &SampleApp_epDesc,//源(答复或确认)终端的描述（比如操作系统中任务ID等）源EP
    522                                 SAMPLEAPP_PERIODIC_CLUSTERID, //被Profile指定的有效的集群号
    523                                 sizeof(str),       //发送数据长度
    524                                 (uchar*)str,// 发送数据缓冲区
    525                                 &SampleApp_TransID,     // 任务ID号
    526                                 AF_DISCV_ROUTE,      // 有效位掩码的发送选项
    527                                 AF_DEFAULT_RADIUS ) == afStatus_SUCCESS )  //传送跳数，通常设置为AF_DEFAULT_RADIUS
    528            {
    529            }
    530            else
    531            {
    532              HalLedSet(HAL_LED_1, HAL_LED_MODE_ON);
    533              // Error occurred in request to send.
    534            }
    535          #elif defined ZDO_COORDINATOR
    536            //协调器发送
    537            unsigned char str[4]={0};
   \   00000A   85..82       MOV     DPL,?XSP + 0
   \   00000D   85..83       MOV     DPH,?XSP + 1
   \   000010   AC82         MOV     R4,DPL
   \   000012   AD83         MOV     R5,DPH
   \   000014   7583..       MOV     DPH,#(`?<Constant {0}>_1` >> 8) & 0xff
   \   000017   7582..       MOV     DPL,#`?<Constant {0}>_1` & 0xff
   \   00001A   7404         MOV     A,#0x4
   \   00001C   12....       LCALL   ?MOVE_LONG8_XDATA_XDATA
    538            if(AT1){
   \   00001F   12....       LCALL   ?Subroutine3 & 0xFFFF
   \                     ??CrossCallReturnLabel_5:
   \   000022   6016         JZ      ??SampleApp_SendPeriodicMessage_0
    539              sprintf(str,"AT1");
                             ^
Warning[Pe167]: argument of type "unsigned char *" is incompatible with
          parameter of type "char *"
   \   000024                ; Setup parameters for call to function sprintf
   \   000024   7C..         MOV     R4,#`?<Constant "AT1">` & 0xff
   \   000026   7D..         MOV     R5,#(`?<Constant "AT1">` >> 8) & 0xff
   \   000028   85..82       MOV     DPL,?XSP + 0
   \   00002B   85..83       MOV     DPH,?XSP + 1
   \   00002E   AA82         MOV     R2,DPL
   \   000030   AB83         MOV     R3,DPH
   \   000032   12....       LCALL   ??sprintf?relay
    540              AT1 = 0;
   \   000035   90....       MOV     DPTR,#AT1
   \   000038   801C         SJMP    ??SampleApp_SendPeriodicMessage_1
    541            }
    542            else if(AT2){
   \                     ??SampleApp_SendPeriodicMessage_0:
   \   00003A   90....       MOV     DPTR,#AT2
   \   00003D   12....       LCALL   ??Subroutine5_0 & 0xFFFF
   \                     ??CrossCallReturnLabel_3:
   \   000040   6018         JZ      ??SampleApp_SendPeriodicMessage_2
    543              sprintf(str,"AT2");    
                             ^
Warning[Pe167]: argument of type "unsigned char *" is incompatible with
          parameter of type "char *"
   \   000042                ; Setup parameters for call to function sprintf
   \   000042   7C..         MOV     R4,#`?<Constant "AT2">` & 0xff
   \   000044   7D..         MOV     R5,#(`?<Constant "AT2">` >> 8) & 0xff
   \   000046   85..82       MOV     DPL,?XSP + 0
   \   000049   85..83       MOV     DPH,?XSP + 1
   \   00004C   AA82         MOV     R2,DPL
   \   00004E   AB83         MOV     R3,DPH
   \   000050   12....       LCALL   ??sprintf?relay
    544              AT2 = 0;
   \   000053   90....       MOV     DPTR,#AT2
   \                     ??SampleApp_SendPeriodicMessage_1:
   \   000056   E4           CLR     A
   \   000057   F0           MOVX    @DPTR,A
   \   000058   A3           INC     DPTR
   \   000059   F0           MOVX    @DPTR,A
    545            }
    546              // 调用AF_DataRequest将数据无线广播出去
    547            if( AF_DataRequest( &SampleApp_Periodic_DstAddr,//发送目的地址＋端点地址和传送模式
    548                                 &SampleApp_epDesc,//源(答复或确认)终端的描述（比如操作系统中任务ID等）源EP
    549                                 SAMPLEAPP_PERIODIC_CLUSTERID, //被Profile指定的有效的集群号
    550                                 sizeof(str),       //发送数据长度
    551                                 (uchar*)str,// 发送数据缓冲区
    552                                 &SampleApp_TransID,     // 任务ID号
    553                                 AF_DISCV_ROUTE,      // 有效位掩码的发送选项
    554                                 AF_DEFAULT_RADIUS ) == afStatus_SUCCESS )  //传送跳数，通常设置为AF_DEFAULT_RADIUS
   \                     ??SampleApp_SendPeriodicMessage_2:
   \   00005A                ; Setup parameters for call to function AF_DataRequest
   \   00005A   75..1E       MOV     ?V0 + 0,#0x1e
   \   00005D   78..         MOV     R0,#?V0 + 0
   \   00005F   12....       LCALL   ?PUSH_XSTACK_I_ONE
   \   000062   75....       MOV     ?V0 + 0,#SampleApp_TransID & 0xff
   \   000065   75....       MOV     ?V0 + 1,#(SampleApp_TransID >> 8) & 0xff
   \   000068   78..         MOV     R0,#?V0 + 0
   \   00006A   12....       LCALL   ?PUSH_XSTACK_I_TWO
   \   00006D   7403         MOV     A,#0x3
   \   00006F   12....       LCALL   ?XSTACK_DISP0_8
   \   000072   8582..       MOV     ?V0 + 0,DPL
   \   000075   8583..       MOV     ?V0 + 1,DPH
   \   000078   78..         MOV     R0,#?V0 + 0
   \   00007A   12....       LCALL   ?PUSH_XSTACK_I_TWO
   \   00007D   75..04       MOV     ?V0 + 0,#0x4
   \   000080   75..00       MOV     ?V0 + 1,#0x0
   \   000083   78..         MOV     R0,#?V0 + 0
   \   000085   12....       LCALL   ?PUSH_XSTACK_I_TWO
   \   000088   75..01       MOV     ?V0 + 0,#0x1
   \   00008B   78..         MOV     R0,#?V0 + 0
   \   00008D   12....       LCALL   ?PUSH_XSTACK_I_TWO
   \   000090   7920         MOV     R1,#0x20
   \   000092   7C..         MOV     R4,#SampleApp_epDesc & 0xff
   \   000094   7D..         MOV     R5,#(SampleApp_epDesc >> 8) & 0xff
   \   000096   7A..         MOV     R2,#SampleApp_Periodic_DstAddr & 0xff
   \   000098   7B..         MOV     R3,#(SampleApp_Periodic_DstAddr >> 8) & 0xff
   \   00009A   12....       LCALL   ??AF_DataRequest?relay
   \   00009D   7409         MOV     A,#0x9
   \   00009F   12....       LCALL   ?DEALLOC_XSTACK8
   \   0000A2   E9           MOV     A,R1
   \   0000A3   6007         JZ      ??SampleApp_SendPeriodicMessage_3
    555            {
    556            }
    557            else
    558            {
    559              HalLedSet(HAL_LED_1, HAL_LED_MODE_ON);
   \   0000A5                ; Setup parameters for call to function HalLedSet
   \   0000A5   7A01         MOV     R2,#0x1
   \   0000A7   7901         MOV     R1,#0x1
   \   0000A9   12....       LCALL   ??HalLedSet?relay
    560              // Error occurred in request to send.
    561            }
    562          
    563          #endif 
    564            
    565           
    566          }
   \                     ??SampleApp_SendPeriodicMessage_3:
   \   0000AC   7404         MOV     A,#0x4
   \   0000AE                REQUIRE ?Subroutine2
   \   0000AE                ; // Fall through to label ?Subroutine2

   \                                 In  segment BANKED_CODE, align 1, keep-with-next
   \                     ?Subroutine2:
   \   000000   12....       LCALL   ?DEALLOC_XSTACK8
   \   000003   7F02         MOV     R7,#0x2
   \   000005   02....       LJMP    ?BANKED_LEAVE_XDATA
    567          
    568          /*********************************************************************
    569           * @fn      SampleApp_SendFlashMessage
    570           *
    571           * @brief   Send the flash message to group 1.
    572           *
    573           * @param   flashTime - in milliseconds
    574           *
    575           * @return  none
    576           */

   \                                 In  segment BANKED_CODE, align 1, keep-with-next
    577          void SampleApp_SendFlashMessage( uint16 flashTime )  
   \                     SampleApp_SendFlashMessage:
    578          {
   \   000000   74F6         MOV     A,#-0xa
   \   000002   12....       LCALL   ?BANKED_ENTER_XDATA
   \   000005                ; Saved register size: 10
   \   000005                ; Auto size: 3
   \   000005   74FD         MOV     A,#-0x3
   \   000007   12....       LCALL   ?ALLOC_XSTACK8
    579            uint8 buffer[3];
    580            buffer[0] = (uint8)(SampleAppFlashCounter++);
   \   00000A   90....       MOV     DPTR,#SampleAppFlashCounter
   \   00000D   E0           MOVX    A,@DPTR
   \   00000E   85..82       MOV     DPL,?XSP + 0
   \   000011   85..83       MOV     DPH,?XSP + 1
   \   000014   F0           MOVX    @DPTR,A
   \   000015   90....       MOV     DPTR,#SampleAppFlashCounter
   \   000018   E0           MOVX    A,@DPTR
   \   000019   04           INC     A
   \   00001A   F0           MOVX    @DPTR,A
    581            buffer[1] = LO_UINT16( flashTime );
   \   00001B   7401         MOV     A,#0x1
   \   00001D   12....       LCALL   ?XSTACK_DISP0_8
   \   000020   EA           MOV     A,R2
   \   000021   F0           MOVX    @DPTR,A
    582            buffer[2] = HI_UINT16( flashTime );
   \   000022   7402         MOV     A,#0x2
   \   000024   12....       LCALL   ?XSTACK_DISP0_8
   \   000027   EB           MOV     A,R3
   \   000028   F0           MOVX    @DPTR,A
    583          
    584            if ( AF_DataRequest( &SampleApp_Flash_DstAddr, &SampleApp_epDesc,
    585                                 SAMPLEAPP_FLASH_CLUSTERID,
    586                                 3,
    587                                 buffer,
    588                                 &SampleApp_TransID,
    589                                 AF_DISCV_ROUTE,
    590                                 AF_DEFAULT_RADIUS ) == afStatus_SUCCESS )
   \   000029                ; Setup parameters for call to function AF_DataRequest
   \   000029   75..1E       MOV     ?V0 + 0,#0x1e
   \   00002C   78..         MOV     R0,#?V0 + 0
   \   00002E   12....       LCALL   ?PUSH_XSTACK_I_ONE
   \   000031   75....       MOV     ?V0 + 0,#SampleApp_TransID & 0xff
   \   000034   75....       MOV     ?V0 + 1,#(SampleApp_TransID >> 8) & 0xff
   \   000037   78..         MOV     R0,#?V0 + 0
   \   000039   12....       LCALL   ?PUSH_XSTACK_I_TWO
   \   00003C   7403         MOV     A,#0x3
   \   00003E   12....       LCALL   ?XSTACK_DISP0_8
   \   000041   8582..       MOV     ?V0 + 0,DPL
   \   000044   8583..       MOV     ?V0 + 1,DPH
   \   000047   78..         MOV     R0,#?V0 + 0
   \   000049   12....       LCALL   ?PUSH_XSTACK_I_TWO
   \   00004C   75..03       MOV     ?V0 + 0,#0x3
   \   00004F   75..00       MOV     ?V0 + 1,#0x0
   \   000052   78..         MOV     R0,#?V0 + 0
   \   000054   12....       LCALL   ?PUSH_XSTACK_I_TWO
   \   000057   75..02       MOV     ?V0 + 0,#0x2
   \   00005A   78..         MOV     R0,#?V0 + 0
   \   00005C   12....       LCALL   ?PUSH_XSTACK_I_TWO
   \   00005F   7920         MOV     R1,#0x20
   \   000061   7C..         MOV     R4,#SampleApp_epDesc & 0xff
   \   000063   7D..         MOV     R5,#(SampleApp_epDesc >> 8) & 0xff
   \   000065   7A..         MOV     R2,#SampleApp_Flash_DstAddr & 0xff
   \   000067   7B..         MOV     R3,#(SampleApp_Flash_DstAddr >> 8) & 0xff
   \   000069   12....       LCALL   ??AF_DataRequest?relay
   \   00006C   7409         MOV     A,#0x9
   \   00006E   12....       LCALL   ?DEALLOC_XSTACK8
    591            {
    592            }
    593            else
    594            {
    595              // Error occurred in request to send.
    596            }
    597          }
   \   000071   7403         MOV     A,#0x3
   \   000073   02....       LJMP    ?Subroutine2 & 0xFFFF

   \                                 In  segment BANKED_CODE, align 1, keep-with-next
    598          void SampleApp_Send_P2P_Message(void){
   \                     SampleApp_Send_P2P_Message:
   \   000000                ; Saved register size: 0
   \   000000                ; Auto size: 0
    599             
    600          }
   \   000000   02....       LJMP    ?BRET
    601          /*********************************************************************
    602          *********************************************************************/

   \                                 In  segment BANKED_CODE, align 1, keep-with-next
    603           uint16 ReadGasData( void )
   \                     ReadGasData:
    604          {
   \   000000                ; Saved register size: 0
   \   000000                ; Auto size: 0
    605            uint16 reading = 0;
    606            
    607            /* Enable channel */
    608            ADCCFG |= 0x40;
   \   000000   43F240       ORL     0xf2,#0x40
    609            
    610            /* writing to this register starts the extra conversion */
    611            ADCCON3 = 0x86;// AVDD5 引脚  00： 64 抽取率(7 位ENOB)  0110： AIN6
   \   000003   75B686       MOV     0xb6,#-0x7a
    612            
    613            /* Wait for the conversion to be done */
    614            while (!(ADCCON1 & 0x80));
   \                     ??ReadGasData_0:
   \   000006   E5B4         MOV     A,0xb4
   \   000008   A2E7         MOV     C,0xE0 /* A   */.7
   \   00000A   50FA         JNC     ??ReadGasData_0
    615            
    616            /* Disable channel after done conversion */
    617            ADCCFG &= (0x40 ^ 0xFF); //按位异或。如1010^1111=0101（二进制）
   \   00000C   53F2BF       ANL     0xf2,#0xbf
    618            
    619            /* Read the result */
    620            reading = ADCL;
   \   00000F                REQUIRE ?Subroutine0
   \   00000F                REQUIRE ADCCFG
   \   00000F                REQUIRE ADCCON3
   \   00000F                REQUIRE ADCCON1
   \   00000F                REQUIRE ADCL
   \   00000F                REQUIRE ADCH
   \   00000F                ; // Fall through to label ?Subroutine0
    621            reading |= (int16) (ADCH << 8); 
    622            
    623            reading >>= 8;
    624            
    625            return (reading);
    626          } 

   \                                 In  segment BANKED_CODE, align 1, keep-with-next
   \                     ?Subroutine0:
   \   000000   E5BA         MOV     A,0xba
   \   000002   E5BB         MOV     A,0xbb
   \   000004   FA           MOV     R2,A
   \   000005   E4           CLR     A
   \   000006   FB           MOV     R3,A
   \   000007   02....       LJMP    ?BRET

   \                                 In  segment BANKED_CODE, align 1, keep-with-next
    627          uint16 ReadHumidityData( void )
   \                     ReadHumidityData:
    628          {
   \   000000                ; Saved register size: 0
   \   000000                ; Auto size: 0
    629            uint16 reading = 0;
    630            
    631            P0DIR &= ~0x40;  // 设置P0.6为输入方式
   \   000000   53FDBF       ANL     0xfd,#0xbf
    632            asm("NOP");asm("NOP");
   \   000003   00           NOP
   \   000004   00           NOP
    633            
    634            /* Clear ADC interrupt flag */
    635            ADCIF = 0;
   \   000005   C28D         CLR     0x88.5
    636            
    637            //ADCCON3 = (0x80 | HAL_ADC_DEC_064 | HAL_ADC_CHANNEL_5);
    638            ADCCON3 = (0x80 | 0x00 | 0x06);
   \   000007   75B686       MOV     0xb6,#-0x7a
    639            /* Wait for the conversion to finish */
    640            while ( !ADCIF );
   \                     ??ReadHumidityData_0:
   \   00000A   A28D         MOV     C,0x88.5
   \   00000C   50FC         JNC     ??ReadHumidityData_0
    641            
    642            asm("NOP");asm("NOP");
   \   00000E   00           NOP
   \   00000F   00           NOP
    643            
    644            /* Read the result */
    645            reading = ADCL;
   \   000010   80..         SJMP    ?Subroutine0
   \   000012                REQUIRE P0DIR
   \   000012                REQUIRE _A_TCON
   \   000012                REQUIRE ADCCON3
   \   000012                REQUIRE ADCL
   \   000012                REQUIRE ADCH
    646            reading |= (int16) (ADCH << 8);
    647            reading >>= 8;
    648            
    649            return reading;
    650          }

   \                                 In  segment XDATA_ID, align 1, keep-with-next
   \                     `?<Initializer for AppTitle>`:
   \   000000   414C4432     DB "ALD2530 Example"
   \            35333020
   \            4578616D
   \            706C6500

   \                                 In  segment XDATA_ID, align 1, keep-with-next
   \                     `?<Initializer for Auto>`:
   \   000000   01           DB 1

   \                                 In  segment BANK_RELAYS, align 1
   \                     ??myDelay?relay:
   \   000000   12....       LCALL   ?BDISPATCH
   \   000003   ......       DC24    myDelay

   \                                 In  segment BANK_RELAYS, align 1
   \                     ??SampleApp_Init?relay:
   \   000000   12....       LCALL   ?BDISPATCH
   \   000003   ......       DC24    SampleApp_Init

   \                                 In  segment BANK_RELAYS, align 1
   \                     ??SampleApp_ProcessEvent?relay:
   \   000000   12....       LCALL   ?BDISPATCH
   \   000003   ......       DC24    SampleApp_ProcessEvent

   \                                 In  segment BANK_RELAYS, align 1
   \                     ??SampleApp_HandleKeys?relay:
   \   000000   12....       LCALL   ?BDISPATCH
   \   000003   ......       DC24    SampleApp_HandleKeys

   \                                 In  segment BANK_RELAYS, align 1
   \                     ??SampleApp_MessageMSGCB?relay:
   \   000000   12....       LCALL   ?BDISPATCH
   \   000003   ......       DC24    SampleApp_MessageMSGCB

   \                                 In  segment BANK_RELAYS, align 1
   \                     ??SampleApp_SendPeriodicMessage?relay:
   \   000000   12....       LCALL   ?BDISPATCH
   \   000003   ......       DC24    SampleApp_SendPeriodicMessage

   \                                 In  segment BANK_RELAYS, align 1
   \                     ??SampleApp_SendFlashMessage?relay:
   \   000000   12....       LCALL   ?BDISPATCH
   \   000003   ......       DC24    SampleApp_SendFlashMessage

   \                                 In  segment BANK_RELAYS, align 1
   \                     ??SampleApp_Send_P2P_Message?relay:
   \   000000   12....       LCALL   ?BDISPATCH
   \   000003   ......       DC24    SampleApp_Send_P2P_Message

   \                                 In  segment BANK_RELAYS, align 1
   \                     ??ReadGasData?relay:
   \   000000   12....       LCALL   ?BDISPATCH
   \   000003   ......       DC24    ReadGasData

   \                                 In  segment BANK_RELAYS, align 1
   \                     ??ReadHumidityData?relay:
   \   000000   12....       LCALL   ?BDISPATCH
   \   000003   ......       DC24    ReadHumidityData

   \                                 In  segment XDATA_ROM_C, align 1
   \                     `?<Constant "UartInit OK\\n">`:
   \   000000   55617274     DB "UartInit OK\012"
   \            496E6974
   \            204F4B0A
   \            00      

   \                                 In  segment XDATA_ROM_C, align 1
   \                     `?<Constant "Group 1">`:
   \   000000   47726F75     DB "Group 1"
   \            70203100

   \                                 In  segment XDATA_ROM_C, align 1
   \                     `?<Constant "SampleApp">`:
   \   000000   53616D70     DB "SampleApp"
   \            6C654170
   \            7000    

   \                                 In  segment XDATA_ROM_C, align 1
   \                     `?<Constant {0}>`:
   \   000000   00           DB 0
   \   000001   00000000     DB 0, 0, 0, 0, 0, 0, 0, 0
   \            00000000
   \   000009   00000000     DB 0, 0, 0, 0, 0
   \            00      

   \                                 In  segment XDATA_ROM_C, align 1
   \                     `?<Constant {0}>_1`:
   \   000000   00           DB 0
   \   000001   000000       DB 0, 0, 0

   \                                 In  segment XDATA_ROM_C, align 1
   \                     `?<Constant "AT1">`:
   \   000000   41543100     DB "AT1"

   \                                 In  segment XDATA_ROM_C, align 1
   \                     `?<Constant "AT2">`:
   \   000000   41543200     DB "AT2"

   Maximum stack usage in bytes:

     Function                       ISTACK PSTACK XSTACK
     --------                       ------ ------ ------
     ReadGasData                        0      0      0
     ReadHumidityData                   0      0      0
     SampleApp_HandleKeys               0      0     21
       -> SampleApp_SendFlashMessage
                                        0      0     18
     SampleApp_Init                     0      0     14
       -> MT_UartInit                   0      0     22
       -> MT_UartRegisterTaskID         0      0     22
       -> HalUARTWrite                  0      0     22
       -> afRegister                    0      0     22
       -> RegisterForKeys               0      0     22
       -> osal_memcpy                   0      0     28
       -> aps_AddGroup                  0      0     22
       -> HalLcdWriteString             0      0     22
     SampleApp_MessageMSGCB             2      0     40
       -> osal_memset                   0      0     50
       -> osal_memcpy                   0      0     56
       -> HalUARTWrite                  0      0     50
       -> SampleApp_SendPeriodicMessage
                                        0      0     50
       -> HalLedBlink                   0      0     50
     SampleApp_ProcessEvent             0      0     12
       -> osal_msg_receive              0      0     24
       -> osal_start_timerEx            0      0     24
       -> osal_msg_deallocate           0      0     24
       -> osal_msg_receive              0      0     24
       -> SampleApp_HandleKeys          0      0     24
       -> SampleApp_MessageMSGCB        0      0     24
       -> SampleApp_SendPeriodicMessage
                                        0      0     24
       -> osal_rand                     0      0     24
       -> osal_start_timerEx            0      0     24
     SampleApp_SendFlashMessage         1      0     31
       -> AF_DataRequest                0      0     44
     SampleApp_SendPeriodicMessage      2      0     48
       -> sprintf                       0      0     28
       -> sprintf                       0      0     28
       -> AF_DataRequest                0      0     46
       -> HalLedSet                     0      0     28
     SampleApp_Send_P2P_Message         0      0      0
     myDelay                            0      0      0


   Segment part sizes:

     Function/Label                        Bytes
     --------------                        -----
     _A_P0                                    1
     _A_TCON                                  1
     ADCCON1                                  1
     ADCCON3                                  1
     ADCL                                     1
     ADCH                                     1
     ADCCFG                                   1
     P0SEL                                    1
     P0DIR                                    1
     P1DIR                                    1
     AppTitle                                16
     Auto                                     1
     myDelay                                 31
     SampleApp_ClusterList                    4
     SampleApp_SimpleDesc                    12
     SampleApp_epDesc                         6
     SampleApp_TaskID                         1
     SampleApp_NwkState                       1
     SampleApp_TransID                        1
     SampleApp_Periodic_DstAddr              12
     SampleApp_Flash_DstAddr                 12
     SampleApp_Group                         18
     SampleAppPeriodicCounter                 1
     SampleAppFlashCounter                    1
     SampleApp_Init                         198
     ?Subroutine1                             5
     SampleApp_ProcessEvent                 176
     SampleApp_HandleKeys                    22
     SampleApp_MessageMSGCB                 217
     ?Subroutine4                            12
     ?Subroutine3                             3
     ??Subroutine5_0                          8
     SampleApp_SendPeriodicMessage          174
     ?Subroutine2                             8
     SampleApp_SendFlashMessage             118
     SampleApp_Send_P2P_Message               3
     ReadGasData                             15
     ?Subroutine0                            10
     ReadHumidityData                        18
     ?<Initializer for AppTitle>             16
     ?<Initializer for Auto>                  1
     ??myDelay?relay                          6
     ??SampleApp_Init?relay                   6
     ??SampleApp_ProcessEvent?relay           6
     ??SampleApp_HandleKeys?relay             6
     ??SampleApp_MessageMSGCB?relay           6
     ??SampleApp_SendPeriodicMessage?relay    6
     ??SampleApp_SendFlashMessage?relay       6
     ??SampleApp_Send_P2P_Message?relay       6
     ??ReadGasData?relay                      6
     ??ReadHumidityData?relay                 6
     ?<Constant "UartInit OK\n">             13
     ?<Constant "Group 1">                    8
     ?<Constant "SampleApp">                 10
     ?<Constant {0}>                         14
     ?<Constant {0}>_1                        4
     ?<Constant "AT1">                        4
     ?<Constant "AT2">                        4

 
 1 018 bytes in segment BANKED_CODE
    60 bytes in segment BANK_RELAYS
    10 bytes in segment SFR_AN
    17 bytes in segment XDATA_I
    17 bytes in segment XDATA_ID
    73 bytes in segment XDATA_ROM_C
    53 bytes in segment XDATA_Z
 
 1 095 bytes of CODE  memory
    73 bytes of CONST memory
     0 bytes of DATA  memory (+ 10 bytes shared)
    70 bytes of XDATA memory

Errors: none
Warnings: 2
